; C:\rtools44\x86_64-w64-mingw32.static.posix\bin\dlltool.exe --export-all-symbols --output-def tbb.def tbb.dll
EXPORTS
	".refptr._CRT_MT" @ 1 DATA
	".refptr._ZN10__cxxabiv119__terminate_handlerE" @ 2 DATA
	".refptr._ZN10__cxxabiv120__unexpected_handlerE" @ 3 DATA
	".refptr._ZN3tbb8internal14__TBB_InitOnce18InitializationDoneE" @ 4 DATA
	".refptr._ZN3tbb8internal19PrintRMLVersionInfoEPvPKc" @ 5 DATA
	".refptr._ZN3tbb8internal20AllocateSchedulerPtrE" @ 6 DATA
	".refptr._ZN3tbb8internal24the_global_observer_listE" @ 7 DATA
	".refptr._ZN3tbb8internal35the_context_state_propagation_epochE" @ 8 DATA
	".refptr._ZN3tbb8internal35the_context_state_propagation_mutexE" @ 9 DATA
	".refptr._ZN3tbb8internal6market14theMarketMutexE" @ 10 DATA
	".refptr._ZN3tbb8internal6market9theMarketE" @ 11 DATA
	".refptr._ZN3tbb8internal8governor13UsePrivateRMLE" @ 12 DATA
	".refptr._ZN3tbb8internal8governor17is_rethrow_brokenE" @ 13 DATA
	".refptr._ZN3tbb8internal8governor19theRMLServerFactoryE" @ 14 DATA
	".refptr._ZN3tbb8internal8governor22DefaultNumberOfThreadsE" @ 15 DATA
	".refptr._ZN3tbb8internal8governor22is_speculation_enabledE" @ 16 DATA
	".refptr._ZN3tbb8internal8governor6theTLSE" @ 17 DATA
	".refptr._ZN9__gnu_cxx27__verbose_terminate_handlerEv" @ 18 DATA
	".refptr._ZNSs4_Rep20_S_empty_rep_storageE" @ 19 DATA
	".refptr._ZNSt10bad_typeidD1Ev" @ 20 DATA
	".refptr._ZNSt11logic_errorD1Ev" @ 21 DATA
	".refptr._ZNSt11range_errorD1Ev" @ 22 DATA
	".refptr._ZNSt12domain_errorD1Ev" @ 23 DATA
	".refptr._ZNSt12length_errorD1Ev" @ 24 DATA
	".refptr._ZNSt12out_of_rangeD1Ev" @ 25 DATA
	".refptr._ZNSt13bad_exceptionD1Ev" @ 26 DATA
	".refptr._ZNSt13runtime_errorD1Ev" @ 27 DATA
	".refptr._ZNSt14overflow_errorD1Ev" @ 28 DATA
	".refptr._ZNSt15underflow_errorD1Ev" @ 29 DATA
	".refptr._ZNSt16invalid_argumentD1Ev" @ 30 DATA
	".refptr._ZNSt20bad_array_new_lengthD1Ev" @ 31 DATA
	".refptr._ZNSt8bad_castD1Ev" @ 32 DATA
	".refptr._ZNSt9bad_allocD1Ev" @ 33 DATA
	".refptr._ZTVSt10bad_typeid" @ 34 DATA
	".refptr._ZTVSt11logic_error" @ 35 DATA
	".refptr._ZTVSt11range_error" @ 36 DATA
	".refptr._ZTVSt12domain_error" @ 37 DATA
	".refptr._ZTVSt12length_error" @ 38 DATA
	".refptr._ZTVSt12out_of_range" @ 39 DATA
	".refptr._ZTVSt13bad_exception" @ 40 DATA
	".refptr._ZTVSt13runtime_error" @ 41 DATA
	".refptr._ZTVSt14overflow_error" @ 42 DATA
	".refptr._ZTVSt15underflow_error" @ 43 DATA
	".refptr._ZTVSt16invalid_argument" @ 44 DATA
	".refptr._ZTVSt20bad_array_new_length" @ 45 DATA
	".refptr._ZTVSt8bad_cast" @ 46 DATA
	".refptr._ZTVSt9bad_alloc" @ 47 DATA
	".refptr.__CTOR_LIST__" @ 48 DATA
	".refptr.__RUNTIME_PSEUDO_RELOC_LIST_END__" @ 49 DATA
	".refptr.__RUNTIME_PSEUDO_RELOC_LIST__" @ 50 DATA
	".refptr.__dyn_tls_init_callback" @ 51 DATA
	".refptr.__image_base__" @ 52 DATA
	".refptr.__imp__tzset" @ 53 DATA
	".refptr.__mingw_app_type" @ 54 DATA
	".refptr.__mingw_module_is_dll" @ 55 DATA
	".refptr.__native_dllmain_reason" @ 56 DATA
	".refptr.__native_startup_lock" @ 57 DATA
	".refptr.__native_startup_state" @ 58 DATA
	".refptr.__tens_D2A" @ 59 DATA
	".refptr.__xc_a" @ 60 DATA
	".refptr.__xc_z" @ 61 DATA
	".refptr.__xi_a" @ 62 DATA
	".refptr.__xi_z" @ 63 DATA
	".refptr.free" @ 64 DATA
	".refptr.malloc" @ 65 DATA
	".weak.__cxa_pure_virtual._ZN3tbb10empty_task7executeEv" @ 66 DATA
	".weak.__cxa_pure_virtual._ZN3tbb4task13note_affinityEt" @ 67 DATA
	".weak.__cxa_pure_virtual._ZN3tbb6filter8finalizeEPv" @ 68 DATA
	".weak.__cxa_pure_virtual._ZN3tbb8internal11micro_queue13pop_finalizerD1Ev" @ 69 DATA
	".weak.__cxa_pure_virtual._ZN3tbb8internal25micro_queue_pop_finalizerD1Ev" @ 70 DATA
	".weak.__cxa_pure_virtual._ZNK3tbb18captured_exception4nameEv" @ 71 DATA
	".weak.__cxa_pure_virtual._ZNSt9exceptionD2Ev" @ 72 DATA
	AddVectoredExceptionHandler @ 73 DATA
	CloseHandle @ 74 DATA
	CreateEventA @ 75 DATA
	CreateSemaphoreA @ 76 DATA
	DeleteCriticalSection @ 77 DATA
	DllEntryPoint @ 78
	DllMain @ 79
	DllMainCRTStartup @ 80
	DuplicateHandle @ 81 DATA
	EnterCriticalSection @ 82 DATA
	FormatMessageA @ 83 DATA
	FreeLibrary @ 84 DATA
	GetCurrentProcess @ 85 DATA
	GetCurrentProcessId @ 86 DATA
	GetCurrentThread @ 87 DATA
	GetCurrentThreadId @ 88 DATA
	GetHandleInformation @ 89 DATA
	GetLastError @ 90 DATA
	GetModuleFileNameA @ 91 DATA
	GetModuleHandleExA @ 92 DATA
	GetNativeSystemInfo @ 93 DATA
	GetProcAddress @ 94 DATA
	GetProcessAffinityMask @ 95 DATA
	GetSystemInfo @ 96 DATA
	GetSystemTimeAsFileTime @ 97 DATA
	GetThreadContext @ 98 DATA
	GetThreadPriority @ 99 DATA
	GetTickCount64 @ 100 DATA
	InitializeCriticalSection @ 101 DATA
	InitializeCriticalSectionAndSpinCount @ 102 DATA
	IsDebuggerPresent @ 103 DATA
	LeaveCriticalSection @ 104 DATA
	LoadLibraryA @ 105 DATA
	OpenProcess @ 106 DATA
	OutputDebugStringA @ 107 DATA
	QueryPerformanceCounter @ 108 DATA
	QueryPerformanceFrequency @ 109 DATA
	RaiseException @ 110 DATA
	ReleaseSemaphore @ 111 DATA
	RemoveVectoredExceptionHandler @ 112 DATA
	ResetEvent @ 113 DATA
	ResumeThread @ 114 DATA
	RtlCaptureContext @ 115 DATA
	RtlLookupFunctionEntry @ 116 DATA
	RtlUnwindEx @ 117 DATA
	RtlVirtualUnwind @ 118 DATA
	SetErrorMode @ 119 DATA
	SetEvent @ 120 DATA
	SetLastError @ 121 DATA
	SetProcessAffinityMask @ 122 DATA
	SetThreadContext @ 123 DATA
	SetThreadPriority @ 124 DATA
	Sleep @ 125 DATA
	SuspendThread @ 126 DATA
	SwitchToThread @ 127 DATA
	TBB_runtime_interface_version @ 128
	TlsAlloc @ 129 DATA
	TlsFree @ 130 DATA
	TlsGetValue @ 131 DATA
	TlsSetValue @ 132 DATA
	TryEnterCriticalSection @ 133 DATA
	VirtualProtect @ 134 DATA
	VirtualQuery @ 135 DATA
	WaitForMultipleObjects @ 136 DATA
	WaitForSingleObject @ 137 DATA
	WaitForSingleObjectEx @ 138 DATA
	_CRT_INIT @ 139
	_CRT_MT @ 140 DATA
	_FindPESection @ 141
	_FindPESectionByName @ 142
	_FindPESectionExec @ 143
	_GCC_specific_handler @ 144
	_GetPEImageBase @ 145
	_IsNonwritableInCurrentImage @ 146
	_Unwind_Backtrace @ 147
	_Unwind_DeleteException @ 148
	_Unwind_FindEnclosingFunction @ 149
	_Unwind_ForcedUnwind @ 150
	_Unwind_GetCFA @ 151
	_Unwind_GetDataRelBase @ 152
	_Unwind_GetGR @ 153
	_Unwind_GetIP @ 154
	_Unwind_GetIPInfo @ 155
	_Unwind_GetLanguageSpecificData @ 156
	_Unwind_GetRegionStart @ 157
	_Unwind_GetTextRelBase @ 158
	_Unwind_RaiseException @ 159
	_Unwind_Resume @ 160
	_Unwind_Resume_or_Rethrow @ 161
	_Unwind_SetGR @ 162
	_Unwind_SetIP @ 163
	_ValidateImageBase @ 164
;	transaction clone for std::bad_exception::what() const
	_ZGTtNKSt13bad_exception4whatEv @ 165
;	transaction clone for std::bad_exception::~bad_exception() const
	_ZGTtNKSt13bad_exceptionD1Ev @ 166
;	transaction clone for std::exception::what() const
	_ZGTtNKSt9exception4whatEv @ 167
;	transaction clone for std::exception::~exception() const
	_ZGTtNKSt9exceptionD1Ev @ 168
;	__cxxabiv1::__terminate(void (*)())
	_ZN10__cxxabiv111__terminateEPFvvE @ 169
;	__cxxabiv1::__unexpected(void (*)())
	_ZN10__cxxabiv112__unexpectedEPFvvE @ 170
;	__cxxabiv1::__forced_unwind::~__forced_unwind()
	_ZN10__cxxabiv115__forced_unwindD0Ev @ 171
;	__cxxabiv1::__forced_unwind::~__forced_unwind()
	_ZN10__cxxabiv115__forced_unwindD1Ev @ 172
;	__cxxabiv1::__forced_unwind::~__forced_unwind()
	_ZN10__cxxabiv115__forced_unwindD2Ev @ 173
;	__cxxabiv1::__class_type_info::~__class_type_info()
	_ZN10__cxxabiv117__class_type_infoD0Ev @ 174
;	__cxxabiv1::__class_type_info::~__class_type_info()
	_ZN10__cxxabiv117__class_type_infoD1Ev @ 175
;	__cxxabiv1::__class_type_info::~__class_type_info()
	_ZN10__cxxabiv117__class_type_infoD2Ev @ 176
;	__cxxabiv1::__foreign_exception::~__foreign_exception()
	_ZN10__cxxabiv119__foreign_exceptionD0Ev @ 177
;	__cxxabiv1::__foreign_exception::~__foreign_exception()
	_ZN10__cxxabiv119__foreign_exceptionD1Ev @ 178
;	__cxxabiv1::__foreign_exception::~__foreign_exception()
	_ZN10__cxxabiv119__foreign_exceptionD2Ev @ 179
;	__cxxabiv1::__terminate_handler
	_ZN10__cxxabiv119__terminate_handlerE @ 180 DATA
;	__cxxabiv1::__si_class_type_info::~__si_class_type_info()
	_ZN10__cxxabiv120__si_class_type_infoD0Ev @ 181
;	__cxxabiv1::__si_class_type_info::~__si_class_type_info()
	_ZN10__cxxabiv120__si_class_type_infoD1Ev @ 182
;	__cxxabiv1::__si_class_type_info::~__si_class_type_info()
	_ZN10__cxxabiv120__si_class_type_infoD2Ev @ 183
;	__cxxabiv1::__unexpected_handler
	_ZN10__cxxabiv120__unexpected_handlerE @ 184 DATA
;	__cxxabiv1::__vmi_class_type_info::~__vmi_class_type_info()
	_ZN10__cxxabiv121__vmi_class_type_infoD0Ev @ 185
;	__cxxabiv1::__vmi_class_type_info::~__vmi_class_type_info()
	_ZN10__cxxabiv121__vmi_class_type_infoD1Ev @ 186
;	__cxxabiv1::__vmi_class_type_info::~__vmi_class_type_info()
	_ZN10__cxxabiv121__vmi_class_type_infoD2Ev @ 187
;	rml::internal::thread_monitor::detach_thread(void*)
	_ZN3rml8internal14thread_monitor13detach_threadEPv @ 188
;	rml::internal::thread_monitor::join(void*)
	_ZN3rml8internal14thread_monitor4joinEPv @ 189
;	tbb::empty_task::execute()
	_ZN3tbb10empty_task7executeEv @ 190
;	tbb::empty_task::~empty_task()
	_ZN3tbb10empty_taskD0Ev @ 191
;	tbb::empty_task::~empty_task()
	_ZN3tbb10empty_taskD1Ev @ 192
;	tbb::interface5::reader_writer_lock::start_read(tbb::interface5::reader_writer_lock::scoped_lock_read*)
	_ZN3tbb10interface518reader_writer_lock10start_readEPNS1_16scoped_lock_readE @ 193
;	tbb::interface5::reader_writer_lock::scoped_lock::internal_destroy()
	_ZN3tbb10interface518reader_writer_lock11scoped_lock16internal_destroyEv @ 194
;	tbb::interface5::reader_writer_lock::scoped_lock::internal_construct(tbb::interface5::reader_writer_lock&)
	_ZN3tbb10interface518reader_writer_lock11scoped_lock18internal_constructERS1_ @ 195
;	tbb::interface5::reader_writer_lock::start_write(tbb::interface5::reader_writer_lock::scoped_lock*)
	_ZN3tbb10interface518reader_writer_lock11start_writeEPNS1_11scoped_lockE @ 196
;	tbb::interface5::reader_writer_lock::try_lock_read()
	_ZN3tbb10interface518reader_writer_lock13try_lock_readEv @ 197
;	tbb::interface5::reader_writer_lock::set_next_writer(tbb::interface5::reader_writer_lock::scoped_lock*)
	_ZN3tbb10interface518reader_writer_lock15set_next_writerEPNS1_11scoped_lockE @ 198
;	tbb::interface5::reader_writer_lock::unblock_readers()
	_ZN3tbb10interface518reader_writer_lock15unblock_readersEv @ 199
;	tbb::interface5::reader_writer_lock::internal_destroy()
	_ZN3tbb10interface518reader_writer_lock16internal_destroyEv @ 200
;	tbb::interface5::reader_writer_lock::scoped_lock_read::internal_destroy()
	_ZN3tbb10interface518reader_writer_lock16scoped_lock_read16internal_destroyEv @ 201
;	tbb::interface5::reader_writer_lock::scoped_lock_read::internal_construct(tbb::interface5::reader_writer_lock&)
	_ZN3tbb10interface518reader_writer_lock16scoped_lock_read18internal_constructERS1_ @ 202
;	tbb::interface5::reader_writer_lock::internal_construct()
	_ZN3tbb10interface518reader_writer_lock18internal_constructEv @ 203
;	tbb::interface5::reader_writer_lock::lock()
	_ZN3tbb10interface518reader_writer_lock4lockEv @ 204
;	tbb::interface5::reader_writer_lock::unlock()
	_ZN3tbb10interface518reader_writer_lock6unlockEv @ 205
;	tbb::interface5::reader_writer_lock::end_read()
	_ZN3tbb10interface518reader_writer_lock8end_readEv @ 206
;	tbb::interface5::reader_writer_lock::try_lock()
	_ZN3tbb10interface518reader_writer_lock8try_lockEv @ 207
;	tbb::interface5::reader_writer_lock::end_write(tbb::interface5::reader_writer_lock::scoped_lock*)
	_ZN3tbb10interface518reader_writer_lock9end_writeEPNS1_11scoped_lockE @ 208
;	tbb::interface5::reader_writer_lock::lock_read()
	_ZN3tbb10interface518reader_writer_lock9lock_readEv @ 209
;	tbb::interface5::internal::internal_condition_variable_wait(tbb::interface5::internal::condvar_impl_t&, tbb::mutex*, tbb::tick_count::interval_t const*)
	_ZN3tbb10interface58internal32internal_condition_variable_waitERNS1_14condvar_impl_tEPNS_5mutexEPKNS_10tick_count10interval_tE @ 210
;	tbb::interface5::internal::internal_destroy_condition_variable(tbb::interface5::internal::condvar_impl_t&)
	_ZN3tbb10interface58internal35internal_destroy_condition_variableERNS1_14condvar_impl_tE @ 211
;	tbb::interface5::internal::internal_condition_variable_notify_all(tbb::interface5::internal::condvar_impl_t&)
	_ZN3tbb10interface58internal38internal_condition_variable_notify_allERNS1_14condvar_impl_tE @ 212
;	tbb::interface5::internal::internal_condition_variable_notify_one(tbb::interface5::internal::condvar_impl_t&)
	_ZN3tbb10interface58internal38internal_condition_variable_notify_oneERNS1_14condvar_impl_tE @ 213
;	tbb::interface5::internal::internal_initialize_condition_variable(tbb::interface5::internal::condvar_impl_t&)
	_ZN3tbb10interface58internal38internal_initialize_condition_variableERNS1_14condvar_impl_tE @ 214
;	tbb::interface5::internal::task_base::destroy(tbb::task&)
	_ZN3tbb10interface58internal9task_base7destroyERNS_4taskE @ 215
;	tbb::interface6::task_scheduler_observer::~task_scheduler_observer()
	_ZN3tbb10interface623task_scheduler_observerD0Ev @ 216
;	tbb::interface6::task_scheduler_observer::~task_scheduler_observer()
	_ZN3tbb10interface623task_scheduler_observerD1Ev @ 217
;	tbb::interface7::internal::delegated_task::execute()
	_ZN3tbb10interface78internal14delegated_task7executeEv @ 218
;	tbb::interface7::internal::delegated_task::~delegated_task()
	_ZN3tbb10interface78internal14delegated_taskD0Ev @ 219
;	tbb::interface7::internal::delegated_task::~delegated_task()
	_ZN3tbb10interface78internal14delegated_taskD1Ev @ 220
;	tbb::interface7::internal::task_arena_base::internal_attach()
	_ZN3tbb10interface78internal15task_arena_base15internal_attachEv @ 221
;	tbb::interface7::internal::task_arena_base::internal_terminate()
	_ZN3tbb10interface78internal15task_arena_base18internal_terminateEv @ 222
;	tbb::interface7::internal::task_arena_base::internal_initialize()
	_ZN3tbb10interface78internal15task_arena_base19internal_initializeEv @ 223
;	tbb::interface7::internal::task_arena_base::internal_current_slot()
	_ZN3tbb10interface78internal15task_arena_base21internal_current_slotEv @ 224
;	tbb::interface7::internal::task_arena_base::internal_max_concurrency(tbb::interface7::task_arena const*)
	_ZN3tbb10interface78internal15task_arena_base24internal_max_concurrencyEPKNS0_10task_arenaE @ 225
;	tbb::interface7::internal::isolate_within_arena(tbb::interface7::internal::delegate_base&, long long)
	_ZN3tbb10interface78internal20isolate_within_arenaERNS1_13delegate_baseEx @ 226
;	tbb::interface7::internal::wait_task::execute()
	_ZN3tbb10interface78internal9wait_task7executeEv @ 227
;	tbb::interface7::internal::wait_task::~wait_task()
	_ZN3tbb10interface78internal9wait_taskD0Ev @ 228
;	tbb::interface7::internal::wait_task::~wait_task()
	_ZN3tbb10interface78internal9wait_taskD1Ev @ 229
;	tbb::interface8::internal::x86_rtm_rw_mutex::internal_release(tbb::interface8::internal::x86_rtm_rw_mutex::scoped_lock&)
	_ZN3tbb10interface88internal16x86_rtm_rw_mutex16internal_releaseERNS2_11scoped_lockE @ 230
;	tbb::interface8::internal::x86_rtm_rw_mutex::internal_upgrade(tbb::interface8::internal::x86_rtm_rw_mutex::scoped_lock&)
	_ZN3tbb10interface88internal16x86_rtm_rw_mutex16internal_upgradeERNS2_11scoped_lockE @ 231
;	tbb::interface8::internal::x86_rtm_rw_mutex::internal_construct()
	_ZN3tbb10interface88internal16x86_rtm_rw_mutex18internal_constructEv @ 232
;	tbb::interface8::internal::x86_rtm_rw_mutex::internal_downgrade(tbb::interface8::internal::x86_rtm_rw_mutex::scoped_lock&)
	_ZN3tbb10interface88internal16x86_rtm_rw_mutex18internal_downgradeERNS2_11scoped_lockE @ 233
;	tbb::interface8::internal::x86_rtm_rw_mutex::internal_acquire_reader(tbb::interface8::internal::x86_rtm_rw_mutex::scoped_lock&, bool)
	_ZN3tbb10interface88internal16x86_rtm_rw_mutex23internal_acquire_readerERNS2_11scoped_lockEb @ 234
;	tbb::interface8::internal::x86_rtm_rw_mutex::internal_acquire_writer(tbb::interface8::internal::x86_rtm_rw_mutex::scoped_lock&, bool)
	_ZN3tbb10interface88internal16x86_rtm_rw_mutex23internal_acquire_writerERNS2_11scoped_lockEb @ 235
;	tbb::interface8::internal::x86_rtm_rw_mutex::internal_try_acquire_writer(tbb::interface8::internal::x86_rtm_rw_mutex::scoped_lock&)
	_ZN3tbb10interface88internal16x86_rtm_rw_mutex27internal_try_acquire_writerERNS2_11scoped_lockE @ 236
;	tbb::interface9::global_control::active_value(int)
	_ZN3tbb10interface914global_control12active_valueEi @ 237
;	tbb::interface9::global_control::internal_create()
	_ZN3tbb10interface914global_control15internal_createEv @ 238
;	tbb::interface9::global_control::internal_destroy()
	_ZN3tbb10interface914global_control16internal_destroyEv @ 239
;	tbb::spin_mutex::scoped_lock::internal_acquire(tbb::spin_mutex&)
	_ZN3tbb10spin_mutex11scoped_lock16internal_acquireERS0_ @ 240
;	tbb::spin_mutex::scoped_lock::internal_release()
	_ZN3tbb10spin_mutex11scoped_lock16internal_releaseEv @ 241
;	tbb::spin_mutex::scoped_lock::internal_try_acquire(tbb::spin_mutex&)
	_ZN3tbb10spin_mutex11scoped_lock20internal_try_acquireERS0_ @ 242
;	tbb::spin_mutex::scoped_lock::~scoped_lock()
	_ZN3tbb10spin_mutex11scoped_lockD1Ev @ 243
;	tbb::spin_mutex::internal_construct()
	_ZN3tbb10spin_mutex18internal_constructEv @ 244
;	tbb::user_abort::~user_abort()
	_ZN3tbb10user_abortD0Ev @ 245
;	tbb::user_abort::~user_abort()
	_ZN3tbb10user_abortD1Ev @ 246
;	tbb::missing_wait::~missing_wait()
	_ZN3tbb12missing_waitD0Ev @ 247
;	tbb::missing_wait::~missing_wait()
	_ZN3tbb12missing_waitD1Ev @ 248
;	tbb::improper_lock::~improper_lock()
	_ZN3tbb13improper_lockD0Ev @ 249
;	tbb::improper_lock::~improper_lock()
	_ZN3tbb13improper_lockD1Ev @ 250
;	tbb::queuing_mutex::scoped_lock::try_acquire(tbb::queuing_mutex&)
	_ZN3tbb13queuing_mutex11scoped_lock11try_acquireERS0_ @ 251
;	tbb::queuing_mutex::scoped_lock::acquire(tbb::queuing_mutex&)
	_ZN3tbb13queuing_mutex11scoped_lock7acquireERS0_ @ 252
;	tbb::queuing_mutex::scoped_lock::release()
	_ZN3tbb13queuing_mutex11scoped_lock7releaseEv @ 253
;	tbb::queuing_mutex::internal_construct()
	_ZN3tbb13queuing_mutex18internal_constructEv @ 254
;	tbb::spin_rw_mutex::internal_upgrade(tbb::spin_rw_mutex*)
	_ZN3tbb13spin_rw_mutex16internal_upgradeEPS0_ @ 255
;	tbb::spin_rw_mutex::internal_downgrade(tbb::spin_rw_mutex*)
	_ZN3tbb13spin_rw_mutex18internal_downgradeEPS0_ @ 256
;	tbb::spin_rw_mutex::internal_itt_releasing(tbb::spin_rw_mutex*)
	_ZN3tbb13spin_rw_mutex22internal_itt_releasingEPS0_ @ 257
;	tbb::spin_rw_mutex::internal_acquire_reader(tbb::spin_rw_mutex*)
	_ZN3tbb13spin_rw_mutex23internal_acquire_readerEPS0_ @ 258
;	tbb::spin_rw_mutex::internal_acquire_writer(tbb::spin_rw_mutex*)
	_ZN3tbb13spin_rw_mutex23internal_acquire_writerEPS0_ @ 259
;	tbb::spin_rw_mutex::internal_release_reader(tbb::spin_rw_mutex*)
	_ZN3tbb13spin_rw_mutex23internal_release_readerEPS0_ @ 260
;	tbb::spin_rw_mutex::internal_release_writer(tbb::spin_rw_mutex*)
	_ZN3tbb13spin_rw_mutex23internal_release_writerEPS0_ @ 261
;	tbb::spin_rw_mutex::internal_try_acquire_reader(tbb::spin_rw_mutex*)
	_ZN3tbb13spin_rw_mutex27internal_try_acquire_readerEPS0_ @ 262
;	tbb::spin_rw_mutex::internal_try_acquire_writer(tbb::spin_rw_mutex*)
	_ZN3tbb13spin_rw_mutex27internal_try_acquire_writerEPS0_ @ 263
;	tbb::bad_last_alloc::~bad_last_alloc()
	_ZN3tbb14bad_last_allocD0Ev @ 264
;	tbb::bad_last_alloc::~bad_last_alloc()
	_ZN3tbb14bad_last_allocD1Ev @ 265
;	tbb::recursive_mutex::scoped_lock::internal_acquire(tbb::recursive_mutex&)
	_ZN3tbb15recursive_mutex11scoped_lock16internal_acquireERS0_ @ 266
;	tbb::recursive_mutex::scoped_lock::internal_release()
	_ZN3tbb15recursive_mutex11scoped_lock16internal_releaseEv @ 267
;	tbb::recursive_mutex::scoped_lock::internal_try_acquire(tbb::recursive_mutex&)
	_ZN3tbb15recursive_mutex11scoped_lock20internal_try_acquireERS0_ @ 268
;	tbb::recursive_mutex::internal_destroy()
	_ZN3tbb15recursive_mutex16internal_destroyEv @ 269
;	tbb::recursive_mutex::internal_construct()
	_ZN3tbb15recursive_mutex18internal_constructEv @ 270
;	tbb::queuing_rw_mutex::scoped_lock::try_acquire(tbb::queuing_rw_mutex&, bool)
	_ZN3tbb16queuing_rw_mutex11scoped_lock11try_acquireERS0_b @ 271
;	tbb::queuing_rw_mutex::scoped_lock::upgrade_to_writer()
	_ZN3tbb16queuing_rw_mutex11scoped_lock17upgrade_to_writerEv @ 272
;	tbb::queuing_rw_mutex::scoped_lock::downgrade_to_reader()
	_ZN3tbb16queuing_rw_mutex11scoped_lock19downgrade_to_readerEv @ 273
;	tbb::queuing_rw_mutex::scoped_lock::acquire(tbb::queuing_rw_mutex&, bool)
	_ZN3tbb16queuing_rw_mutex11scoped_lock7acquireERS0_b @ 274
;	tbb::queuing_rw_mutex::scoped_lock::release()
	_ZN3tbb16queuing_rw_mutex11scoped_lock7releaseEv @ 275
;	tbb::queuing_rw_mutex::internal_construct()
	_ZN3tbb16queuing_rw_mutex18internal_constructEv @ 276
;	tbb::spin_rw_mutex_v3::scoped_lock::release()
	_ZN3tbb16spin_rw_mutex_v311scoped_lock7releaseEv @ 277
;	tbb::spin_rw_mutex_v3::internal_upgrade()
	_ZN3tbb16spin_rw_mutex_v316internal_upgradeEv @ 278
;	tbb::spin_rw_mutex_v3::internal_construct()
	_ZN3tbb16spin_rw_mutex_v318internal_constructEv @ 279
;	tbb::spin_rw_mutex_v3::internal_downgrade()
	_ZN3tbb16spin_rw_mutex_v318internal_downgradeEv @ 280
;	tbb::spin_rw_mutex_v3::internal_acquire_reader()
	_ZN3tbb16spin_rw_mutex_v323internal_acquire_readerEv @ 281
;	tbb::spin_rw_mutex_v3::internal_acquire_writer()
	_ZN3tbb16spin_rw_mutex_v323internal_acquire_writerEv @ 282
;	tbb::spin_rw_mutex_v3::internal_release_reader()
	_ZN3tbb16spin_rw_mutex_v323internal_release_readerEv @ 283
;	tbb::spin_rw_mutex_v3::internal_release_writer()
	_ZN3tbb16spin_rw_mutex_v323internal_release_writerEv @ 284
;	tbb::spin_rw_mutex_v3::internal_try_acquire_reader()
	_ZN3tbb16spin_rw_mutex_v327internal_try_acquire_readerEv @ 285
;	tbb::spin_rw_mutex_v3::internal_try_acquire_writer()
	_ZN3tbb16spin_rw_mutex_v327internal_try_acquire_writerEv @ 286
;	tbb::assertion_failure(char const*, int, char const*, char const*)
	_ZN3tbb17assertion_failureEPKciS1_S1_ @ 287
;	tbb::captured_exception::throw_self()
	_ZN3tbb18captured_exception10throw_selfEv @ 288
;	tbb::captured_exception::set(char const*, char const*)
	_ZN3tbb18captured_exception3setEPKcS2_ @ 289
;	tbb::captured_exception::move()
	_ZN3tbb18captured_exception4moveEv @ 290
;	tbb::captured_exception::clear()
	_ZN3tbb18captured_exception5clearEv @ 291
;	tbb::captured_exception::destroy()
	_ZN3tbb18captured_exception7destroyEv @ 292
;	tbb::captured_exception::allocate(char const*, char const*)
	_ZN3tbb18captured_exception8allocateEPKcS2_ @ 293
;	tbb::captured_exception::~captured_exception()
	_ZN3tbb18captured_exceptionD0Ev @ 294
;	tbb::captured_exception::~captured_exception()
	_ZN3tbb18captured_exceptionD1Ev @ 295
;	tbb::captured_exception::~captured_exception()
	_ZN3tbb18captured_exceptionD2Ev @ 296
;	tbb::task_group_context::set_priority(tbb::priority_t)
	_ZN3tbb18task_group_context12set_priorityENS_10priority_tE @ 297
;	tbb::task_group_context::register_with(tbb::internal::generic_scheduler*)
	_ZN3tbb18task_group_context13register_withEPNS_8internal17generic_schedulerE @ 298
;	tbb::task_group_context::copy_fp_settings(tbb::task_group_context const&)
	_ZN3tbb18task_group_context16copy_fp_settingsERKS0_ @ 299
;	tbb::task_group_context::capture_fp_settings()
	_ZN3tbb18task_group_context19capture_fp_settingsEv @ 300
;	tbb::task_group_context::cancel_group_execution()
	_ZN3tbb18task_group_context22cancel_group_executionEv @ 301
;	tbb::task_group_context::register_pending_exception()
	_ZN3tbb18task_group_context26register_pending_exceptionEv @ 302
;	tbb::task_group_context::init()
	_ZN3tbb18task_group_context4initEv @ 303
;	tbb::task_group_context::reset()
	_ZN3tbb18task_group_context5resetEv @ 304
;	tbb::task_group_context::bind_to(tbb::internal::generic_scheduler*)
	_ZN3tbb18task_group_context7bind_toEPNS_8internal17generic_schedulerE @ 305
;	tbb::task_group_context::~task_group_context()
	_ZN3tbb18task_group_contextD1Ev @ 306
;	tbb::task_group_context::~task_group_context()
	_ZN3tbb18task_group_contextD2Ev @ 307
;	tbb::task_scheduler_init::initialize(int)
	_ZN3tbb19task_scheduler_init10initializeEi @ 308
;	tbb::task_scheduler_init::initialize(int, unsigned long long)
	_ZN3tbb19task_scheduler_init10initializeEiy @ 309
;	tbb::task_scheduler_init::internal_terminate(bool)
	_ZN3tbb19task_scheduler_init18internal_terminateEb @ 310
;	tbb::task_scheduler_init::default_num_threads()
	_ZN3tbb19task_scheduler_init19default_num_threadsEv @ 311
;	tbb::task_scheduler_init::internal_blocking_terminate(bool)
	_ZN3tbb19task_scheduler_init27internal_blocking_terminateEb @ 312
;	tbb::task_scheduler_init::terminate()
	_ZN3tbb19task_scheduler_init9terminateEv @ 313
;	tbb::thread_bound_filter::process_item()
	_ZN3tbb19thread_bound_filter12process_itemEv @ 314
;	tbb::thread_bound_filter::try_process_item()
	_ZN3tbb19thread_bound_filter16try_process_itemEv @ 315
;	tbb::thread_bound_filter::internal_process_item(bool)
	_ZN3tbb19thread_bound_filter21internal_process_itemEb @ 316
;	tbb::set_assertion_handler(void (*)(char const*, int, char const*, char const*))
	_ZN3tbb21set_assertion_handlerEPFvPKciS1_S1_E @ 317
;	tbb::invalid_multiple_scheduling::~invalid_multiple_scheduling()
	_ZN3tbb27invalid_multiple_schedulingD0Ev @ 318
;	tbb::invalid_multiple_scheduling::~invalid_multiple_scheduling()
	_ZN3tbb27invalid_multiple_schedulingD1Ev @ 319
;	tbb::task::change_group(tbb::task_group_context&)
	_ZN3tbb4task12change_groupERNS_18task_group_contextE @ 320
;	tbb::task::note_affinity(unsigned short)
	_ZN3tbb4task13note_affinityEt @ 321
;	tbb::task::internal_set_ref_count(int)
	_ZN3tbb4task22internal_set_ref_countEi @ 322
;	tbb::task::spawn_and_wait_for_all(tbb::task_list&)
	_ZN3tbb4task22spawn_and_wait_for_allERNS_9task_listE @ 323
;	tbb::task::internal_decrement_ref_count()
	_ZN3tbb4task28internal_decrement_ref_countEv @ 324
;	tbb::task::self()
	_ZN3tbb4task4selfEv @ 325
;	tbb::task::destroy(tbb::task&)
	_ZN3tbb4task7destroyERS0_ @ 326
;	tbb::mutex::scoped_lock::internal_acquire(tbb::mutex&)
	_ZN3tbb5mutex11scoped_lock16internal_acquireERS0_ @ 327
;	tbb::mutex::scoped_lock::internal_release()
	_ZN3tbb5mutex11scoped_lock16internal_releaseEv @ 328
;	tbb::mutex::scoped_lock::internal_try_acquire(tbb::mutex&)
	_ZN3tbb5mutex11scoped_lock20internal_try_acquireERS0_ @ 329
;	tbb::mutex::internal_destroy()
	_ZN3tbb5mutex16internal_destroyEv @ 330
;	tbb::mutex::internal_construct()
	_ZN3tbb5mutex18internal_constructEv @ 331
;	tbb::filter::has_more_work()
	_ZN3tbb6filter13has_more_workEv @ 332
;	tbb::filter::set_end_of_input()
	_ZN3tbb6filter16set_end_of_inputEv @ 333
;	tbb::filter::finalize(void*)
	_ZN3tbb6filter8finalizeEPv @ 334
;	tbb::filter::~filter()
	_ZN3tbb6filterD0Ev @ 335
;	tbb::filter::~filter()
	_ZN3tbb6filterD1Ev @ 336
;	tbb::filter::~filter()
	_ZN3tbb6filterD2Ev @ 337
;	tbb::internal::stage_task::execute()
	_ZN3tbb8internal10stage_task7executeEv @ 338
;	tbb::internal::stage_task::~stage_task()
	_ZN3tbb8internal10stage_taskD0Ev @ 339
;	tbb::internal::stage_task::~stage_task()
	_ZN3tbb8internal10stage_taskD1Ev @ 340
;	tbb::internal::micro_queue::abort_push(unsigned long long, tbb::internal::concurrent_queue_base_v3&)
	_ZN3tbb8internal11micro_queue10abort_pushEyRNS0_24concurrent_queue_base_v3E @ 341
;	tbb::internal::micro_queue::make_invalid(unsigned long long)
	_ZN3tbb8internal11micro_queue12make_invalidEy @ 342
;	tbb::internal::micro_queue::pop_finalizer::~pop_finalizer()
	_ZN3tbb8internal11micro_queue13pop_finalizerD1Ev @ 343
;	tbb::internal::micro_queue::pop(void*, unsigned long long, tbb::internal::concurrent_queue_base&)
	_ZN3tbb8internal11micro_queue3popEPvyRNS0_21concurrent_queue_baseE @ 344
;	tbb::internal::micro_queue::pop(void*, unsigned long long, tbb::internal::concurrent_queue_base_v3&)
	_ZN3tbb8internal11micro_queue3popEPvyRNS0_24concurrent_queue_base_v3E @ 345
;	tbb::internal::micro_queue::push(void const*, unsigned long long, tbb::internal::concurrent_queue_base&)
	_ZN3tbb8internal11micro_queue4pushEPKvyRNS0_21concurrent_queue_baseE @ 346
;	tbb::internal::micro_queue::push(void const*, unsigned long long, tbb::internal::concurrent_queue_base_v3&, tbb::internal::concurrent_queue_base_v3::copy_specifics)
	_ZN3tbb8internal11micro_queue4pushEPKvyRNS0_24concurrent_queue_base_v3ENS4_14copy_specificsE @ 347
;	tbb::internal::micro_queue::assign(tbb::internal::micro_queue const&, tbb::internal::concurrent_queue_base_v3&, tbb::internal::concurrent_queue_base_v3::copy_specifics)
	_ZN3tbb8internal11micro_queue6assignERKS1_RNS0_24concurrent_queue_base_v3ENS4_14copy_specificsE @ 348
;	tbb::internal::micro_queue::make_copy(tbb::internal::concurrent_queue_base_v3&, tbb::internal::concurrent_queue_base_v3::page const*, unsigned long long, unsigned long long, unsigned long long&, tbb::internal::concurrent_queue_base_v3::copy_specifics)
	_ZN3tbb8internal11micro_queue9make_copyERNS0_24concurrent_queue_base_v3EPKNS2_4pageEyyRyNS2_14copy_specificsE @ 349
;	tbb::internal::task_stream<3>::initialize(unsigned int)
	_ZN3tbb8internal11task_streamILi3EE10initializeEj @ 350
;	tbb::internal::task_stream<3>::~task_stream()
	_ZN3tbb8internal11task_streamILi3EED1Ev @ 351
;	tbb::internal::NFS_Allocate(unsigned long long, unsigned long long, void*)
	_ZN3tbb8internal12NFS_AllocateEyyPv @ 352
;	tbb::internal::PrintVersion()
	_ZN3tbb8internal12PrintVersionEv @ 353
;	tbb::internal::dynamic_link(char const*, tbb::internal::dynamic_link_descriptor const*, unsigned long long, HINSTANCE__**, int)
	_ZN3tbb8internal12dynamic_linkEPKcPKNS0_23dynamic_link_descriptorEyPP11HINSTANCE__i @ 354
;	tbb::internal::dynamic_load(char const*, tbb::internal::dynamic_link_descriptor const*, unsigned long long)
	_ZN3tbb8internal12dynamic_loadEPKcPKNS0_23dynamic_link_descriptorEy @ 355
;	tbb::internal::input_buffer::grow(unsigned long)
	_ZN3tbb8internal12input_buffer4growEm @ 356
;	tbb::internal::input_buffer::put_token(tbb::internal::task_info&, bool)
	_ZN3tbb8internal12input_buffer9put_tokenERNS0_9task_infoEb @ 357
;	tbb::internal::function_task<tbb::flow::interface10::graph::spawn_functor>::execute()
	_ZN3tbb8internal13function_taskINS_4flow11interface105graph13spawn_functorEE7executeEv @ 358
;	tbb::internal::function_task<tbb::flow::interface10::graph::spawn_functor>::~function_task()
	_ZN3tbb8internal13function_taskINS_4flow11interface105graph13spawn_functorEED0Ev @ 359
;	tbb::internal::function_task<tbb::flow::interface10::graph::spawn_functor>::~function_task()
	_ZN3tbb8internal13function_taskINS_4flow11interface105graph13spawn_functorEED1Ev @ 360
;	tbb::internal::handle_perror(int, char const*)
	_ZN3tbb8internal13handle_perrorEiPKc @ 361
;	tbb::internal::numa_topology::initialize()
	_ZN3tbb8internal13numa_topology10initializeEv @ 362
;	tbb::internal::numa_topology::nodes_count()
	_ZN3tbb8internal13numa_topology11nodes_countEv @ 363
;	tbb::internal::numa_topology::default_concurrency(int)
	_ZN3tbb8internal13numa_topology19default_concurrencyEi @ 364
;	tbb::internal::numa_topology::initialization_impl()
	_ZN3tbb8internal13numa_topology19initialization_implEv @ 365
;	tbb::internal::numa_topology::fill(int*)
	_ZN3tbb8internal13numa_topology4fillEPi @ 366
;	tbb::internal::observer_list::remove_ref(tbb::internal::observer_proxy*)
	_ZN3tbb8internal13observer_list10remove_refEPNS0_14observer_proxyE @ 367
;	tbb::internal::observer_list::do_notify_exit_observers(tbb::internal::observer_proxy*, bool)
	_ZN3tbb8internal13observer_list24do_notify_exit_observersEPNS0_14observer_proxyEb @ 368
;	tbb::internal::observer_list::do_notify_entry_observers(tbb::internal::observer_proxy*&, bool)
	_ZN3tbb8internal13observer_list25do_notify_entry_observersERPNS0_14observer_proxyEb @ 369
;	tbb::internal::observer_list::clear()
	_ZN3tbb8internal13observer_list5clearEv @ 370
;	tbb::internal::observer_list::insert(tbb::internal::observer_proxy*)
	_ZN3tbb8internal13observer_list6insertEPNS0_14observer_proxyE @ 371
;	tbb::internal::observer_list::remove(tbb::internal::observer_proxy*)
	_ZN3tbb8internal13observer_list6removeEPNS0_14observer_proxyE @ 372
;	tbb::internal::tbb_thread_v3::internal_start(unsigned int (*)(void*), void*)
	_ZN3tbb8internal13tbb_thread_v314internal_startEPFjPvES2_ @ 373
;	tbb::internal::tbb_thread_v3::hardware_concurrency()
	_ZN3tbb8internal13tbb_thread_v320hardware_concurrencyEv @ 374
;	tbb::internal::tbb_thread_v3::join()
	_ZN3tbb8internal13tbb_thread_v34joinEv @ 375
;	tbb::internal::tbb_thread_v3::detach()
	_ZN3tbb8internal13tbb_thread_v36detachEv @ 376
;	tbb::internal::__TBB_InitOnce::remove_ref()
	_ZN3tbb8internal14__TBB_InitOnce10remove_refEv @ 377
;	tbb::internal::__TBB_InitOnce::InitializationDone
	_ZN3tbb8internal14__TBB_InitOnce18InitializationDoneE @ 378 DATA
;	tbb::internal::__TBB_InitOnce::InitializationLock
	_ZN3tbb8internal14__TBB_InitOnce18InitializationLockE @ 379 DATA
;	tbb::internal::__TBB_InitOnce::count
	_ZN3tbb8internal14__TBB_InitOnce5countE @ 380 DATA
;	tbb::internal::__TBB_InitOnce::add_ref()
	_ZN3tbb8internal14__TBB_InitOnce7add_refEv @ 381
;	void tbb::internal::atomic_do_once<void (*)()>(void (* const&)(), tbb::atomic<tbb::internal::do_once_state>&)
	_ZN3tbb8internal14atomic_do_onceIPFvvEEEvRKT_RNS_6atomicINS0_13do_once_stateEEE @ 382
;	tbb::internal::dynamic_unlink(HINSTANCE__*)
	_ZN3tbb8internal14dynamic_unlinkEP11HINSTANCE__ @ 383
;	tbb::internal::observer_proxy::get_v6_observer()
	_ZN3tbb8internal14observer_proxy15get_v6_observerEv @ 384
;	tbb::internal::observer_proxy::is_global()
	_ZN3tbb8internal14observer_proxy9is_globalEv @ 385
;	tbb::internal::observer_proxy::observer_proxy(tbb::internal::task_scheduler_observer_v3&)
	_ZN3tbb8internal14observer_proxyC1ERNS0_26task_scheduler_observer_v3E @ 386
;	tbb::internal::observer_proxy::observer_proxy(tbb::internal::task_scheduler_observer_v3&)
	_ZN3tbb8internal14observer_proxyC2ERNS0_26task_scheduler_observer_v3E @ 387
;	tbb::internal::NFS_GetLineSize()
	_ZN3tbb8internal15NFS_GetLineSizeEv @ 388
;	tbb::internal::free_closure_v3(void*)
	_ZN3tbb8internal15free_closure_v3EPv @ 389
;	tbb::internal::itt_task_end_v7(tbb::internal::itt_domain_enum)
	_ZN3tbb8internal15itt_task_end_v7ENS0_15itt_domain_enumE @ 390
;	tbb::internal::runtime_warning(char const*, ...)
	_ZN3tbb8internal15runtime_warningEPKcz @ 391
;	void tbb::internal::spin_wait_while<tbb::internal::concurrent_vector_base_v3::helper::segment_not_used_predicate>(tbb::internal::concurrent_vector_base_v3::helper::segment_not_used_predicate)
	_ZN3tbb8internal15spin_wait_whileINS0_25concurrent_vector_base_v36helper26segment_not_used_predicateEEEvT_ @ 392
;	tbb::internal::thread_sleep_v3(tbb::tick_count::interval_t const&)
	_ZN3tbb8internal15thread_sleep_v3ERKNS_10tick_count10interval_tE @ 393
;	tbb::internal::thread_yield_v3()
	_ZN3tbb8internal15thread_yield_v3Ev @ 394
;	tbb::internal::custom_scheduler<tbb::internal::IntelSchedulerTraits>::wait_for_all(tbb::task&, tbb::task*)
	_ZN3tbb8internal16custom_schedulerINS0_20IntelSchedulerTraitsEE12wait_for_allERNS_4taskEPS4_ @ 395
;	tbb::internal::custom_scheduler<tbb::internal::IntelSchedulerTraits>::allocate_scheduler(tbb::internal::market&, bool)
	_ZN3tbb8internal16custom_schedulerINS0_20IntelSchedulerTraitsEE18allocate_schedulerERNS0_6marketEb @ 396
;	tbb::internal::custom_scheduler<tbb::internal::IntelSchedulerTraits>::local_wait_for_all(tbb::task&, tbb::task*)
	_ZN3tbb8internal16custom_schedulerINS0_20IntelSchedulerTraitsEE18local_wait_for_allERNS_4taskEPS4_ @ 397
;	tbb::internal::custom_scheduler<tbb::internal::IntelSchedulerTraits>::process_bypass_loop(tbb::internal::context_guard_helper<false>&, tbb::task*, long long)
	_ZN3tbb8internal16custom_schedulerINS0_20IntelSchedulerTraitsEE19process_bypass_loopERNS0_20context_guard_helperILb0EEEPNS_4taskEx @ 398
;	tbb::internal::custom_scheduler<tbb::internal::IntelSchedulerTraits>::receive_or_steal_task(long long&, long long)
	_ZN3tbb8internal16custom_schedulerINS0_20IntelSchedulerTraitsEE21receive_or_steal_taskERxx @ 399
;	tbb::internal::custom_scheduler<tbb::internal::IntelSchedulerTraits>::~custom_scheduler()
	_ZN3tbb8internal16custom_schedulerINS0_20IntelSchedulerTraitsEED0Ev @ 400
;	tbb::internal::custom_scheduler<tbb::internal::IntelSchedulerTraits>::~custom_scheduler()
	_ZN3tbb8internal16custom_schedulerINS0_20IntelSchedulerTraitsEED1Ev @ 401
;	tbb::internal::custom_scheduler<tbb::internal::DefaultSchedulerTraits>::wait_for_all(tbb::task&, tbb::task*)
	_ZN3tbb8internal16custom_schedulerINS0_22DefaultSchedulerTraitsEE12wait_for_allERNS_4taskEPS4_ @ 402
;	tbb::internal::custom_scheduler<tbb::internal::DefaultSchedulerTraits>::allocate_scheduler(tbb::internal::market&, bool)
	_ZN3tbb8internal16custom_schedulerINS0_22DefaultSchedulerTraitsEE18allocate_schedulerERNS0_6marketEb @ 403
;	tbb::internal::custom_scheduler<tbb::internal::DefaultSchedulerTraits>::local_wait_for_all(tbb::task&, tbb::task*)
	_ZN3tbb8internal16custom_schedulerINS0_22DefaultSchedulerTraitsEE18local_wait_for_allERNS_4taskEPS4_ @ 404
;	tbb::internal::custom_scheduler<tbb::internal::DefaultSchedulerTraits>::process_bypass_loop(tbb::internal::context_guard_helper<true>&, tbb::task*, long long)
	_ZN3tbb8internal16custom_schedulerINS0_22DefaultSchedulerTraitsEE19process_bypass_loopERNS0_20context_guard_helperILb1EEEPNS_4taskEx @ 405
;	tbb::internal::custom_scheduler<tbb::internal::DefaultSchedulerTraits>::receive_or_steal_task(long long&, long long)
	_ZN3tbb8internal16custom_schedulerINS0_22DefaultSchedulerTraitsEE21receive_or_steal_taskERxx @ 406
;	tbb::internal::custom_scheduler<tbb::internal::DefaultSchedulerTraits>::~custom_scheduler()
	_ZN3tbb8internal16custom_schedulerINS0_22DefaultSchedulerTraitsEED0Ev @ 407
;	tbb::internal::custom_scheduler<tbb::internal::DefaultSchedulerTraits>::~custom_scheduler()
	_ZN3tbb8internal16custom_schedulerINS0_22DefaultSchedulerTraitsEED1Ev @ 408
;	tbb::internal::handle_win_error(int)
	_ZN3tbb8internal16handle_win_errorEi @ 409
;	tbb::internal::thread_get_id_v3()
	_ZN3tbb8internal16thread_get_id_v3Ev @ 410
;	tbb::internal::generic_scheduler::steal_task(long long)
	_ZN3tbb8internal17generic_scheduler10steal_taskEx @ 411
;	tbb::internal::generic_scheduler::local_spawn(tbb::task*, tbb::task*&)
	_ZN3tbb8internal17generic_scheduler11local_spawnEPNS_4taskERS3_ @ 412
;	tbb::internal::generic_scheduler::attach_arena(tbb::internal::arena*, unsigned long long, bool)
	_ZN3tbb8internal17generic_scheduler12attach_arenaEPNS0_5arenaEyb @ 413
;	tbb::internal::generic_scheduler::reload_tasks(tbb::task*&, tbb::task**&, long long, long long)
	_ZN3tbb8internal17generic_scheduler12reload_tasksERPNS_4taskERPS3_xx @ 414
;	tbb::internal::generic_scheduler::reload_tasks(long long)
	_ZN3tbb8internal17generic_scheduler12reload_tasksEx @ 415
;	tbb::internal::generic_scheduler::allocate_task(unsigned long long, tbb::task*, tbb::task_group_context*)
	_ZN3tbb8internal17generic_scheduler13allocate_taskEyPNS_4taskEPNS_18task_group_contextE @ 416
;	tbb::internal::generic_scheduler::create_master(tbb::internal::arena*)
	_ZN3tbb8internal17generic_scheduler13create_masterEPNS0_5arenaE @ 417
;	tbb::internal::generic_scheduler::create_worker(tbb::internal::market&, unsigned long long, bool)
	_ZN3tbb8internal17generic_scheduler13create_workerERNS0_6marketEyb @ 418
;	tbb::internal::generic_scheduler::cleanup_master(bool)
	_ZN3tbb8internal17generic_scheduler14cleanup_masterEb @ 419
;	tbb::internal::generic_scheduler::cleanup_worker(void*, bool)
	_ZN3tbb8internal17generic_scheduler14cleanup_workerEPvb @ 420
;	tbb::internal::generic_scheduler::init_stack_info()
	_ZN3tbb8internal17generic_scheduler15init_stack_infoEv @ 421
;	tbb::internal::generic_scheduler::steal_task_from(tbb::internal::arena_slot&, long long)
	_ZN3tbb8internal17generic_scheduler15steal_task_fromERNS0_10arena_slotEx @ 422
;	tbb::internal::generic_scheduler::get_mailbox_task(long long)
	_ZN3tbb8internal17generic_scheduler16get_mailbox_taskEx @ 423
;	tbb::internal::generic_scheduler::wait_until_empty()
	_ZN3tbb8internal17generic_scheduler16wait_until_emptyEv @ 424
;	tbb::internal::generic_scheduler::winnow_task_pool(long long)
	_ZN3tbb8internal17generic_scheduler16winnow_task_poolEx @ 425
;	tbb::internal::generic_scheduler::cleanup_scheduler()
	_ZN3tbb8internal17generic_scheduler17cleanup_schedulerEv @ 426
;	tbb::internal::generic_scheduler::nested_arena_exit()
	_ZN3tbb8internal17generic_scheduler17nested_arena_exitEv @ 427
;	tbb::internal::generic_scheduler::prepare_task_pool(unsigned long long)
	_ZN3tbb8internal17generic_scheduler17prepare_task_poolEy @ 428
;	tbb::internal::generic_scheduler::nested_arena_entry(tbb::internal::arena*, unsigned long long)
	_ZN3tbb8internal17generic_scheduler18nested_arena_entryEPNS0_5arenaEy @ 429
;	tbb::internal::generic_scheduler::spawn_root_and_wait(tbb::task&, tbb::task*&)
	_ZN3tbb8internal17generic_scheduler19spawn_root_and_waitERNS_4taskERPS2_ @ 430
;	tbb::internal::generic_scheduler::free_nonlocal_small_task(tbb::task&)
	_ZN3tbb8internal17generic_scheduler24free_nonlocal_small_taskERNS_4taskE @ 431
;	tbb::internal::generic_scheduler::local_spawn_root_and_wait(tbb::task*, tbb::task*&)
	_ZN3tbb8internal17generic_scheduler25local_spawn_root_and_waitEPNS_4taskERS3_ @ 432
;	tbb::internal::generic_scheduler::cleanup_local_context_list()
	_ZN3tbb8internal17generic_scheduler26cleanup_local_context_listEv @ 433
;	void tbb::internal::generic_scheduler::propagate_task_group_state<long long>(long long tbb::task_group_context::*, tbb::task_group_context&, long long)
	_ZN3tbb8internal17generic_scheduler26propagate_task_group_stateIxEEvMNS_18task_group_contextET_RS3_S4_ @ 434
;	void tbb::internal::generic_scheduler::propagate_task_group_state<unsigned long long>(unsigned long long tbb::task_group_context::*, tbb::task_group_context&, unsigned long long)
	_ZN3tbb8internal17generic_scheduler26propagate_task_group_stateIyEEvMNS_18task_group_contextET_RS3_S4_ @ 435
;	tbb::internal::generic_scheduler::get_task_and_activate_task_pool(unsigned long long, unsigned long long, long long)
	_ZN3tbb8internal17generic_scheduler31get_task_and_activate_task_poolEyyx @ 436
;	tbb::internal::generic_scheduler::spawn(tbb::task&, tbb::task*&)
	_ZN3tbb8internal17generic_scheduler5spawnERNS_4taskERPS2_ @ 437
;	tbb::internal::generic_scheduler::destroy()
	_ZN3tbb8internal17generic_scheduler7destroyEv @ 438
;	tbb::internal::generic_scheduler::enqueue(tbb::task&, void*)
	_ZN3tbb8internal17generic_scheduler7enqueueERNS_4taskEPv @ 439
;	tbb::internal::generic_scheduler::get_task(long long)
	_ZN3tbb8internal17generic_scheduler8get_taskEx @ 440
;	tbb::internal::generic_scheduler::generic_scheduler(tbb::internal::market&, bool)
	_ZN3tbb8internal17generic_schedulerC1ERNS0_6marketEb @ 441
;	tbb::internal::generic_scheduler::generic_scheduler(tbb::internal::market&, bool)
	_ZN3tbb8internal17generic_schedulerC2ERNS0_6marketEb @ 442
;	tbb::internal::is_malloc_used_v3()
	_ZN3tbb8internal17is_malloc_used_v3Ev @ 443
;	tbb::internal::itt_region_end_v9(tbb::internal::itt_domain_enum, void*, unsigned long long)
	_ZN3tbb8internal17itt_region_end_v9ENS0_15itt_domain_enumEPvy @ 444
;	tbb::internal::itt_task_begin_v7(tbb::internal::itt_domain_enum, void*, unsigned long long, void*, unsigned long long, tbb::internal::string_index)
	_ZN3tbb8internal17itt_task_begin_v7ENS0_15itt_domain_enumEPvyS2_yNS0_12string_indexE @ 445
;	tbb::internal::tbb_exception_ptr::throw_self()
	_ZN3tbb8internal17tbb_exception_ptr10throw_selfEv @ 446
;	tbb::internal::tbb_exception_ptr::destroy()
	_ZN3tbb8internal17tbb_exception_ptr7destroyEv @ 447
;	tbb::internal::tbb_exception_ptr::allocate(tbb::tbb_exception const&)
	_ZN3tbb8internal17tbb_exception_ptr8allocateERKNS_13tbb_exceptionE @ 448
;	tbb::internal::tbb_exception_ptr::allocate(tbb::captured_exception&)
	_ZN3tbb8internal17tbb_exception_ptr8allocateERNS_18captured_exceptionE @ 449
;	tbb::internal::tbb_exception_ptr::allocate()
	_ZN3tbb8internal17tbb_exception_ptr8allocateEv @ 450
;	tbb::internal::ProcessorGroupInfo::HoleIndex
	_ZN3tbb8internal18ProcessorGroupInfo9HoleIndexE @ 451 DATA
;	tbb::internal::ProcessorGroupInfo::NumGroups
	_ZN3tbb8internal18ProcessorGroupInfo9NumGroupsE @ 452 DATA
;	tbb::internal::call_itt_notify_v5(int, void*)
	_ZN3tbb8internal18call_itt_notify_v5EiPv @ 453
;	tbb::internal::concurrent_monitor::cancel_wait(tbb::internal::concurrent_monitor::thread_context&)
	_ZN3tbb8internal18concurrent_monitor11cancel_waitERNS1_14thread_contextE @ 454
;	tbb::internal::concurrent_monitor::prepare_wait(tbb::internal::concurrent_monitor::thread_context&, unsigned long long)
	_ZN3tbb8internal18concurrent_monitor12prepare_waitERNS1_14thread_contextEy @ 455
;	void tbb::internal::concurrent_monitor::notify_relaxed<tbb::internal::predicate_leq>(tbb::internal::predicate_leq const&)
	_ZN3tbb8internal18concurrent_monitor14notify_relaxedINS0_13predicate_leqEEEvRKT_ @ 456
;	void tbb::internal::concurrent_monitor::notify_relaxed<tbb::interface7::internal::delegated_task>(tbb::interface7::internal::delegated_task const&)
	_ZN3tbb8internal18concurrent_monitor14notify_relaxedINS_10interface78internal14delegated_taskEEEvRKT_ @ 457
;	tbb::internal::concurrent_monitor::thread_context::init()
	_ZN3tbb8internal18concurrent_monitor14thread_context4initEv @ 458
;	tbb::internal::concurrent_monitor::abort_all_relaxed()
	_ZN3tbb8internal18concurrent_monitor17abort_all_relaxedEv @ 459
;	tbb::internal::concurrent_monitor::notify_all_relaxed()
	_ZN3tbb8internal18concurrent_monitor18notify_all_relaxedEv @ 460
;	tbb::internal::concurrent_monitor::notify_one_relaxed()
	_ZN3tbb8internal18concurrent_monitor18notify_one_relaxedEv @ 461
;	tbb::internal::concurrent_monitor::~concurrent_monitor()
	_ZN3tbb8internal18concurrent_monitorD1Ev @ 462
;	tbb::internal::concurrent_monitor::~concurrent_monitor()
	_ZN3tbb8internal18concurrent_monitorD2Ev @ 463
;	tbb::internal::dynamic_unlink_all()
	_ZN3tbb8internal18dynamic_unlink_allEv @ 464
;	tbb::internal::fix_broken_rethrow()
	_ZN3tbb8internal18fix_broken_rethrowEv @ 465
;	tbb::internal::init_dl_data_state
	_ZN3tbb8internal18init_dl_data_stateE @ 466 DATA
;	tbb::internal::pipeline_root_task::execute()
	_ZN3tbb8internal18pipeline_root_task7executeEv @ 467
;	tbb::internal::pipeline_root_task::~pipeline_root_task()
	_ZN3tbb8internal18pipeline_root_taskD0Ev @ 468
;	tbb::internal::pipeline_root_task::~pipeline_root_task()
	_ZN3tbb8internal18pipeline_root_taskD1Ev @ 469
;	void tbb::internal::spin_wait_until_eq<tbb::atomic<unsigned long long>, unsigned long long>(tbb::atomic<unsigned long long> const volatile&, unsigned long long)
	_ZN3tbb8internal18spin_wait_until_eqINS_6atomicIyEEyEEvRVKT_T0_ @ 470
;	void tbb::internal::spin_wait_while_eq<tbb::atomic<tbb::internal::do_once_state>, tbb::internal::do_once_state>(tbb::atomic<tbb::internal::do_once_state> const volatile&, tbb::internal::do_once_state)
	_ZN3tbb8internal18spin_wait_while_eqINS_6atomicINS0_13do_once_stateEEES3_EEvRVKT_T0_ @ 471
;	tbb::internal::theProcessorGroups
	_ZN3tbb8internal18theProcessorGroupsE @ 472 DATA
;	tbb::internal::throw_exception_v4(tbb::internal::exception_id)
	_ZN3tbb8internal18throw_exception_v4ENS0_12exception_idE @ 473
;	tbb::internal::PrintRMLVersionInfo(void*, char const*)
	_ZN3tbb8internal19PrintRMLVersionInfoEPvPKc @ 474
;	tbb::internal::allocate_closure_v3(unsigned long long)
	_ZN3tbb8internal19allocate_closure_v3Ey @ 475
;	tbb::internal::allocate_root_proxy::free(tbb::task&)
	_ZN3tbb8internal19allocate_root_proxy4freeERNS_4taskE @ 476
;	tbb::internal::allocate_root_proxy::allocate(unsigned long long)
	_ZN3tbb8internal19allocate_root_proxy8allocateEy @ 477
;	tbb::internal::bind_thread_to_node(tbb::internal::binding_handler*, int, int)
	_ZN3tbb8internal19bind_thread_to_nodeEPNS0_15binding_handlerEii @ 478
;	tbb::internal::cpu_has_speculation()
	_ZN3tbb8internal19cpu_has_speculationEv @ 479
;	tbb::internal::critical_section_v4::internal_construct()
	_ZN3tbb8internal19critical_section_v418internal_constructEv @ 480
;	tbb::internal::fast_reverse_vector<tbb::task*, 16ull>::~fast_reverse_vector()
	_ZN3tbb8internal19fast_reverse_vectorIPNS_4taskELy16EED1Ev @ 481
;	tbb::internal::init_condvar_module()
	_ZN3tbb8internal19init_condvar_moduleEv @ 482
;	tbb::internal::itt_load_pointer_v3(void const*)
	_ZN3tbb8internal19itt_load_pointer_v3EPKv @ 483
;	tbb::internal::itt_region_begin_v9(tbb::internal::itt_domain_enum, void*, unsigned long long, void*, unsigned long long, tbb::internal::string_index)
	_ZN3tbb8internal19itt_region_begin_v9ENS0_15itt_domain_enumEPvyS2_yNS0_12string_indexE @ 484
;	tbb::internal::itt_relation_add_v7(tbb::internal::itt_domain_enum, void*, unsigned long long, tbb::internal::itt_relation, void*, unsigned long long)
	_ZN3tbb8internal19itt_relation_add_v7ENS0_15itt_domain_enumEPvyNS0_12itt_relationES2_y @ 485
;	tbb::internal::AllocateSchedulerPtr
	_ZN3tbb8internal20AllocateSchedulerPtrE @ 486 DATA
;	tbb::internal::destroy_condvar_noop(_RTL_CONDITION_VARIABLE*)
	_ZN3tbb8internal20destroy_condvar_noopEP23_RTL_CONDITION_VARIABLE @ 487
;	tbb::internal::itt_set_sync_name_v3(void*, char const*)
	_ZN3tbb8internal20itt_set_sync_name_v3EPvPKc @ 488
;	tbb::internal::nested_arena_context::~nested_arena_context()
	_ZN3tbb8internal20nested_arena_contextD1Ev @ 489
;	tbb::internal::DefaultSystemPageSize()
	_ZN3tbb8internal21DefaultSystemPageSizeEv @ 490
;	tbb::internal::PrintExtraVersionInfo(char const*, char const*, ...)
	_ZN3tbb8internal21PrintExtraVersionInfoEPKcS2_z @ 491
;	tbb::internal::concurrent_queue_base::internal_pop(void*)
	_ZN3tbb8internal21concurrent_queue_base12internal_popEPv @ 492
;	tbb::internal::concurrent_queue_base::internal_push(void const*)
	_ZN3tbb8internal21concurrent_queue_base13internal_pushEPKv @ 493
;	tbb::internal::concurrent_queue_base::internal_set_capacity(long long, unsigned long long)
	_ZN3tbb8internal21concurrent_queue_base21internal_set_capacityExy @ 494
;	tbb::internal::concurrent_queue_base::internal_pop_if_present(void*)
	_ZN3tbb8internal21concurrent_queue_base23internal_pop_if_presentEPv @ 495
;	tbb::internal::concurrent_queue_base::internal_push_if_not_full(void const*)
	_ZN3tbb8internal21concurrent_queue_base25internal_push_if_not_fullEPKv @ 496
;	tbb::internal::concurrent_queue_base::concurrent_queue_base(unsigned long long)
	_ZN3tbb8internal21concurrent_queue_baseC1Ey @ 497
;	tbb::internal::concurrent_queue_base::concurrent_queue_base(unsigned long long)
	_ZN3tbb8internal21concurrent_queue_baseC2Ey @ 498
;	tbb::internal::concurrent_queue_base::~concurrent_queue_base()
	_ZN3tbb8internal21concurrent_queue_baseD0Ev @ 499
;	tbb::internal::concurrent_queue_base::~concurrent_queue_base()
	_ZN3tbb8internal21concurrent_queue_baseD1Ev @ 500
;	tbb::internal::concurrent_queue_base::~concurrent_queue_base()
	_ZN3tbb8internal21concurrent_queue_baseD2Ev @ 501
;	tbb::internal::numa_binding_observer::on_scheduler_exit(bool)
	_ZN3tbb8internal21numa_binding_observer17on_scheduler_exitEb @ 502
;	tbb::internal::numa_binding_observer::on_scheduler_entry(bool)
	_ZN3tbb8internal21numa_binding_observer18on_scheduler_entryEb @ 503
;	tbb::internal::numa_binding_observer::~numa_binding_observer()
	_ZN3tbb8internal21numa_binding_observerD0Ev @ 504
;	tbb::internal::numa_binding_observer::~numa_binding_observer()
	_ZN3tbb8internal21numa_binding_observerD1Ev @ 505
;	tbb::internal::restore_affinity_mask(tbb::internal::binding_handler*, int)
	_ZN3tbb8internal21restore_affinity_maskEPNS0_15binding_handlerEi @ 506
;	tbb::internal::AvailableHwConcurrency()
	_ZN3tbb8internal22AvailableHwConcurrencyEv @ 507
;	tbb::internal::concurrent_vector_base::internal_copy(tbb::internal::concurrent_vector_base const&, unsigned long long, void (*)(void*, void const*, unsigned long long))
	_ZN3tbb8internal22concurrent_vector_base13internal_copyERKS1_yPFvPvPKvyE @ 508
;	tbb::internal::concurrent_vector_base::internal_grow(unsigned long long, unsigned long long, unsigned long long, void (*)(void*, unsigned long long))
	_ZN3tbb8internal22concurrent_vector_base13internal_growEyyyPFvPvyE @ 509
;	tbb::internal::concurrent_vector_base::internal_clear(void (*)(void*, unsigned long long), bool)
	_ZN3tbb8internal22concurrent_vector_base14internal_clearEPFvPvyEb @ 510
;	tbb::internal::concurrent_vector_base::internal_assign(tbb::internal::concurrent_vector_base const&, unsigned long long, void (*)(void*, unsigned long long), void (*)(void*, void const*, unsigned long long), void (*)(void*, void const*, unsigned long long))
	_ZN3tbb8internal22concurrent_vector_base15internal_assignERKS1_yPFvPvyEPFvS4_PKvyESA_ @ 511
;	tbb::internal::concurrent_vector_base::internal_grow_by(unsigned long long, unsigned long long, void (*)(void*, unsigned long long))
	_ZN3tbb8internal22concurrent_vector_base16internal_grow_byEyyPFvPvyE @ 512
;	tbb::internal::concurrent_vector_base::internal_reserve(unsigned long long, unsigned long long, unsigned long long)
	_ZN3tbb8internal22concurrent_vector_base16internal_reserveEyyy @ 513
;	tbb::internal::concurrent_vector_base::internal_push_back(unsigned long long, unsigned long long&)
	_ZN3tbb8internal22concurrent_vector_base18internal_push_backEyRy @ 514
;	tbb::internal::concurrent_vector_base::internal_grow_to_at_least(unsigned long long, unsigned long long, void (*)(void*, unsigned long long))
	_ZN3tbb8internal22concurrent_vector_base25internal_grow_to_at_leastEyyPFvPvyE @ 515
;	tbb::internal::concurrent_vector_base::helper::extend_segment(tbb::internal::concurrent_vector_base&)
	_ZN3tbb8internal22concurrent_vector_base6helper14extend_segmentERS1_ @ 516
;	tbb::internal::init_dynamic_link_data()
	_ZN3tbb8internal22init_dynamic_link_dataEv @ 517
;	tbb::internal::itt_make_task_group_v7(tbb::internal::itt_domain_enum, void*, unsigned long long, void*, unsigned long long, tbb::internal::string_index)
	_ZN3tbb8internal22itt_make_task_group_v7ENS0_15itt_domain_enumEPvyS2_yNS0_12string_indexE @ 518
;	tbb::internal::FindProcessorGroupIndex(int)
	_ZN3tbb8internal23FindProcessorGroupIndexEi @ 519
;	tbb::internal::NumberOfProcessorGroups()
	_ZN3tbb8internal23NumberOfProcessorGroupsEv @ 520
;	tbb::internal::allocate_via_handler_v3(unsigned long long)
	_ZN3tbb8internal23allocate_via_handler_v3Ey @ 521
;	tbb::internal::destroy_binding_handler(tbb::internal::binding_handler*)
	_ZN3tbb8internal23destroy_binding_handlerEPNS0_15binding_handlerE @ 522
;	tbb::internal::init_atomic_incrementer(tbb::atomic<unsigned long long>&)
	_ZN3tbb8internal23init_atomic_incrementerERNS_6atomicIyEE @ 523
;	tbb::internal::initialize_cilk_interop()
	_ZN3tbb8internal23initialize_cilk_interopEv @ 524
;	tbb::internal::itt_metadata_str_add_v7(tbb::internal::itt_domain_enum, void*, unsigned long long, tbb::internal::string_index, char const*)
	_ZN3tbb8internal23itt_metadata_str_add_v7ENS0_15itt_domain_enumEPvyNS0_12string_indexEPKc @ 525
;	tbb::internal::DoOneTimeInitializations()
	_ZN3tbb8internal24DoOneTimeInitializationsEv @ 526
;	tbb::internal::concurrent_queue_base_v3::internal_pop(void*)
	_ZN3tbb8internal24concurrent_queue_base_v312internal_popEPv @ 527
;	tbb::internal::concurrent_queue_base_v3::internal_push(void const*)
	_ZN3tbb8internal24concurrent_queue_base_v313internal_pushEPKv @ 528
;	tbb::internal::concurrent_queue_base_v3::internal_abort()
	_ZN3tbb8internal24concurrent_queue_base_v314internal_abortEv @ 529
;	tbb::internal::concurrent_queue_base_v3::internal_assign(tbb::internal::concurrent_queue_base_v3 const&, tbb::internal::concurrent_queue_base_v3::copy_specifics)
	_ZN3tbb8internal24concurrent_queue_base_v315internal_assignERKS1_NS1_14copy_specificsE @ 530
;	tbb::internal::concurrent_queue_base_v3::internal_insert_item(void const*, tbb::internal::concurrent_queue_base_v3::copy_specifics)
	_ZN3tbb8internal24concurrent_queue_base_v320internal_insert_itemEPKvNS1_14copy_specificsE @ 531
;	tbb::internal::concurrent_queue_base_v3::internal_finish_clear()
	_ZN3tbb8internal24concurrent_queue_base_v321internal_finish_clearEv @ 532
;	tbb::internal::concurrent_queue_base_v3::internal_set_capacity(long long, unsigned long long)
	_ZN3tbb8internal24concurrent_queue_base_v321internal_set_capacityExy @ 533
;	tbb::internal::concurrent_queue_base_v3::internal_pop_if_present(void*)
	_ZN3tbb8internal24concurrent_queue_base_v323internal_pop_if_presentEPv @ 534
;	tbb::internal::concurrent_queue_base_v3::internal_push_if_not_full(void const*)
	_ZN3tbb8internal24concurrent_queue_base_v325internal_push_if_not_fullEPKv @ 535
;	tbb::internal::concurrent_queue_base_v3::internal_insert_if_not_full(void const*, tbb::internal::concurrent_queue_base_v3::copy_specifics)
	_ZN3tbb8internal24concurrent_queue_base_v327internal_insert_if_not_fullEPKvNS1_14copy_specificsE @ 536
;	tbb::internal::concurrent_queue_base_v3::assign(tbb::internal::concurrent_queue_base_v3 const&)
	_ZN3tbb8internal24concurrent_queue_base_v36assignERKS1_ @ 537
;	tbb::internal::concurrent_queue_base_v3::concurrent_queue_base_v3(unsigned long long)
	_ZN3tbb8internal24concurrent_queue_base_v3C1Ey @ 538
;	tbb::internal::concurrent_queue_base_v3::concurrent_queue_base_v3(unsigned long long)
	_ZN3tbb8internal24concurrent_queue_base_v3C2Ey @ 539
;	tbb::internal::concurrent_queue_base_v3::~concurrent_queue_base_v3()
	_ZN3tbb8internal24concurrent_queue_base_v3D0Ev @ 540
;	tbb::internal::concurrent_queue_base_v3::~concurrent_queue_base_v3()
	_ZN3tbb8internal24concurrent_queue_base_v3D1Ev @ 541
;	tbb::internal::concurrent_queue_base_v3::~concurrent_queue_base_v3()
	_ZN3tbb8internal24concurrent_queue_base_v3D2Ev @ 542
;	tbb::internal::concurrent_queue_base_v8::move_content(tbb::internal::concurrent_queue_base_v8&)
	_ZN3tbb8internal24concurrent_queue_base_v812move_contentERS1_ @ 543
;	tbb::internal::concurrent_queue_base_v8::internal_push_move(void const*)
	_ZN3tbb8internal24concurrent_queue_base_v818internal_push_moveEPKv @ 544
;	tbb::internal::concurrent_queue_base_v8::internal_push_move_if_not_full(void const*)
	_ZN3tbb8internal24concurrent_queue_base_v830internal_push_move_if_not_fullEPKv @ 545
;	tbb::internal::destroy_binding_observer(tbb::internal::numa_binding_observer*)
	_ZN3tbb8internal24destroy_binding_observerEPNS0_21numa_binding_observerE @ 546
;	tbb::internal::init_condvar_using_event(tbb::interface5::internal::condition_variable_using_event*)
	_ZN3tbb8internal24init_condvar_using_eventEPNS_10interface58internal30condition_variable_using_eventE @ 547
;	tbb::internal::itt_metadata_ptr_add_v11(tbb::internal::itt_domain_enum, void*, unsigned long long, tbb::internal::string_index, void*)
	_ZN3tbb8internal24itt_metadata_ptr_add_v11ENS0_15itt_domain_enumEPvyNS0_12string_indexES2_ @ 548
;	tbb::internal::the_global_observer_list
	_ZN3tbb8internal24the_global_observer_listE @ 549 DATA
;	tbb::internal::concurrent_vector_base_v3::internal_copy(tbb::internal::concurrent_vector_base_v3 const&, unsigned long long, void (*)(void*, void const*, unsigned long long))
	_ZN3tbb8internal25concurrent_vector_base_v313internal_copyERKS1_yPFvPvPKvyE @ 550
;	tbb::internal::concurrent_vector_base_v3::internal_grow(unsigned long long, unsigned long long, unsigned long long, void (*)(void*, void const*, unsigned long long), void const*)
	_ZN3tbb8internal25concurrent_vector_base_v313internal_growEyyyPFvPvPKvyES4_ @ 551
;	tbb::internal::concurrent_vector_base_v3::internal_swap(tbb::internal::concurrent_vector_base_v3&)
	_ZN3tbb8internal25concurrent_vector_base_v313internal_swapERS1_ @ 552
;	tbb::internal::concurrent_vector_base_v3::internal_clear(void (*)(void*, unsigned long long))
	_ZN3tbb8internal25concurrent_vector_base_v314internal_clearEPFvPvyE @ 553
;	tbb::internal::concurrent_vector_base_v3::internal_assign(tbb::internal::concurrent_vector_base_v3 const&, unsigned long long, void (*)(void*, unsigned long long), void (*)(void*, void const*, unsigned long long), void (*)(void*, void const*, unsigned long long))
	_ZN3tbb8internal25concurrent_vector_base_v315internal_assignERKS1_yPFvPvyEPFvS4_PKvyESA_ @ 554
;	tbb::internal::concurrent_vector_base_v3::internal_resize(unsigned long long, unsigned long long, unsigned long long, void const*, void (*)(void*, unsigned long long), void (*)(void*, void const*, unsigned long long))
	_ZN3tbb8internal25concurrent_vector_base_v315internal_resizeEyyyPKvPFvPvyEPFvS4_S3_yE @ 555
;	tbb::internal::concurrent_vector_base_v3::internal_compact(unsigned long long, void*, void (*)(void*, unsigned long long), void (*)(void*, void const*, unsigned long long))
	_ZN3tbb8internal25concurrent_vector_base_v316internal_compactEyPvPFvS2_yEPFvS2_PKvyE @ 556
;	tbb::internal::concurrent_vector_base_v3::internal_grow_by(unsigned long long, unsigned long long, void (*)(void*, void const*, unsigned long long), void const*)
	_ZN3tbb8internal25concurrent_vector_base_v316internal_grow_byEyyPFvPvPKvyES4_ @ 557
;	tbb::internal::concurrent_vector_base_v3::internal_reserve(unsigned long long, unsigned long long, unsigned long long)
	_ZN3tbb8internal25concurrent_vector_base_v316internal_reserveEyyy @ 558
;	tbb::internal::concurrent_vector_base_v3::internal_push_back(unsigned long long, unsigned long long&)
	_ZN3tbb8internal25concurrent_vector_base_v318internal_push_backEyRy @ 559
;	tbb::internal::concurrent_vector_base_v3::internal_grow_to_at_least(unsigned long long, unsigned long long, void (*)(void*, void const*, unsigned long long), void const*)
	_ZN3tbb8internal25concurrent_vector_base_v325internal_grow_to_at_leastEyyPFvPvPKvyES4_ @ 560
;	tbb::internal::concurrent_vector_base_v3::internal_grow_to_at_least_with_result(unsigned long long, unsigned long long, void (*)(void*, void const*, unsigned long long), void const*)
	_ZN3tbb8internal25concurrent_vector_base_v337internal_grow_to_at_least_with_resultEyyPFvPvPKvyES4_ @ 561
;	tbb::internal::concurrent_vector_base_v3::helper::enable_segment(tbb::internal::concurrent_vector_base_v3&, unsigned long long, unsigned long long, bool)
	_ZN3tbb8internal25concurrent_vector_base_v36helper14enable_segmentERS1_yyb @ 562
;	tbb::internal::concurrent_vector_base_v3::helper::extend_segment_table(tbb::internal::concurrent_vector_base_v3&, unsigned long long)
	_ZN3tbb8internal25concurrent_vector_base_v36helper20extend_segment_tableERS1_y @ 563
;	unsigned long long tbb::internal::concurrent_vector_base_v3::helper::apply<tbb::internal::concurrent_vector_base_v3::helper::destroy_body>(tbb::internal::concurrent_vector_base_v3::helper::destroy_body const&)
	_ZN3tbb8internal25concurrent_vector_base_v36helper5applyINS2_12destroy_bodyEEEyRKT_ @ 564
;	tbb::internal::concurrent_vector_base_v3::helper::cleanup()
	_ZN3tbb8internal25concurrent_vector_base_v36helper7cleanupEv @ 565
;	tbb::internal::concurrent_vector_base_v3::~concurrent_vector_base_v3()
	_ZN3tbb8internal25concurrent_vector_base_v3D1Ev @ 566
;	tbb::internal::concurrent_vector_base_v3::~concurrent_vector_base_v3()
	_ZN3tbb8internal25concurrent_vector_base_v3D2Ev @ 567
;	tbb::internal::construct_binding_handler(int)
	_ZN3tbb8internal25construct_binding_handlerEi @ 568
;	tbb::internal::deallocate_via_handler_v3(void*)
	_ZN3tbb8internal25deallocate_via_handler_v3EPv @ 569
;	tbb::internal::micro_queue_pop_finalizer::~micro_queue_pop_finalizer()
	_ZN3tbb8internal25micro_queue_pop_finalizerD1Ev @ 570
;	tbb::internal::construct_binding_observer(tbb::interface7::task_arena*, int, int)
	_ZN3tbb8internal26construct_binding_observerEPNS_10interface710task_arenaEii @ 571
;	tbb::internal::task_scheduler_observer_v3::on_scheduler_exit(bool)
	_ZN3tbb8internal26task_scheduler_observer_v317on_scheduler_exitEb @ 572
;	tbb::internal::task_scheduler_observer_v3::on_scheduler_entry(bool)
	_ZN3tbb8internal26task_scheduler_observer_v318on_scheduler_entryEb @ 573
;	tbb::internal::task_scheduler_observer_v3::observe(bool)
	_ZN3tbb8internal26task_scheduler_observer_v37observeEb @ 574
;	tbb::internal::task_scheduler_observer_v3::~task_scheduler_observer_v3()
	_ZN3tbb8internal26task_scheduler_observer_v3D0Ev @ 575
;	tbb::internal::task_scheduler_observer_v3::~task_scheduler_observer_v3()
	_ZN3tbb8internal26task_scheduler_observer_v3D1Ev @ 576
;	tbb::internal::destroy_condvar_using_event(tbb::interface5::internal::condition_variable_using_event*)
	_ZN3tbb8internal27destroy_condvar_using_eventEPNS_10interface58internal30condition_variable_using_eventE @ 577
;	tbb::internal::initialize_handler_pointers()
	_ZN3tbb8internal27initialize_handler_pointersEv @ 578
;	tbb::internal::MoveThreadIntoProcessorGroup(void*, int)
	_ZN3tbb8internal28MoveThreadIntoProcessorGroupEPvi @ 579
;	tbb::internal::affinity_partitioner_base_v3::resize(unsigned int)
	_ZN3tbb8internal28affinity_partitioner_base_v36resizeEj @ 580
;	tbb::internal::gcc_rethrow_exception_broken()
	_ZN3tbb8internal28gcc_rethrow_exception_brokenEv @ 581
;	tbb::internal::concurrent_queue_iterator_base::assign(tbb::internal::concurrent_queue_iterator_base const&)
	_ZN3tbb8internal30concurrent_queue_iterator_base6assignERKS1_ @ 582
;	tbb::internal::concurrent_queue_iterator_base::advance()
	_ZN3tbb8internal30concurrent_queue_iterator_base7advanceEv @ 583
;	tbb::internal::concurrent_queue_iterator_base::concurrent_queue_iterator_base(tbb::internal::concurrent_queue_base const&)
	_ZN3tbb8internal30concurrent_queue_iterator_baseC1ERKNS0_21concurrent_queue_baseE @ 584
;	tbb::internal::concurrent_queue_iterator_base::concurrent_queue_iterator_base(tbb::internal::concurrent_queue_base const&)
	_ZN3tbb8internal30concurrent_queue_iterator_baseC2ERKNS0_21concurrent_queue_baseE @ 585
;	tbb::internal::concurrent_queue_iterator_base::~concurrent_queue_iterator_base()
	_ZN3tbb8internal30concurrent_queue_iterator_baseD1Ev @ 586
;	tbb::internal::concurrent_queue_iterator_base::~concurrent_queue_iterator_base()
	_ZN3tbb8internal30concurrent_queue_iterator_baseD2Ev @ 587
;	tbb::internal::Scheduler_OneTimeInitialization(bool)
	_ZN3tbb8internal31Scheduler_OneTimeInitializationEb @ 588
;	tbb::internal::itt_load_pointer_with_acquire_v3(void const*)
	_ZN3tbb8internal32itt_load_pointer_with_acquire_v3EPKv @ 589
;	tbb::internal::concurrent_queue_iterator_base_v3::initialize(tbb::internal::concurrent_queue_base_v3 const&, unsigned long long)
	_ZN3tbb8internal33concurrent_queue_iterator_base_v310initializeERKNS0_24concurrent_queue_base_v3Ey @ 590
;	tbb::internal::concurrent_queue_iterator_base_v3::assign(tbb::internal::concurrent_queue_iterator_base_v3 const&)
	_ZN3tbb8internal33concurrent_queue_iterator_base_v36assignERKS1_ @ 591
;	tbb::internal::concurrent_queue_iterator_base_v3::advance()
	_ZN3tbb8internal33concurrent_queue_iterator_base_v37advanceEv @ 592
;	tbb::internal::concurrent_queue_iterator_base_v3::concurrent_queue_iterator_base_v3(tbb::internal::concurrent_queue_base_v3 const&)
	_ZN3tbb8internal33concurrent_queue_iterator_base_v3C1ERKNS0_24concurrent_queue_base_v3E @ 593
;	tbb::internal::concurrent_queue_iterator_base_v3::concurrent_queue_iterator_base_v3(tbb::internal::concurrent_queue_base_v3 const&, unsigned long long)
	_ZN3tbb8internal33concurrent_queue_iterator_base_v3C1ERKNS0_24concurrent_queue_base_v3Ey @ 594
;	tbb::internal::concurrent_queue_iterator_base_v3::concurrent_queue_iterator_base_v3(tbb::internal::concurrent_queue_base_v3 const&)
	_ZN3tbb8internal33concurrent_queue_iterator_base_v3C2ERKNS0_24concurrent_queue_base_v3E @ 595
;	tbb::internal::concurrent_queue_iterator_base_v3::concurrent_queue_iterator_base_v3(tbb::internal::concurrent_queue_base_v3 const&, unsigned long long)
	_ZN3tbb8internal33concurrent_queue_iterator_base_v3C2ERKNS0_24concurrent_queue_base_v3Ey @ 596
;	tbb::internal::concurrent_queue_iterator_base_v3::~concurrent_queue_iterator_base_v3()
	_ZN3tbb8internal33concurrent_queue_iterator_base_v3D1Ev @ 597
;	tbb::internal::concurrent_queue_iterator_base_v3::~concurrent_queue_iterator_base_v3()
	_ZN3tbb8internal33concurrent_queue_iterator_base_v3D2Ev @ 598
;	tbb::internal::itt_store_pointer_with_release_v3(void*, void*)
	_ZN3tbb8internal33itt_store_pointer_with_release_v3EPvS1_ @ 599
;	tbb::internal::throw_bad_last_alloc_exception_v4()
	_ZN3tbb8internal33throw_bad_last_alloc_exception_v4Ev @ 600
;	tbb::internal::initialize_cache_aligned_allocator()
	_ZN3tbb8internal34initialize_cache_aligned_allocatorEv @ 601
;	tbb::internal::the_context_state_propagation_epoch
	_ZN3tbb8internal35the_context_state_propagation_epochE @ 602 DATA
;	tbb::internal::the_context_state_propagation_mutex
	_ZN3tbb8internal35the_context_state_propagation_mutexE @ 603 DATA
;	tbb::internal::wake_condition_variable_using_event(tbb::interface5::internal::condition_variable_using_event*)
	_ZN3tbb8internal35wake_condition_variable_using_eventEPNS_10interface58internal30condition_variable_using_eventE @ 604
;	tbb::internal::get_initial_auto_partitioner_divisor()
	_ZN3tbb8internal36get_initial_auto_partitioner_divisorEv @ 605
;	tbb::internal::sleep_condition_variable_cs_using_event(tbb::interface5::internal::condition_variable_using_event*, _RTL_CRITICAL_SECTION*, unsigned long)
	_ZN3tbb8internal39sleep_condition_variable_cs_using_eventEPNS_10interface58internal30condition_variable_using_eventEP21_RTL_CRITICAL_SECTIONm @ 606
;	tbb::internal::wake_all_condition_variable_using_event(tbb::interface5::internal::condition_variable_using_event*)
	_ZN3tbb8internal39wake_all_condition_variable_using_eventEPNS_10interface58internal30condition_variable_using_eventE @ 607
;	tbb::internal::rml::tbb_factory::make_server(tbb::internal::rml::tbb_server*&, tbb::internal::rml::tbb_client&)
	_ZN3tbb8internal3rml11tbb_factory11make_serverERPNS1_10tbb_serverERNS1_10tbb_clientE @ 608
;	tbb::internal::rml::tbb_factory::open()
	_ZN3tbb8internal3rml11tbb_factory4openEv @ 609
;	tbb::internal::rml::tbb_factory::close()
	_ZN3tbb8internal3rml11tbb_factory5closeEv @ 610
;	tbb::internal::rml::private_server::register_master(void*&)
	_ZN3tbb8internal3rml14private_server15register_masterERPv @ 611
;	tbb::internal::rml::private_server::unregister_master(void*)
	_ZN3tbb8internal3rml14private_server17unregister_masterEPv @ 612
;	tbb::internal::rml::private_server::request_close_connection(bool)
	_ZN3tbb8internal3rml14private_server24request_close_connectionEb @ 613
;	tbb::internal::rml::private_server::adjust_job_count_estimate(int)
	_ZN3tbb8internal3rml14private_server25adjust_job_count_estimateEi @ 614
;	tbb::internal::rml::private_server::independent_thread_number_changed(int)
	_ZN3tbb8internal3rml14private_server33independent_thread_number_changedEi @ 615
;	tbb::internal::rml::private_server::yield()
	_ZN3tbb8internal3rml14private_server5yieldEv @ 616
;	tbb::internal::rml::private_server::wake_some(int)
	_ZN3tbb8internal3rml14private_server9wake_someEi @ 617
;	tbb::internal::rml::private_server::private_server(tbb::internal::rml::tbb_client&)
	_ZN3tbb8internal3rml14private_serverC1ERNS1_10tbb_clientE @ 618
;	tbb::internal::rml::private_server::private_server(tbb::internal::rml::tbb_client&)
	_ZN3tbb8internal3rml14private_serverC2ERNS1_10tbb_clientE @ 619
;	tbb::internal::rml::private_server::~private_server()
	_ZN3tbb8internal3rml14private_serverD0Ev @ 620
;	tbb::internal::rml::private_server::~private_server()
	_ZN3tbb8internal3rml14private_serverD1Ev @ 621
;	tbb::internal::rml::private_server::~private_server()
	_ZN3tbb8internal3rml14private_serverD2Ev @ 622
;	tbb::internal::rml::private_worker::release_handle(void*, bool)
	_ZN3tbb8internal3rml14private_worker14release_handleEPvb @ 623
;	tbb::internal::rml::private_worker::start_shutdown()
	_ZN3tbb8internal3rml14private_worker14start_shutdownEv @ 624
;	tbb::internal::rml::private_worker::thread_routine(void*)
	_ZN3tbb8internal3rml14private_worker14thread_routineEPv @ 625
;	tbb::internal::rml::private_worker::run()
	_ZN3tbb8internal3rml14private_worker3runEv @ 626
;	tbb::internal::rml::make_private_server(tbb::internal::rml::tbb_client&)
	_ZN3tbb8internal3rml19make_private_serverERNS1_10tbb_clientE @ 627
;	tbb::internal::arena::free_arena()
	_ZN3tbb8internal5arena10free_arenaEv @ 628
;	tbb::internal::arena::enqueue_task(tbb::task&, long long, tbb::internal::FastRandom&)
	_ZN3tbb8internal5arena12enqueue_taskERNS_4taskExRNS0_10FastRandomE @ 629
;	tbb::internal::arena::allocate_arena(tbb::internal::market&, unsigned int, unsigned int)
	_ZN3tbb8internal5arena14allocate_arenaERNS0_6marketEjj @ 630
;	tbb::internal::arena::is_out_of_work()
	_ZN3tbb8internal5arena14is_out_of_workEv @ 631
;	unsigned long long tbb::internal::arena::occupy_free_slot<false>(tbb::internal::generic_scheduler&)
	_ZN3tbb8internal5arena16occupy_free_slotILb0EEEyRNS0_17generic_schedulerE @ 632
;	void tbb::internal::arena::advertise_new_work<(tbb::internal::arena::new_work_type)0>()
	_ZN3tbb8internal5arena18advertise_new_workILNS1_13new_work_typeE0EEEvv @ 633
;	void tbb::internal::arena::advertise_new_work<(tbb::internal::arena::new_work_type)1>()
	_ZN3tbb8internal5arena18advertise_new_workILNS1_13new_work_typeE1EEEvv @ 634
;	void tbb::internal::arena::advertise_new_work<(tbb::internal::arena::new_work_type)2>()
	_ZN3tbb8internal5arena18advertise_new_workILNS1_13new_work_typeE2EEEvv @ 635
;	tbb::internal::arena::has_enqueued_tasks()
	_ZN3tbb8internal5arena18has_enqueued_tasksEv @ 636
;	tbb::internal::arena::orphan_offloaded_tasks(tbb::internal::generic_scheduler&)
	_ZN3tbb8internal5arena22orphan_offloaded_tasksERNS0_17generic_schedulerE @ 637
;	tbb::internal::arena::restore_priority_if_need()
	_ZN3tbb8internal5arena24restore_priority_if_needEv @ 638
;	tbb::internal::arena::occupy_free_slot_in_range(tbb::internal::generic_scheduler&, unsigned long long, unsigned long long)
	_ZN3tbb8internal5arena25occupy_free_slot_in_rangeERNS0_17generic_schedulerEyy @ 639
;	tbb::internal::arena::process(tbb::internal::generic_scheduler&)
	_ZN3tbb8internal5arena7processERNS0_17generic_schedulerE @ 640
;	tbb::internal::arena::arena(tbb::internal::market&, unsigned int, unsigned int)
	_ZN3tbb8internal5arenaC1ERNS0_6marketEjj @ 641
;	tbb::internal::arena::arena(tbb::internal::market&, unsigned int, unsigned int)
	_ZN3tbb8internal5arenaC2ERNS0_6marketEjj @ 642
;	tbb::internal::market::create_arena(int, int, unsigned long long)
	_ZN3tbb8internal6market12create_arenaEiiy @ 643
;	tbb::internal::market::detach_arena(tbb::internal::arena&)
	_ZN3tbb8internal6market12detach_arenaERNS0_5arenaE @ 644
;	tbb::internal::market::adjust_demand(tbb::internal::arena&, int)
	_ZN3tbb8internal6market13adjust_demandERNS0_5arenaEi @ 645
;	tbb::internal::market::arena_in_need(tbb::internal::arena*)
	_ZN3tbb8internal6market13arena_in_needEPNS0_5arenaE @ 646
;	tbb::internal::market::arena_in_need(tbb::internal::intrusive_list<tbb::internal::arena>&, tbb::internal::arena*)
	_ZN3tbb8internal6market13arena_in_needERNS0_14intrusive_listINS0_5arenaEEEPS3_ @ 647
;	tbb::internal::market::global_market(bool, unsigned int, unsigned long long)
	_ZN3tbb8internal6market13global_marketEbjy @ 648
;	tbb::internal::market::create_one_job()
	_ZN3tbb8internal6market14create_one_jobEv @ 649
;	tbb::internal::market::theMarketMutex
	_ZN3tbb8internal6market14theMarketMutexE @ 650 DATA
;	tbb::internal::market::is_arena_in_list(tbb::internal::intrusive_list<tbb::internal::arena>&, tbb::internal::arena*)
	_ZN3tbb8internal6market16is_arena_in_listERNS0_14intrusive_listINS0_5arenaEEEPS3_ @ 651
;	tbb::internal::market::update_allotment(tbb::internal::intrusive_list<tbb::internal::arena>&, int, int)
	_ZN3tbb8internal6market16update_allotmentERNS0_14intrusive_listINS0_5arenaEEEii @ 652
;	tbb::internal::market::update_allotment(long long)
	_ZN3tbb8internal6market16update_allotmentEx @ 653
;	tbb::internal::market::try_destroy_arena(tbb::internal::arena*, unsigned long long)
	_ZN3tbb8internal6market17try_destroy_arenaEPNS0_5arenaEy @ 654
;	tbb::internal::market::lower_arena_priority(tbb::internal::arena&, long long, unsigned long long)
	_ZN3tbb8internal6market20lower_arena_priorityERNS0_5arenaExy @ 655
;	tbb::internal::market::app_parallelism_limit()
	_ZN3tbb8internal6market21app_parallelism_limitEv @ 656
;	tbb::internal::market::update_arena_priority(tbb::internal::arena&, long long)
	_ZN3tbb8internal6market21update_arena_priorityERNS0_5arenaEx @ 657
;	tbb::internal::market::insert_arena_into_list(tbb::internal::arena&)
	_ZN3tbb8internal6market22insert_arena_into_listERNS0_5arenaE @ 658
;	tbb::internal::market::remove_arena_from_list(tbb::internal::arena&)
	_ZN3tbb8internal6market22remove_arena_from_listERNS0_5arenaE @ 659
;	tbb::internal::market::set_active_num_workers(unsigned int)
	_ZN3tbb8internal6market22set_active_num_workersEj @ 660
;	tbb::internal::market::update_workers_request()
	_ZN3tbb8internal6market22update_workers_requestEv @ 661
;	tbb::internal::market::update_arena_top_priority(tbb::internal::arena&, long long)
	_ZN3tbb8internal6market25update_arena_top_priorityERNS0_5arenaEx @ 662
;	bool tbb::internal::market::propagate_task_group_state<long long>(long long tbb::task_group_context::*, tbb::task_group_context&, long long)
	_ZN3tbb8internal6market26propagate_task_group_stateIxEEbMNS_18task_group_contextET_RS3_S4_ @ 663
;	tbb::internal::market::acknowledge_close_connection()
	_ZN3tbb8internal6market28acknowledge_close_connectionEv @ 664
;	tbb::internal::market::enable_mandatory_concurrency(tbb::internal::arena*)
	_ZN3tbb8internal6market28enable_mandatory_concurrencyEPNS0_5arenaE @ 665
;	tbb::internal::market::mandatory_concurrency_disable(tbb::internal::arena*)
	_ZN3tbb8internal6market29mandatory_concurrency_disableEPNS0_5arenaE @ 666
;	tbb::internal::market::enable_mandatory_concurrency_impl(tbb::internal::arena*)
	_ZN3tbb8internal6market33enable_mandatory_concurrency_implEPNS0_5arenaE @ 667
;	tbb::internal::market::disable_mandatory_concurrency_impl(tbb::internal::arena*)
	_ZN3tbb8internal6market34disable_mandatory_concurrency_implEPNS0_5arenaE @ 668
;	tbb::internal::market::cleanup(rml::job&)
	_ZN3tbb8internal6market7cleanupERN3rml3jobE @ 669
;	tbb::internal::market::destroy()
	_ZN3tbb8internal6market7destroyEv @ 670
;	tbb::internal::market::process(rml::job&)
	_ZN3tbb8internal6market7processERN3rml3jobE @ 671
;	tbb::internal::market::release(bool, bool)
	_ZN3tbb8internal6market7releaseEbb @ 672
;	tbb::internal::market::theMarket
	_ZN3tbb8internal6market9theMarketE @ 673 DATA
;	tbb::internal::market::market(unsigned int, unsigned int, unsigned long long)
	_ZN3tbb8internal6marketC1Ejjy @ 674
;	tbb::internal::market::market(unsigned int, unsigned int, unsigned long long)
	_ZN3tbb8internal6marketC2Ejjy @ 675
;	tbb::internal::handles
	_ZN3tbb8internal7handlesE @ 676 DATA
;	tbb::internal::move_v3(tbb::internal::tbb_thread_v3&, tbb::internal::tbb_thread_v3&)
	_ZN3tbb8internal7move_v3ERNS0_13tbb_thread_v3ES2_ @ 677
;	tbb::internal::NFS_Free(void*)
	_ZN3tbb8internal8NFS_FreeEPv @ 678
;	tbb::internal::governor::tls_value_of(tbb::internal::generic_scheduler*)
	_ZN3tbb8internal8governor12tls_value_ofEPNS0_17generic_schedulerE @ 679
;	tbb::internal::governor::UsePrivateRML
	_ZN3tbb8internal8governor13UsePrivateRMLE @ 680 DATA
;	tbb::internal::governor::one_time_init()
	_ZN3tbb8internal8governor13one_time_initEv @ 681
;	tbb::internal::governor::auto_terminate(void*)
	_ZN3tbb8internal8governor14auto_terminateEPv @ 682
;	tbb::internal::governor::init_scheduler(int, unsigned long long, bool)
	_ZN3tbb8internal8governor14init_schedulerEiyb @ 683
;	tbb::internal::governor::DefaultPageSize
	_ZN3tbb8internal8governor15DefaultPageSizeE @ 684 DATA
;	tbb::internal::governor::assume_scheduler(tbb::internal::generic_scheduler*)
	_ZN3tbb8internal8governor16assume_schedulerEPNS0_17generic_schedulerE @ 685
;	tbb::internal::governor::stack_op_handler(__cilk_tbb_stack_op, void*)
	_ZN3tbb8internal8governor16stack_op_handlerE19__cilk_tbb_stack_opPv @ 686
;	tbb::internal::governor::acquire_resources()
	_ZN3tbb8internal8governor17acquire_resourcesEv @ 687
;	tbb::internal::governor::create_rml_server(tbb::internal::rml::tbb_client&)
	_ZN3tbb8internal8governor17create_rml_serverERNS0_3rml10tbb_clientE @ 688
;	tbb::internal::governor::is_rethrow_broken
	_ZN3tbb8internal8governor17is_rethrow_brokenE @ 689 DATA
;	tbb::internal::governor::release_resources()
	_ZN3tbb8internal8governor17release_resourcesEv @ 690
;	tbb::internal::governor::print_version_info()
	_ZN3tbb8internal8governor18print_version_infoEv @ 691
;	tbb::internal::governor::init_scheduler_weak()
	_ZN3tbb8internal8governor19init_scheduler_weakEv @ 692
;	tbb::internal::governor::terminate_scheduler(tbb::internal::generic_scheduler*, bool)
	_ZN3tbb8internal8governor19terminate_schedulerEPNS0_17generic_schedulerEb @ 693
;	tbb::internal::governor::theRMLServerFactory
	_ZN3tbb8internal8governor19theRMLServerFactoryE @ 694 DATA
;	tbb::internal::governor::DefaultNumberOfThreads
	_ZN3tbb8internal8governor22DefaultNumberOfThreadsE @ 695 DATA
;	tbb::internal::governor::initialize_rml_factory()
	_ZN3tbb8internal8governor22initialize_rml_factoryEv @ 696
;	tbb::internal::governor::is_speculation_enabled
	_ZN3tbb8internal8governor22is_speculation_enabledE @ 697 DATA
;	tbb::internal::governor::does_client_join_workers(tbb::internal::rml::tbb_client const&)
	_ZN3tbb8internal8governor24does_client_join_workersERKNS0_3rml10tbb_clientE @ 698
;	tbb::internal::governor::is_set(tbb::internal::generic_scheduler*)
	_ZN3tbb8internal8governor6is_setEPNS0_17generic_schedulerE @ 699
;	tbb::internal::governor::theTLS
	_ZN3tbb8internal8governor6theTLSE @ 700 DATA
;	tbb::internal::governor::sign_on(tbb::internal::generic_scheduler*)
	_ZN3tbb8internal8governor7sign_onEPNS0_17generic_schedulerE @ 701
;	tbb::internal::governor::sign_off(tbb::internal::generic_scheduler*)
	_ZN3tbb8internal8governor8sign_offEPNS0_17generic_schedulerE @ 702
;	tbb::internal::scheduler::~scheduler()
	_ZN3tbb8internal9schedulerD0Ev @ 703
;	tbb::internal::scheduler::~scheduler()
	_ZN3tbb8internal9schedulerD1Ev @ 704
;	tbb::internal::scheduler::~scheduler()
	_ZN3tbb8internal9schedulerD2Ev @ 705
;	tbb::pipeline::add_filter(tbb::filter&)
	_ZN3tbb8pipeline10add_filterERNS_6filterE @ 706
;	tbb::pipeline::inject_token(tbb::task&)
	_ZN3tbb8pipeline12inject_tokenERNS_4taskE @ 707
;	tbb::pipeline::clear_filters()
	_ZN3tbb8pipeline13clear_filtersEv @ 708
;	tbb::pipeline::remove_filter(tbb::filter&)
	_ZN3tbb8pipeline13remove_filterERNS_6filterE @ 709
;	tbb::pipeline::run(unsigned long long)
	_ZN3tbb8pipeline3runEy @ 710
;	tbb::pipeline::run(unsigned long long, tbb::task_group_context&)
	_ZN3tbb8pipeline3runEyRNS_18task_group_contextE @ 711
;	tbb::pipeline::clear()
	_ZN3tbb8pipeline5clearEv @ 712
;	tbb::pipeline::pipeline()
	_ZN3tbb8pipelineC1Ev @ 713
;	tbb::pipeline::pipeline()
	_ZN3tbb8pipelineC2Ev @ 714
;	tbb::pipeline::~pipeline()
	_ZN3tbb8pipelineD0Ev @ 715
;	tbb::pipeline::~pipeline()
	_ZN3tbb8pipelineD1Ev @ 716
;	tbb::pipeline::~pipeline()
	_ZN3tbb8pipelineD2Ev @ 717
;	__gnu_cxx::__concat_size_t(char*, unsigned long long, unsigned long long)
	_ZN9__gnu_cxx15__concat_size_tEPcyy @ 718
;	__gnu_cxx::__snprintf_lite(char*, unsigned long long, char const*, char*)
	_ZN9__gnu_cxx15__snprintf_liteEPcyPKcS0_ @ 719
;	__gnu_cxx::__concurrence_lock_error::~__concurrence_lock_error()
	_ZN9__gnu_cxx24__concurrence_lock_errorD0Ev @ 720
;	__gnu_cxx::__concurrence_lock_error::~__concurrence_lock_error()
	_ZN9__gnu_cxx24__concurrence_lock_errorD1Ev @ 721
;	__gnu_cxx::__concurrence_wait_error::~__concurrence_wait_error()
	_ZN9__gnu_cxx24__concurrence_wait_errorD0Ev @ 722
;	__gnu_cxx::__concurrence_wait_error::~__concurrence_wait_error()
	_ZN9__gnu_cxx24__concurrence_wait_errorD1Ev @ 723
;	__gnu_cxx::__concurrence_unlock_error::~__concurrence_unlock_error()
	_ZN9__gnu_cxx26__concurrence_unlock_errorD0Ev @ 724
;	__gnu_cxx::__concurrence_unlock_error::~__concurrence_unlock_error()
	_ZN9__gnu_cxx26__concurrence_unlock_errorD1Ev @ 725
;	__gnu_cxx::__throw_insufficient_space(char const*, char const*)
	_ZN9__gnu_cxx26__throw_insufficient_spaceEPKcS1_ @ 726
;	__gnu_cxx::__verbose_terminate_handler()
	_ZN9__gnu_cxx27__verbose_terminate_handlerEv @ 727
;	__gnu_cxx::__concurrence_broadcast_error::~__concurrence_broadcast_error()
	_ZN9__gnu_cxx29__concurrence_broadcast_errorD0Ev @ 728
;	__gnu_cxx::__concurrence_broadcast_error::~__concurrence_broadcast_error()
	_ZN9__gnu_cxx29__concurrence_broadcast_errorD1Ev @ 729
;	__gnu_cxx::__throw_concurrence_lock_error()
	_ZN9__gnu_cxx30__throw_concurrence_lock_errorEv @ 730
;	__gnu_cxx::__throw_concurrence_unlock_error()
	_ZN9__gnu_cxx32__throw_concurrence_unlock_errorEv @ 731
;	__gnu_cxx::__throw_concurrence_broadcast_error()
	_ZN9__gnu_cxx35__throw_concurrence_broadcast_errorEv @ 732
;	__gnu_cxx::__freeres()
	_ZN9__gnu_cxx9__freeresEv @ 733
;	bool __gnu_cxx::operator==<char const*, std::__cxx11::basic_string<char, std::char_traits<char>, std::allocator<char> > >(__gnu_cxx::__normal_iterator<char const*, std::__cxx11::basic_string<char, std::char_traits<char>, std::allocator<char> > > const&, __gnu_cxx::__normal_iterator<char const*, std::__cxx11::basic_string<char, std::char_traits<char>, std::allocator<char> > > const&)
	_ZN9__gnu_cxxeqIPKcNSt7__cxx1112basic_stringIcSt11char_traitsIcESaIcEEEEEbRKNS_17__normal_iteratorIT_T0_EESE_ @ 734
;	bool __gnu_cxx::operator==<char const*, std::string>(__gnu_cxx::__normal_iterator<char const*, std::string> const&, __gnu_cxx::__normal_iterator<char const*, std::string> const&)
	_ZN9__gnu_cxxeqIPKcSsEEbRKNS_17__normal_iteratorIT_T0_EES8_ @ 735
;	bool __gnu_cxx::operator==<char*, std::__cxx11::basic_string<char, std::char_traits<char>, std::allocator<char> > >(__gnu_cxx::__normal_iterator<char*, std::__cxx11::basic_string<char, std::char_traits<char>, std::allocator<char> > > const&, __gnu_cxx::__normal_iterator<char*, std::__cxx11::basic_string<char, std::char_traits<char>, std::allocator<char> > > const&)
	_ZN9__gnu_cxxeqIPcNSt7__cxx1112basic_stringIcSt11char_traitsIcESaIcEEEEEbRKNS_17__normal_iteratorIT_T0_EESD_ @ 736
;	bool __gnu_cxx::operator==<char*, std::string>(__gnu_cxx::__normal_iterator<char*, std::string> const&, __gnu_cxx::__normal_iterator<char*, std::string> const&)
	_ZN9__gnu_cxxeqIPcSsEEbRKNS_17__normal_iteratorIT_T0_EES7_ @ 737
;	__cxxabiv1::__class_type_info::__do_catch(std::type_info const*, void**, unsigned int) const
	_ZNK10__cxxabiv117__class_type_info10__do_catchEPKSt9type_infoPPvj @ 738
;	__cxxabiv1::__class_type_info::__do_upcast(__cxxabiv1::__class_type_info const*, void const*, __cxxabiv1::__class_type_info::__upcast_result&) const
	_ZNK10__cxxabiv117__class_type_info11__do_upcastEPKS0_PKvRNS0_15__upcast_resultE @ 739
;	__cxxabiv1::__class_type_info::__do_upcast(__cxxabiv1::__class_type_info const*, void**) const
	_ZNK10__cxxabiv117__class_type_info11__do_upcastEPKS0_PPv @ 740
;	__cxxabiv1::__class_type_info::__do_dyncast(long long, __cxxabiv1::__class_type_info::__sub_kind, __cxxabiv1::__class_type_info const*, void const*, __cxxabiv1::__class_type_info const*, void const*, __cxxabiv1::__class_type_info::__dyncast_result&) const
	_ZNK10__cxxabiv117__class_type_info12__do_dyncastExNS0_10__sub_kindEPKS0_PKvS3_S5_RNS0_16__dyncast_resultE @ 741
;	__cxxabiv1::__class_type_info::__do_find_public_src(long long, void const*, __cxxabiv1::__class_type_info const*, void const*) const
	_ZNK10__cxxabiv117__class_type_info20__do_find_public_srcExPKvPKS0_S2_ @ 742
;	__cxxabiv1::__si_class_type_info::__do_upcast(__cxxabiv1::__class_type_info const*, void const*, __cxxabiv1::__class_type_info::__upcast_result&) const
	_ZNK10__cxxabiv120__si_class_type_info11__do_upcastEPKNS_17__class_type_infoEPKvRNS1_15__upcast_resultE @ 743
;	__cxxabiv1::__si_class_type_info::__do_dyncast(long long, __cxxabiv1::__class_type_info::__sub_kind, __cxxabiv1::__class_type_info const*, void const*, __cxxabiv1::__class_type_info const*, void const*, __cxxabiv1::__class_type_info::__dyncast_result&) const
	_ZNK10__cxxabiv120__si_class_type_info12__do_dyncastExNS_17__class_type_info10__sub_kindEPKS1_PKvS4_S6_RNS1_16__dyncast_resultE @ 744
;	__cxxabiv1::__si_class_type_info::__do_find_public_src(long long, void const*, __cxxabiv1::__class_type_info const*, void const*) const
	_ZNK10__cxxabiv120__si_class_type_info20__do_find_public_srcExPKvPKNS_17__class_type_infoES2_ @ 745
;	__cxxabiv1::__vmi_class_type_info::__do_upcast(__cxxabiv1::__class_type_info const*, void const*, __cxxabiv1::__class_type_info::__upcast_result&) const
	_ZNK10__cxxabiv121__vmi_class_type_info11__do_upcastEPKNS_17__class_type_infoEPKvRNS1_15__upcast_resultE @ 746
;	__cxxabiv1::__vmi_class_type_info::__do_dyncast(long long, __cxxabiv1::__class_type_info::__sub_kind, __cxxabiv1::__class_type_info const*, void const*, __cxxabiv1::__class_type_info const*, void const*, __cxxabiv1::__class_type_info::__dyncast_result&) const
	_ZNK10__cxxabiv121__vmi_class_type_info12__do_dyncastExNS_17__class_type_info10__sub_kindEPKS1_PKvS4_S6_RNS1_16__dyncast_resultE @ 747
;	__cxxabiv1::__vmi_class_type_info::__do_find_public_src(long long, void const*, __cxxabiv1::__class_type_info const*, void const*) const
	_ZNK10__cxxabiv121__vmi_class_type_info20__do_find_public_srcExPKvPKNS_17__class_type_infoES2_ @ 748
;	tbb::interface7::internal::task_arena_base::internal_wait() const
	_ZNK3tbb10interface78internal15task_arena_base13internal_waitEv @ 749
;	tbb::interface7::internal::task_arena_base::internal_enqueue(tbb::task&, long long) const
	_ZNK3tbb10interface78internal15task_arena_base16internal_enqueueERNS_4taskEx @ 750
;	tbb::interface7::internal::task_arena_base::internal_execute(tbb::interface7::internal::delegate_base&) const
	_ZNK3tbb10interface78internal15task_arena_base16internal_executeERNS1_13delegate_baseE @ 751
;	tbb::user_abort::what() const
	_ZNK3tbb10user_abort4whatEv @ 752
;	tbb::missing_wait::what() const
	_ZNK3tbb12missing_wait4whatEv @ 753
;	tbb::improper_lock::what() const
	_ZNK3tbb13improper_lock4whatEv @ 754
;	tbb::bad_last_alloc::what() const
	_ZNK3tbb14bad_last_alloc4whatEv @ 755
;	tbb::captured_exception::name() const
	_ZNK3tbb18captured_exception4nameEv @ 756
;	tbb::captured_exception::what() const
	_ZNK3tbb18captured_exception4whatEv @ 757
;	tbb::task_group_context::is_group_execution_cancelled() const
	_ZNK3tbb18task_group_context28is_group_execution_cancelledEv @ 758
;	tbb::task_group_context::priority() const
	_ZNK3tbb18task_group_context8priorityEv @ 759
;	tbb::invalid_multiple_scheduling::what() const
	_ZNK3tbb27invalid_multiple_scheduling4whatEv @ 760
;	tbb::task::is_owned_by_current_thread() const
	_ZNK3tbb4task26is_owned_by_current_threadEv @ 761
;	tbb::internal::control_storage::active_value() const
	_ZNK3tbb8internal15control_storage12active_valueEv @ 762
;	tbb::internal::control_storage::is_first_arg_preferred(unsigned long long, unsigned long long) const
	_ZNK3tbb8internal15control_storage22is_first_arg_preferredEyy @ 763
;	tbb::internal::stack_size_control::apply_active() const
	_ZNK3tbb8internal18stack_size_control12apply_activeEv @ 764
;	tbb::internal::stack_size_control::default_value() const
	_ZNK3tbb8internal18stack_size_control13default_valueEv @ 765
;	tbb::internal::allocate_child_proxy::free(tbb::task&) const
	_ZNK3tbb8internal20allocate_child_proxy4freeERNS_4taskE @ 766
;	tbb::internal::allocate_child_proxy::allocate(unsigned long long) const
	_ZNK3tbb8internal20allocate_child_proxy8allocateEy @ 767
;	tbb::internal::concurrent_queue_base::internal_size() const
	_ZNK3tbb8internal21concurrent_queue_base13internal_sizeEv @ 768
;	tbb::internal::hash_map_segment_base::internal_grow_predicate() const
	_ZNK3tbb8internal21hash_map_segment_base23internal_grow_predicateEv @ 769
;	tbb::internal::concurrent_vector_base::internal_capacity() const
	_ZNK3tbb8internal22concurrent_vector_base17internal_capacityEv @ 770
;	tbb::internal::concurrent_queue_base_v3::internal_size() const
	_ZNK3tbb8internal24concurrent_queue_base_v313internal_sizeEv @ 771
;	tbb::internal::concurrent_queue_base_v3::internal_empty() const
	_ZNK3tbb8internal24concurrent_queue_base_v314internal_emptyEv @ 772
;	tbb::internal::concurrent_queue_base_v3::internal_throw_exception() const
	_ZNK3tbb8internal24concurrent_queue_base_v324internal_throw_exceptionEv @ 773
;	tbb::internal::concurrent_vector_base_v3::internal_capacity() const
	_ZNK3tbb8internal25concurrent_vector_base_v317internal_capacityEv @ 774
;	tbb::internal::concurrent_vector_base_v3::internal_throw_exception(unsigned long long) const
	_ZNK3tbb8internal25concurrent_vector_base_v324internal_throw_exceptionEy @ 775
;	tbb::internal::allocate_continuation_proxy::free(tbb::task&) const
	_ZNK3tbb8internal27allocate_continuation_proxy4freeERNS_4taskE @ 776
;	tbb::internal::allocate_continuation_proxy::allocate(unsigned long long) const
	_ZNK3tbb8internal27allocate_continuation_proxy8allocateEy @ 777
;	tbb::internal::allowed_parallelism_control::active_value() const
	_ZNK3tbb8internal27allowed_parallelism_control12active_valueEv @ 778
;	tbb::internal::allowed_parallelism_control::apply_active() const
	_ZNK3tbb8internal27allowed_parallelism_control12apply_activeEv @ 779
;	tbb::internal::allowed_parallelism_control::default_value() const
	_ZNK3tbb8internal27allowed_parallelism_control13default_valueEv @ 780
;	tbb::internal::allowed_parallelism_control::is_first_arg_preferred(unsigned long long, unsigned long long) const
	_ZNK3tbb8internal27allowed_parallelism_control22is_first_arg_preferredEyy @ 781
;	tbb::internal::allocate_root_with_context_proxy::free(tbb::task&) const
	_ZNK3tbb8internal32allocate_root_with_context_proxy4freeERNS_4taskE @ 782
;	tbb::internal::allocate_root_with_context_proxy::allocate(unsigned long long) const
	_ZNK3tbb8internal32allocate_root_with_context_proxy8allocateEy @ 783
;	tbb::internal::allocate_additional_child_of_proxy::free(tbb::task&) const
	_ZNK3tbb8internal34allocate_additional_child_of_proxy4freeERNS_4taskE @ 784
;	tbb::internal::allocate_additional_child_of_proxy::allocate(unsigned long long) const
	_ZNK3tbb8internal34allocate_additional_child_of_proxy8allocateEy @ 785
;	tbb::internal::rml::tbb_factory::call_with_server_info(void (*)(void*, char const*), void*) const
	_ZNK3tbb8internal3rml11tbb_factory21call_with_server_infoEPFvPvPKcES3_ @ 786
;	tbb::internal::rml::private_server::default_concurrency() const
	_ZNK3tbb8internal3rml14private_server19default_concurrencyEv @ 787
;	tbb::internal::rml::private_server::version() const
	_ZNK3tbb8internal3rml14private_server7versionEv @ 788
;	tbb::internal::market::max_job_count() const
	_ZNK3tbb8internal6market13max_job_countEv @ 789
;	tbb::internal::market::min_stack_size() const
	_ZNK3tbb8internal6market14min_stack_sizeEv @ 790
;	tbb::internal::market::policy() const
	_ZNK3tbb8internal6market6policyEv @ 791
;	tbb::internal::market::version() const
	_ZNK3tbb8internal6market7versionEv @ 792
;	__gnu_cxx::__concurrence_lock_error::what() const
	_ZNK9__gnu_cxx24__concurrence_lock_error4whatEv @ 793
;	__gnu_cxx::__concurrence_wait_error::what() const
	_ZNK9__gnu_cxx24__concurrence_wait_error4whatEv @ 794
;	__gnu_cxx::__concurrence_unlock_error::what() const
	_ZNK9__gnu_cxx26__concurrence_unlock_error4whatEv @ 795
;	__gnu_cxx::__concurrence_broadcast_error::what() const
	_ZNK9__gnu_cxx29__concurrence_broadcast_error4whatEv @ 796
;	std::string::_M_disjunct(char const*) const
	_ZNKSs11_M_disjunctEPKc @ 797
;	std::string::find_last_of(char const*, unsigned long long) const
	_ZNKSs12find_last_ofEPKcy @ 798
;	std::string::find_last_of(char const*, unsigned long long, unsigned long long) const
	_ZNKSs12find_last_ofEPKcyy @ 799
;	std::string::find_last_of(std::string const&, unsigned long long) const
	_ZNKSs12find_last_ofERKSsy @ 800
;	std::string::find_last_of(char, unsigned long long) const
	_ZNKSs12find_last_ofEcy @ 801
;	std::string::find_first_of(char const*, unsigned long long) const
	_ZNKSs13find_first_ofEPKcy @ 802
;	std::string::find_first_of(char const*, unsigned long long, unsigned long long) const
	_ZNKSs13find_first_ofEPKcyy @ 803
;	std::string::find_first_of(std::string const&, unsigned long long) const
	_ZNKSs13find_first_ofERKSsy @ 804
;	std::string::find_first_of(char, unsigned long long) const
	_ZNKSs13find_first_ofEcy @ 805
;	std::string::get_allocator() const
	_ZNKSs13get_allocatorEv @ 806
;	std::string::_M_check_length(unsigned long long, unsigned long long, char const*) const
	_ZNKSs15_M_check_lengthEyyPKc @ 807
;	std::string::find_last_not_of(char const*, unsigned long long) const
	_ZNKSs16find_last_not_ofEPKcy @ 808
;	std::string::find_last_not_of(char const*, unsigned long long, unsigned long long) const
	_ZNKSs16find_last_not_ofEPKcyy @ 809
;	std::string::find_last_not_of(std::string const&, unsigned long long) const
	_ZNKSs16find_last_not_ofERKSsy @ 810
;	std::string::find_last_not_of(char, unsigned long long) const
	_ZNKSs16find_last_not_ofEcy @ 811
;	std::string::find_first_not_of(char const*, unsigned long long) const
	_ZNKSs17find_first_not_ofEPKcy @ 812
;	std::string::find_first_not_of(char const*, unsigned long long, unsigned long long) const
	_ZNKSs17find_first_not_ofEPKcyy @ 813
;	std::string::find_first_not_of(std::string const&, unsigned long long) const
	_ZNKSs17find_first_not_ofERKSsy @ 814
;	std::string::find_first_not_of(char, unsigned long long) const
	_ZNKSs17find_first_not_ofEcy @ 815
;	std::string::at(unsigned long long) const
	_ZNKSs2atEy @ 816
;	std::string::end() const
	_ZNKSs3endEv @ 817
;	std::string::_Rep::_M_is_leaked() const
	_ZNKSs4_Rep12_M_is_leakedEv @ 818
;	std::string::_Rep::_M_is_shared() const
	_ZNKSs4_Rep12_M_is_sharedEv @ 819
;	std::string::back() const
	_ZNKSs4backEv @ 820
;	std::string::cend() const
	_ZNKSs4cendEv @ 821
;	std::string::copy(char*, unsigned long long, unsigned long long) const
	_ZNKSs4copyEPcyy @ 822
;	std::string::data() const
	_ZNKSs4dataEv @ 823
;	std::string::find(char const*, unsigned long long) const
	_ZNKSs4findEPKcy @ 824
;	std::string::find(char const*, unsigned long long, unsigned long long) const
	_ZNKSs4findEPKcyy @ 825
;	std::string::find(std::string const&, unsigned long long) const
	_ZNKSs4findERKSsy @ 826
;	std::string::find(char, unsigned long long) const
	_ZNKSs4findEcy @ 827
;	std::string::rend() const
	_ZNKSs4rendEv @ 828
;	std::string::size() const
	_ZNKSs4sizeEv @ 829
;	std::string::begin() const
	_ZNKSs5beginEv @ 830
;	std::string::c_str() const
	_ZNKSs5c_strEv @ 831
;	std::string::crend() const
	_ZNKSs5crendEv @ 832
;	std::string::empty() const
	_ZNKSs5emptyEv @ 833
;	std::string::front() const
	_ZNKSs5frontEv @ 834
;	std::string::rfind(char const*, unsigned long long) const
	_ZNKSs5rfindEPKcy @ 835
;	std::string::rfind(char const*, unsigned long long, unsigned long long) const
	_ZNKSs5rfindEPKcyy @ 836
;	std::string::rfind(std::string const&, unsigned long long) const
	_ZNKSs5rfindERKSsy @ 837
;	std::string::rfind(char, unsigned long long) const
	_ZNKSs5rfindEcy @ 838
;	std::string::_M_rep() const
	_ZNKSs6_M_repEv @ 839
;	std::string::cbegin() const
	_ZNKSs6cbeginEv @ 840
;	std::string::length() const
	_ZNKSs6lengthEv @ 841
;	std::string::rbegin() const
	_ZNKSs6rbeginEv @ 842
;	std::string::substr(unsigned long long, unsigned long long) const
	_ZNKSs6substrEyy @ 843
;	std::string::_M_data() const
	_ZNKSs7_M_dataEv @ 844
;	std::string::_M_iend() const
	_ZNKSs7_M_iendEv @ 845
;	std::string::compare(char const*) const
	_ZNKSs7compareEPKc @ 846
;	std::string::compare(std::string const&) const
	_ZNKSs7compareERKSs @ 847
;	std::string::compare(unsigned long long, unsigned long long, char const*) const
	_ZNKSs7compareEyyPKc @ 848
;	std::string::compare(unsigned long long, unsigned long long, char const*, unsigned long long) const
	_ZNKSs7compareEyyPKcy @ 849
;	std::string::compare(unsigned long long, unsigned long long, std::string const&) const
	_ZNKSs7compareEyyRKSs @ 850
;	std::string::compare(unsigned long long, unsigned long long, std::string const&, unsigned long long, unsigned long long) const
	_ZNKSs7compareEyyRKSsyy @ 851
;	std::string::crbegin() const
	_ZNKSs7crbeginEv @ 852
;	std::string::_M_check(unsigned long long, char const*) const
	_ZNKSs8_M_checkEyPKc @ 853
;	std::string::_M_limit(unsigned long long, unsigned long long) const
	_ZNKSs8_M_limitEyy @ 854
;	std::string::capacity() const
	_ZNKSs8capacityEv @ 855
;	std::string::max_size() const
	_ZNKSs8max_sizeEv @ 856
;	std::string::_M_ibegin() const
	_ZNKSs9_M_ibeginEv @ 857
;	std::string::operator[](unsigned long long) const
	_ZNKSsixEy @ 858
;	std::bad_typeid::what() const
	_ZNKSt10bad_typeid4whatEv @ 859
;	std::logic_error::what() const
	_ZNKSt11logic_error4whatEv @ 860
;	std::bad_exception::what() const
	_ZNKSt13bad_exception4whatEv @ 861
;	std::random_device::_M_getentropy() const
	_ZNKSt13random_device13_M_getentropyEv @ 862
;	std::runtime_error::what() const
	_ZNKSt13runtime_error4whatEv @ 863
;	std::__exception_ptr::exception_ptr::__cxa_exception_type() const
	_ZNKSt15__exception_ptr13exception_ptr20__cxa_exception_typeEv @ 864
;	std::__exception_ptr::exception_ptr::_M_get() const
	_ZNKSt15__exception_ptr13exception_ptr6_M_getEv @ 865
;	std::__exception_ptr::exception_ptr::operator void (std::__exception_ptr::exception_ptr::*)()() const
	_ZNKSt15__exception_ptr13exception_ptrcvMS0_FvvEEv @ 866
;	std::__exception_ptr::exception_ptr::operator!() const
	_ZNKSt15__exception_ptr13exception_ptrntEv @ 867
;	std::bad_array_new_length::what() const
	_ZNKSt20bad_array_new_length4whatEv @ 868
;	std::_V2::error_category::_M_message(int) const
	_ZNKSt3_V214error_category10_M_messageEi @ 869
;	std::__cxx11::basic_string<char, std::char_traits<char>, std::allocator<char> >::_M_disjunct(char const*) const
	_ZNKSt7__cxx1112basic_stringIcSt11char_traitsIcESaIcEE11_M_disjunctEPKc @ 870
;	std::__cxx11::basic_string<char, std::char_traits<char>, std::allocator<char> >::_M_is_local() const
	_ZNKSt7__cxx1112basic_stringIcSt11char_traitsIcESaIcEE11_M_is_localEv @ 871
;	std::__cxx11::basic_string<char, std::char_traits<char>, std::allocator<char> >::find_last_of(char const*, unsigned long long) const
	_ZNKSt7__cxx1112basic_stringIcSt11char_traitsIcESaIcEE12find_last_ofEPKcy @ 872
;	std::__cxx11::basic_string<char, std::char_traits<char>, std::allocator<char> >::find_last_of(char const*, unsigned long long, unsigned long long) const
	_ZNKSt7__cxx1112basic_stringIcSt11char_traitsIcESaIcEE12find_last_ofEPKcyy @ 873
;	std::__cxx11::basic_string<char, std::char_traits<char>, std::allocator<char> >::find_last_of(std::__cxx11::basic_string<char, std::char_traits<char>, std::allocator<char> > const&, unsigned long long) const
	_ZNKSt7__cxx1112basic_stringIcSt11char_traitsIcESaIcEE12find_last_ofERKS4_y @ 874
;	std::__cxx11::basic_string<char, std::char_traits<char>, std::allocator<char> >::find_last_of(char, unsigned long long) const
	_ZNKSt7__cxx1112basic_stringIcSt11char_traitsIcESaIcEE12find_last_ofEcy @ 875
;	std::__cxx11::basic_string<char, std::char_traits<char>, std::allocator<char> >::_M_local_data() const
	_ZNKSt7__cxx1112basic_stringIcSt11char_traitsIcESaIcEE13_M_local_dataEv @ 876
;	std::__cxx11::basic_string<char, std::char_traits<char>, std::allocator<char> >::find_first_of(char const*, unsigned long long) const
	_ZNKSt7__cxx1112basic_stringIcSt11char_traitsIcESaIcEE13find_first_ofEPKcy @ 877
;	std::__cxx11::basic_string<char, std::char_traits<char>, std::allocator<char> >::find_first_of(char const*, unsigned long long, unsigned long long) const
	_ZNKSt7__cxx1112basic_stringIcSt11char_traitsIcESaIcEE13find_first_ofEPKcyy @ 878
;	std::__cxx11::basic_string<char, std::char_traits<char>, std::allocator<char> >::find_first_of(std::__cxx11::basic_string<char, std::char_traits<char>, std::allocator<char> > const&, unsigned long long) const
	_ZNKSt7__cxx1112basic_stringIcSt11char_traitsIcESaIcEE13find_first_ofERKS4_y @ 879
;	std::__cxx11::basic_string<char, std::char_traits<char>, std::allocator<char> >::find_first_of(char, unsigned long long) const
	_ZNKSt7__cxx1112basic_stringIcSt11char_traitsIcESaIcEE13find_first_ofEcy @ 880
;	std::__cxx11::basic_string<char, std::char_traits<char>, std::allocator<char> >::get_allocator() const
	_ZNKSt7__cxx1112basic_stringIcSt11char_traitsIcESaIcEE13get_allocatorEv @ 881
;	std::__cxx11::basic_string<char, std::char_traits<char>, std::allocator<char> >::_M_check_length(unsigned long long, unsigned long long, char const*) const
	_ZNKSt7__cxx1112basic_stringIcSt11char_traitsIcESaIcEE15_M_check_lengthEyyPKc @ 882
;	std::__cxx11::basic_string<char, std::char_traits<char>, std::allocator<char> >::_M_get_allocator() const
	_ZNKSt7__cxx1112basic_stringIcSt11char_traitsIcESaIcEE16_M_get_allocatorEv @ 883
;	std::__cxx11::basic_string<char, std::char_traits<char>, std::allocator<char> >::find_last_not_of(char const*, unsigned long long) const
	_ZNKSt7__cxx1112basic_stringIcSt11char_traitsIcESaIcEE16find_last_not_ofEPKcy @ 884
;	std::__cxx11::basic_string<char, std::char_traits<char>, std::allocator<char> >::find_last_not_of(char const*, unsigned long long, unsigned long long) const
	_ZNKSt7__cxx1112basic_stringIcSt11char_traitsIcESaIcEE16find_last_not_ofEPKcyy @ 885
;	std::__cxx11::basic_string<char, std::char_traits<char>, std::allocator<char> >::find_last_not_of(std::__cxx11::basic_string<char, std::char_traits<char>, std::allocator<char> > const&, unsigned long long) const
	_ZNKSt7__cxx1112basic_stringIcSt11char_traitsIcESaIcEE16find_last_not_ofERKS4_y @ 886
;	std::__cxx11::basic_string<char, std::char_traits<char>, std::allocator<char> >::find_last_not_of(char, unsigned long long) const
	_ZNKSt7__cxx1112basic_stringIcSt11char_traitsIcESaIcEE16find_last_not_ofEcy @ 887
;	std::__cxx11::basic_string<char, std::char_traits<char>, std::allocator<char> >::find_first_not_of(char const*, unsigned long long) const
	_ZNKSt7__cxx1112basic_stringIcSt11char_traitsIcESaIcEE17find_first_not_ofEPKcy @ 888
;	std::__cxx11::basic_string<char, std::char_traits<char>, std::allocator<char> >::find_first_not_of(char const*, unsigned long long, unsigned long long) const
	_ZNKSt7__cxx1112basic_stringIcSt11char_traitsIcESaIcEE17find_first_not_ofEPKcyy @ 889
;	std::__cxx11::basic_string<char, std::char_traits<char>, std::allocator<char> >::find_first_not_of(std::__cxx11::basic_string<char, std::char_traits<char>, std::allocator<char> > const&, unsigned long long) const
	_ZNKSt7__cxx1112basic_stringIcSt11char_traitsIcESaIcEE17find_first_not_ofERKS4_y @ 890
;	std::__cxx11::basic_string<char, std::char_traits<char>, std::allocator<char> >::find_first_not_of(char, unsigned long long) const
	_ZNKSt7__cxx1112basic_stringIcSt11char_traitsIcESaIcEE17find_first_not_ofEcy @ 891
;	std::__cxx11::basic_string<char, std::char_traits<char>, std::allocator<char> >::at(unsigned long long) const
	_ZNKSt7__cxx1112basic_stringIcSt11char_traitsIcESaIcEE2atEy @ 892
;	std::__cxx11::basic_string<char, std::char_traits<char>, std::allocator<char> >::end() const
	_ZNKSt7__cxx1112basic_stringIcSt11char_traitsIcESaIcEE3endEv @ 893
;	std::__cxx11::basic_string<char, std::char_traits<char>, std::allocator<char> >::back() const
	_ZNKSt7__cxx1112basic_stringIcSt11char_traitsIcESaIcEE4backEv @ 894
;	std::__cxx11::basic_string<char, std::char_traits<char>, std::allocator<char> >::cend() const
	_ZNKSt7__cxx1112basic_stringIcSt11char_traitsIcESaIcEE4cendEv @ 895
;	std::__cxx11::basic_string<char, std::char_traits<char>, std::allocator<char> >::copy(char*, unsigned long long, unsigned long long) const
	_ZNKSt7__cxx1112basic_stringIcSt11char_traitsIcESaIcEE4copyEPcyy @ 896
;	std::__cxx11::basic_string<char, std::char_traits<char>, std::allocator<char> >::data() const
	_ZNKSt7__cxx1112basic_stringIcSt11char_traitsIcESaIcEE4dataEv @ 897
;	std::__cxx11::basic_string<char, std::char_traits<char>, std::allocator<char> >::find(char const*, unsigned long long) const
	_ZNKSt7__cxx1112basic_stringIcSt11char_traitsIcESaIcEE4findEPKcy @ 898
;	std::__cxx11::basic_string<char, std::char_traits<char>, std::allocator<char> >::find(char const*, unsigned long long, unsigned long long) const
	_ZNKSt7__cxx1112basic_stringIcSt11char_traitsIcESaIcEE4findEPKcyy @ 899
;	std::__cxx11::basic_string<char, std::char_traits<char>, std::allocator<char> >::find(std::__cxx11::basic_string<char, std::char_traits<char>, std::allocator<char> > const&, unsigned long long) const
	_ZNKSt7__cxx1112basic_stringIcSt11char_traitsIcESaIcEE4findERKS4_y @ 900
;	std::__cxx11::basic_string<char, std::char_traits<char>, std::allocator<char> >::find(char, unsigned long long) const
	_ZNKSt7__cxx1112basic_stringIcSt11char_traitsIcESaIcEE4findEcy @ 901
;	std::__cxx11::basic_string<char, std::char_traits<char>, std::allocator<char> >::rend() const
	_ZNKSt7__cxx1112basic_stringIcSt11char_traitsIcESaIcEE4rendEv @ 902
;	std::__cxx11::basic_string<char, std::char_traits<char>, std::allocator<char> >::size() const
	_ZNKSt7__cxx1112basic_stringIcSt11char_traitsIcESaIcEE4sizeEv @ 903
;	std::__cxx11::basic_string<char, std::char_traits<char>, std::allocator<char> >::begin() const
	_ZNKSt7__cxx1112basic_stringIcSt11char_traitsIcESaIcEE5beginEv @ 904
;	std::__cxx11::basic_string<char, std::char_traits<char>, std::allocator<char> >::c_str() const
	_ZNKSt7__cxx1112basic_stringIcSt11char_traitsIcESaIcEE5c_strEv @ 905
;	std::__cxx11::basic_string<char, std::char_traits<char>, std::allocator<char> >::crend() const
	_ZNKSt7__cxx1112basic_stringIcSt11char_traitsIcESaIcEE5crendEv @ 906
;	std::__cxx11::basic_string<char, std::char_traits<char>, std::allocator<char> >::empty() const
	_ZNKSt7__cxx1112basic_stringIcSt11char_traitsIcESaIcEE5emptyEv @ 907
;	std::__cxx11::basic_string<char, std::char_traits<char>, std::allocator<char> >::front() const
	_ZNKSt7__cxx1112basic_stringIcSt11char_traitsIcESaIcEE5frontEv @ 908
;	std::__cxx11::basic_string<char, std::char_traits<char>, std::allocator<char> >::rfind(char const*, unsigned long long) const
	_ZNKSt7__cxx1112basic_stringIcSt11char_traitsIcESaIcEE5rfindEPKcy @ 909
;	std::__cxx11::basic_string<char, std::char_traits<char>, std::allocator<char> >::rfind(char const*, unsigned long long, unsigned long long) const
	_ZNKSt7__cxx1112basic_stringIcSt11char_traitsIcESaIcEE5rfindEPKcyy @ 910
;	std::__cxx11::basic_string<char, std::char_traits<char>, std::allocator<char> >::rfind(std::__cxx11::basic_string<char, std::char_traits<char>, std::allocator<char> > const&, unsigned long long) const
	_ZNKSt7__cxx1112basic_stringIcSt11char_traitsIcESaIcEE5rfindERKS4_y @ 911
;	std::__cxx11::basic_string<char, std::char_traits<char>, std::allocator<char> >::rfind(char, unsigned long long) const
	_ZNKSt7__cxx1112basic_stringIcSt11char_traitsIcESaIcEE5rfindEcy @ 912
;	std::__cxx11::basic_string<char, std::char_traits<char>, std::allocator<char> >::cbegin() const
	_ZNKSt7__cxx1112basic_stringIcSt11char_traitsIcESaIcEE6cbeginEv @ 913
;	std::__cxx11::basic_string<char, std::char_traits<char>, std::allocator<char> >::length() const
	_ZNKSt7__cxx1112basic_stringIcSt11char_traitsIcESaIcEE6lengthEv @ 914
;	std::__cxx11::basic_string<char, std::char_traits<char>, std::allocator<char> >::rbegin() const
	_ZNKSt7__cxx1112basic_stringIcSt11char_traitsIcESaIcEE6rbeginEv @ 915
;	std::__cxx11::basic_string<char, std::char_traits<char>, std::allocator<char> >::substr(unsigned long long, unsigned long long) const
	_ZNKSt7__cxx1112basic_stringIcSt11char_traitsIcESaIcEE6substrEyy @ 916
;	std::__cxx11::basic_string<char, std::char_traits<char>, std::allocator<char> >::_M_data() const
	_ZNKSt7__cxx1112basic_stringIcSt11char_traitsIcESaIcEE7_M_dataEv @ 917
;	std::__cxx11::basic_string<char, std::char_traits<char>, std::allocator<char> >::compare(char const*) const
	_ZNKSt7__cxx1112basic_stringIcSt11char_traitsIcESaIcEE7compareEPKc @ 918
;	std::__cxx11::basic_string<char, std::char_traits<char>, std::allocator<char> >::compare(std::__cxx11::basic_string<char, std::char_traits<char>, std::allocator<char> > const&) const
	_ZNKSt7__cxx1112basic_stringIcSt11char_traitsIcESaIcEE7compareERKS4_ @ 919
;	std::__cxx11::basic_string<char, std::char_traits<char>, std::allocator<char> >::compare(unsigned long long, unsigned long long, char const*) const
	_ZNKSt7__cxx1112basic_stringIcSt11char_traitsIcESaIcEE7compareEyyPKc @ 920
;	std::__cxx11::basic_string<char, std::char_traits<char>, std::allocator<char> >::compare(unsigned long long, unsigned long long, char const*, unsigned long long) const
	_ZNKSt7__cxx1112basic_stringIcSt11char_traitsIcESaIcEE7compareEyyPKcy @ 921
;	std::__cxx11::basic_string<char, std::char_traits<char>, std::allocator<char> >::compare(unsigned long long, unsigned long long, std::__cxx11::basic_string<char, std::char_traits<char>, std::allocator<char> > const&) const
	_ZNKSt7__cxx1112basic_stringIcSt11char_traitsIcESaIcEE7compareEyyRKS4_ @ 922
;	std::__cxx11::basic_string<char, std::char_traits<char>, std::allocator<char> >::compare(unsigned long long, unsigned long long, std::__cxx11::basic_string<char, std::char_traits<char>, std::allocator<char> > const&, unsigned long long, unsigned long long) const
	_ZNKSt7__cxx1112basic_stringIcSt11char_traitsIcESaIcEE7compareEyyRKS4_yy @ 923
;	std::__cxx11::basic_string<char, std::char_traits<char>, std::allocator<char> >::crbegin() const
	_ZNKSt7__cxx1112basic_stringIcSt11char_traitsIcESaIcEE7crbeginEv @ 924
;	std::__cxx11::basic_string<char, std::char_traits<char>, std::allocator<char> >::_M_check(unsigned long long, char const*) const
	_ZNKSt7__cxx1112basic_stringIcSt11char_traitsIcESaIcEE8_M_checkEyPKc @ 925
;	std::__cxx11::basic_string<char, std::char_traits<char>, std::allocator<char> >::_M_limit(unsigned long long, unsigned long long) const
	_ZNKSt7__cxx1112basic_stringIcSt11char_traitsIcESaIcEE8_M_limitEyy @ 926
;	std::__cxx11::basic_string<char, std::char_traits<char>, std::allocator<char> >::capacity() const
	_ZNKSt7__cxx1112basic_stringIcSt11char_traitsIcESaIcEE8capacityEv @ 927
;	std::__cxx11::basic_string<char, std::char_traits<char>, std::allocator<char> >::max_size() const
	_ZNKSt7__cxx1112basic_stringIcSt11char_traitsIcESaIcEE8max_sizeEv @ 928
;	std::__cxx11::basic_string<char, std::char_traits<char>, std::allocator<char> >::operator[](unsigned long long) const
	_ZNKSt7__cxx1112basic_stringIcSt11char_traitsIcESaIcEEixEy @ 929
;	std::bad_cast::what() const
	_ZNKSt8bad_cast4whatEv @ 930
;	std::bad_alloc::what() const
	_ZNKSt9bad_alloc4whatEv @ 931
;	std::exception::what() const
	_ZNKSt9exception4whatEv @ 932
;	std::type_info::__do_catch(std::type_info const*, void**, unsigned int) const
	_ZNKSt9type_info10__do_catchEPKS_PPvj @ 933
;	std::type_info::__do_upcast(__cxxabiv1::__class_type_info const*, void**) const
	_ZNKSt9type_info11__do_upcastEPKN10__cxxabiv117__class_type_infoEPPv @ 934
;	std::type_info::__is_pointer_p() const
	_ZNKSt9type_info14__is_pointer_pEv @ 935
;	std::type_info::__is_function_p() const
	_ZNKSt9type_info15__is_function_pEv @ 936
;	std::type_info::__equal(std::type_info const&) const
	_ZNKSt9type_info7__equalERKS_ @ 937
;	std::type_info::operator==(std::type_info const&) const
	_ZNKSt9type_infoeqERKS_ @ 938
;	std::string::_S_compare(unsigned long long, unsigned long long)
	_ZNSs10_S_compareEyy @ 939
;	std::string::_Alloc_hider::_Alloc_hider(char*, std::allocator<char> const&)
	_ZNSs12_Alloc_hiderC1EPcRKSaIcE @ 940
;	std::string::_Alloc_hider::_Alloc_hider(char*, std::allocator<char> const&)
	_ZNSs12_Alloc_hiderC2EPcRKSaIcE @ 941
;	std::string::_M_leak_hard()
	_ZNSs12_M_leak_hardEv @ 942
;	std::string::_S_construct(unsigned long long, char, std::allocator<char> const&)
	_ZNSs12_S_constructEycRKSaIcE @ 943
;	char* std::string::_S_construct<__gnu_cxx::__normal_iterator<char*, std::string> >(__gnu_cxx::__normal_iterator<char*, std::string>, __gnu_cxx::__normal_iterator<char*, std::string>, std::allocator<char> const&, std::forward_iterator_tag)
	_ZNSs12_S_constructIN9__gnu_cxx17__normal_iteratorIPcSsEEEES2_T_S4_RKSaIcESt20forward_iterator_tag @ 944
;	char* std::string::_S_construct<char const*>(char const*, char const*, std::allocator<char> const&, std::forward_iterator_tag)
	_ZNSs12_S_constructIPKcEEPcT_S3_RKSaIcESt20forward_iterator_tag @ 945
;	char* std::string::_S_construct<char*>(char*, char*, std::allocator<char> const&, std::forward_iterator_tag)
	_ZNSs12_S_constructIPcEES0_T_S1_RKSaIcESt20forward_iterator_tag @ 946
;	std::string::_S_empty_rep()
	_ZNSs12_S_empty_repEv @ 947
;	std::string::_S_copy_chars(char*, __gnu_cxx::__normal_iterator<char const*, std::string>, __gnu_cxx::__normal_iterator<char const*, std::string>)
	_ZNSs13_S_copy_charsEPcN9__gnu_cxx17__normal_iteratorIPKcSsEES4_ @ 948
;	std::string::_S_copy_chars(char*, __gnu_cxx::__normal_iterator<char*, std::string>, __gnu_cxx::__normal_iterator<char*, std::string>)
	_ZNSs13_S_copy_charsEPcN9__gnu_cxx17__normal_iteratorIS_SsEES2_ @ 949
;	std::string::_S_copy_chars(char*, char const*, char const*)
	_ZNSs13_S_copy_charsEPcPKcS1_ @ 950
;	std::string::_S_copy_chars(char*, char*, char*)
	_ZNSs13_S_copy_charsEPcS_S_ @ 951
;	std::string::shrink_to_fit()
	_ZNSs13shrink_to_fitEv @ 952
;	std::string::_M_replace_aux(unsigned long long, unsigned long long, unsigned long long, char)
	_ZNSs14_M_replace_auxEyyyc @ 953
;	std::string::_M_replace_safe(unsigned long long, unsigned long long, char const*, unsigned long long)
	_ZNSs15_M_replace_safeEyyPKcy @ 954
;	std::string::_S_construct_aux_2(unsigned long long, char, std::allocator<char> const&)
	_ZNSs18_S_construct_aux_2EycRKSaIcE @ 955
;	std::string::at(unsigned long long)
	_ZNSs2atEy @ 956
;	std::string::end()
	_ZNSs3endEv @ 957
;	std::string::_Rep::_M_destroy(std::allocator<char> const&)
	_ZNSs4_Rep10_M_destroyERKSaIcE @ 958
;	std::string::_Rep::_M_dispose(std::allocator<char> const&)
	_ZNSs4_Rep10_M_disposeERKSaIcE @ 959
;	std::string::_Rep::_M_refcopy()
	_ZNSs4_Rep10_M_refcopyEv @ 960
;	std::string::_Rep::_M_refdata()
	_ZNSs4_Rep10_M_refdataEv @ 961
;	std::string::_Rep::_S_max_size
	_ZNSs4_Rep11_S_max_sizeE @ 962 DATA
;	std::string::_Rep::_S_terminal
	_ZNSs4_Rep11_S_terminalE @ 963 DATA
;	std::string::_Rep::_S_empty_rep()
	_ZNSs4_Rep12_S_empty_repEv @ 964
;	std::string::_Rep::_M_set_leaked()
	_ZNSs4_Rep13_M_set_leakedEv @ 965
;	std::string::_Rep::_M_set_sharable()
	_ZNSs4_Rep15_M_set_sharableEv @ 966
;	std::string::_Rep::_S_empty_rep_storage
	_ZNSs4_Rep20_S_empty_rep_storageE @ 967 DATA
;	std::string::_Rep::_M_set_length_and_sharable(unsigned long long)
	_ZNSs4_Rep26_M_set_length_and_sharableEy @ 968
;	std::string::_Rep::_M_grab(std::allocator<char> const&, std::allocator<char> const&)
	_ZNSs4_Rep7_M_grabERKSaIcES2_ @ 969
;	std::string::_Rep::_M_clone(std::allocator<char> const&, unsigned long long)
	_ZNSs4_Rep8_M_cloneERKSaIcEy @ 970
;	std::string::_Rep::_S_create(unsigned long long, unsigned long long, std::allocator<char> const&)
	_ZNSs4_Rep9_S_createEyyRKSaIcE @ 971
;	std::string::back()
	_ZNSs4backEv @ 972
;	std::string::npos
	_ZNSs4nposE @ 973 DATA
;	std::string::rend()
	_ZNSs4rendEv @ 974
;	std::string::swap(std::string&)
	_ZNSs4swapERSs @ 975
;	std::string::begin()
	_ZNSs5beginEv @ 976
;	std::string::clear()
	_ZNSs5clearEv @ 977
;	std::string::erase(__gnu_cxx::__normal_iterator<char*, std::string>)
	_ZNSs5eraseEN9__gnu_cxx17__normal_iteratorIPcSsEE @ 978
;	std::string::erase(__gnu_cxx::__normal_iterator<char*, std::string>, __gnu_cxx::__normal_iterator<char*, std::string>)
	_ZNSs5eraseEN9__gnu_cxx17__normal_iteratorIPcSsEES2_ @ 979
;	std::string::erase(unsigned long long, unsigned long long)
	_ZNSs5eraseEyy @ 980
;	std::string::front()
	_ZNSs5frontEv @ 981
;	std::string::append(char const*)
	_ZNSs6appendEPKc @ 982
;	std::string::append(char const*, unsigned long long)
	_ZNSs6appendEPKcy @ 983
;	std::string::append(std::string const&)
	_ZNSs6appendERKSs @ 984
;	std::string::append(std::string const&, unsigned long long, unsigned long long)
	_ZNSs6appendERKSsyy @ 985
;	std::string::append(std::initializer_list<char>)
	_ZNSs6appendESt16initializer_listIcE @ 986
;	std::string::append(unsigned long long, char)
	_ZNSs6appendEyc @ 987
;	std::string::assign(std::string&&)
	_ZNSs6assignEOSs @ 988
;	std::string::assign(char const*)
	_ZNSs6assignEPKc @ 989
;	std::string::assign(char const*, unsigned long long)
	_ZNSs6assignEPKcy @ 990
;	std::string::assign(std::string const&)
	_ZNSs6assignERKSs @ 991
;	std::string::assign(std::string const&, unsigned long long, unsigned long long)
	_ZNSs6assignERKSsyy @ 992
;	std::string::assign(std::initializer_list<char>)
	_ZNSs6assignESt16initializer_listIcE @ 993
;	std::string::assign(unsigned long long, char)
	_ZNSs6assignEyc @ 994
;	std::string::insert(__gnu_cxx::__normal_iterator<char*, std::string>, std::initializer_list<char>)
	_ZNSs6insertEN9__gnu_cxx17__normal_iteratorIPcSsEESt16initializer_listIcE @ 995
;	std::string::insert(__gnu_cxx::__normal_iterator<char*, std::string>, char)
	_ZNSs6insertEN9__gnu_cxx17__normal_iteratorIPcSsEEc @ 996
;	std::string::insert(__gnu_cxx::__normal_iterator<char*, std::string>, unsigned long long, char)
	_ZNSs6insertEN9__gnu_cxx17__normal_iteratorIPcSsEEyc @ 997
;	std::string::insert(unsigned long long, char const*)
	_ZNSs6insertEyPKc @ 998
;	std::string::insert(unsigned long long, char const*, unsigned long long)
	_ZNSs6insertEyPKcy @ 999
;	std::string::insert(unsigned long long, std::string const&)
	_ZNSs6insertEyRKSs @ 1000
;	std::string::insert(unsigned long long, std::string const&, unsigned long long, unsigned long long)
	_ZNSs6insertEyRKSsyy @ 1001
;	std::string::insert(unsigned long long, unsigned long long, char)
	_ZNSs6insertEyyc @ 1002
;	std::string::rbegin()
	_ZNSs6rbeginEv @ 1003
;	std::string::resize(unsigned long long)
	_ZNSs6resizeEy @ 1004
;	std::string::resize(unsigned long long, char)
	_ZNSs6resizeEyc @ 1005
;	std::string::_M_copy(char*, char const*, unsigned long long)
	_ZNSs7_M_copyEPcPKcy @ 1006
;	std::string::_M_data(char*)
	_ZNSs7_M_dataEPc @ 1007
;	std::string::_M_leak()
	_ZNSs7_M_leakEv @ 1008
;	std::string::_M_move(char*, char const*, unsigned long long)
	_ZNSs7_M_moveEPcPKcy @ 1009
;	std::string::replace(__gnu_cxx::__normal_iterator<char*, std::string>, __gnu_cxx::__normal_iterator<char*, std::string>, __gnu_cxx::__normal_iterator<char const*, std::string>, __gnu_cxx::__normal_iterator<char const*, std::string>)
	_ZNSs7replaceEN9__gnu_cxx17__normal_iteratorIPcSsEES2_NS0_IPKcSsEES5_ @ 1010
;	std::string::replace(__gnu_cxx::__normal_iterator<char*, std::string>, __gnu_cxx::__normal_iterator<char*, std::string>, char const*)
	_ZNSs7replaceEN9__gnu_cxx17__normal_iteratorIPcSsEES2_PKc @ 1011
;	std::string::replace(__gnu_cxx::__normal_iterator<char*, std::string>, __gnu_cxx::__normal_iterator<char*, std::string>, char const*, char const*)
	_ZNSs7replaceEN9__gnu_cxx17__normal_iteratorIPcSsEES2_PKcS4_ @ 1012
;	std::string::replace(__gnu_cxx::__normal_iterator<char*, std::string>, __gnu_cxx::__normal_iterator<char*, std::string>, char const*, unsigned long long)
	_ZNSs7replaceEN9__gnu_cxx17__normal_iteratorIPcSsEES2_PKcy @ 1013
;	std::string::replace(__gnu_cxx::__normal_iterator<char*, std::string>, __gnu_cxx::__normal_iterator<char*, std::string>, std::string const&)
	_ZNSs7replaceEN9__gnu_cxx17__normal_iteratorIPcSsEES2_RKSs @ 1014
;	std::string::replace(__gnu_cxx::__normal_iterator<char*, std::string>, __gnu_cxx::__normal_iterator<char*, std::string>, char*, char*)
	_ZNSs7replaceEN9__gnu_cxx17__normal_iteratorIPcSsEES2_S1_S1_ @ 1015
;	std::string::replace(__gnu_cxx::__normal_iterator<char*, std::string>, __gnu_cxx::__normal_iterator<char*, std::string>, __gnu_cxx::__normal_iterator<char*, std::string>, __gnu_cxx::__normal_iterator<char*, std::string>)
	_ZNSs7replaceEN9__gnu_cxx17__normal_iteratorIPcSsEES2_S2_S2_ @ 1016
;	std::string::replace(__gnu_cxx::__normal_iterator<char*, std::string>, __gnu_cxx::__normal_iterator<char*, std::string>, std::initializer_list<char>)
	_ZNSs7replaceEN9__gnu_cxx17__normal_iteratorIPcSsEES2_St16initializer_listIcE @ 1017
;	std::string::replace(__gnu_cxx::__normal_iterator<char*, std::string>, __gnu_cxx::__normal_iterator<char*, std::string>, unsigned long long, char)
	_ZNSs7replaceEN9__gnu_cxx17__normal_iteratorIPcSsEES2_yc @ 1018
;	std::string::replace(unsigned long long, unsigned long long, char const*)
	_ZNSs7replaceEyyPKc @ 1019
;	std::string::replace(unsigned long long, unsigned long long, char const*, unsigned long long)
	_ZNSs7replaceEyyPKcy @ 1020
;	std::string::replace(unsigned long long, unsigned long long, std::string const&)
	_ZNSs7replaceEyyRKSs @ 1021
;	std::string::replace(unsigned long long, unsigned long long, std::string const&, unsigned long long, unsigned long long)
	_ZNSs7replaceEyyRKSsyy @ 1022
;	std::string::replace(unsigned long long, unsigned long long, unsigned long long, char)
	_ZNSs7replaceEyyyc @ 1023
;	std::string::reserve()
	_ZNSs7reserveEv @ 1024
;	std::string::reserve(unsigned long long)
	_ZNSs7reserveEy @ 1025
;	std::string::pop_back()
	_ZNSs8pop_backEv @ 1026
;	std::string::_M_assign(char*, unsigned long long, char)
	_ZNSs9_M_assignEPcyc @ 1027
;	std::string::_M_mutate(unsigned long long, unsigned long long, unsigned long long)
	_ZNSs9_M_mutateEyyy @ 1028
;	std::string::push_back(char)
	_ZNSs9push_backEc @ 1029
;	std::basic_string<char, std::char_traits<char>, std::allocator<char> >::basic_string(std::string&&)
	_ZNSsC1EOSs @ 1030
;	std::basic_string<char, std::char_traits<char>, std::allocator<char> >::basic_string(std::string&&, std::allocator<char> const&)
	_ZNSsC1EOSsRKSaIcE @ 1031
;	std::basic_string<char, std::char_traits<char>, std::allocator<char> >::basic_string(char const*, std::allocator<char> const&)
	_ZNSsC1EPKcRKSaIcE @ 1032
;	std::basic_string<char, std::char_traits<char>, std::allocator<char> >::basic_string(char const*, unsigned long long, std::allocator<char> const&)
	_ZNSsC1EPKcyRKSaIcE @ 1033
;	std::basic_string<char, std::char_traits<char>, std::allocator<char> >::basic_string(std::allocator<char> const&)
	_ZNSsC1ERKSaIcE @ 1034
;	std::basic_string<char, std::char_traits<char>, std::allocator<char> >::basic_string(std::string const&)
	_ZNSsC1ERKSs @ 1035
;	std::basic_string<char, std::char_traits<char>, std::allocator<char> >::basic_string(std::string const&, std::allocator<char> const&)
	_ZNSsC1ERKSsRKSaIcE @ 1036
;	std::basic_string<char, std::char_traits<char>, std::allocator<char> >::basic_string(std::string const&, unsigned long long, std::allocator<char> const&)
	_ZNSsC1ERKSsyRKSaIcE @ 1037
;	std::basic_string<char, std::char_traits<char>, std::allocator<char> >::basic_string(std::string const&, unsigned long long, unsigned long long)
	_ZNSsC1ERKSsyy @ 1038
;	std::basic_string<char, std::char_traits<char>, std::allocator<char> >::basic_string(std::string const&, unsigned long long, unsigned long long, std::allocator<char> const&)
	_ZNSsC1ERKSsyyRKSaIcE @ 1039
;	std::basic_string<char, std::char_traits<char>, std::allocator<char> >::basic_string(std::initializer_list<char>, std::allocator<char> const&)
	_ZNSsC1ESt16initializer_listIcERKSaIcE @ 1040
;	std::basic_string<char, std::char_traits<char>, std::allocator<char> >::basic_string()
	_ZNSsC1Ev @ 1041
;	std::basic_string<char, std::char_traits<char>, std::allocator<char> >::basic_string(unsigned long long, char, std::allocator<char> const&)
	_ZNSsC1EycRKSaIcE @ 1042
;	std::basic_string<char, std::char_traits<char>, std::allocator<char> >::basic_string<__gnu_cxx::__normal_iterator<char*, std::string> >(__gnu_cxx::__normal_iterator<char*, std::string>, __gnu_cxx::__normal_iterator<char*, std::string>, std::allocator<char> const&)
	_ZNSsC1IN9__gnu_cxx17__normal_iteratorIPcSsEEEET_S4_RKSaIcE @ 1043
;	std::basic_string<char, std::char_traits<char>, std::allocator<char> >::basic_string<char const*>(char const*, char const*, std::allocator<char> const&)
	_ZNSsC1IPKcEET_S2_RKSaIcE @ 1044
;	std::basic_string<char, std::char_traits<char>, std::allocator<char> >::basic_string<char*>(char*, char*, std::allocator<char> const&)
	_ZNSsC1IPcEET_S1_RKSaIcE @ 1045
;	std::basic_string<char, std::char_traits<char>, std::allocator<char> >::basic_string(std::string&&)
	_ZNSsC2EOSs @ 1046
;	std::basic_string<char, std::char_traits<char>, std::allocator<char> >::basic_string(std::string&&, std::allocator<char> const&)
	_ZNSsC2EOSsRKSaIcE @ 1047
;	std::basic_string<char, std::char_traits<char>, std::allocator<char> >::basic_string(char const*, std::allocator<char> const&)
	_ZNSsC2EPKcRKSaIcE @ 1048
;	std::basic_string<char, std::char_traits<char>, std::allocator<char> >::basic_string(char const*, unsigned long long, std::allocator<char> const&)
	_ZNSsC2EPKcyRKSaIcE @ 1049
;	std::basic_string<char, std::char_traits<char>, std::allocator<char> >::basic_string(std::allocator<char> const&)
	_ZNSsC2ERKSaIcE @ 1050
;	std::basic_string<char, std::char_traits<char>, std::allocator<char> >::basic_string(std::string const&)
	_ZNSsC2ERKSs @ 1051
;	std::basic_string<char, std::char_traits<char>, std::allocator<char> >::basic_string(std::string const&, std::allocator<char> const&)
	_ZNSsC2ERKSsRKSaIcE @ 1052
;	std::basic_string<char, std::char_traits<char>, std::allocator<char> >::basic_string(std::string const&, unsigned long long, std::allocator<char> const&)
	_ZNSsC2ERKSsyRKSaIcE @ 1053
;	std::basic_string<char, std::char_traits<char>, std::allocator<char> >::basic_string(std::string const&, unsigned long long, unsigned long long)
	_ZNSsC2ERKSsyy @ 1054
;	std::basic_string<char, std::char_traits<char>, std::allocator<char> >::basic_string(std::string const&, unsigned long long, unsigned long long, std::allocator<char> const&)
	_ZNSsC2ERKSsyyRKSaIcE @ 1055
;	std::basic_string<char, std::char_traits<char>, std::allocator<char> >::basic_string(std::initializer_list<char>, std::allocator<char> const&)
	_ZNSsC2ESt16initializer_listIcERKSaIcE @ 1056
;	std::basic_string<char, std::char_traits<char>, std::allocator<char> >::basic_string()
	_ZNSsC2Ev @ 1057
;	std::basic_string<char, std::char_traits<char>, std::allocator<char> >::basic_string(unsigned long long, char, std::allocator<char> const&)
	_ZNSsC2EycRKSaIcE @ 1058
;	std::basic_string<char, std::char_traits<char>, std::allocator<char> >::basic_string<__gnu_cxx::__normal_iterator<char*, std::string> >(__gnu_cxx::__normal_iterator<char*, std::string>, __gnu_cxx::__normal_iterator<char*, std::string>, std::allocator<char> const&)
	_ZNSsC2IN9__gnu_cxx17__normal_iteratorIPcSsEEEET_S4_RKSaIcE @ 1059
;	std::basic_string<char, std::char_traits<char>, std::allocator<char> >::basic_string<char const*>(char const*, char const*, std::allocator<char> const&)
	_ZNSsC2IPKcEET_S2_RKSaIcE @ 1060
;	std::basic_string<char, std::char_traits<char>, std::allocator<char> >::basic_string<char*>(char*, char*, std::allocator<char> const&)
	_ZNSsC2IPcEET_S1_RKSaIcE @ 1061
;	std::basic_string<char, std::char_traits<char>, std::allocator<char> >::~basic_string()
	_ZNSsD1Ev @ 1062
;	std::basic_string<char, std::char_traits<char>, std::allocator<char> >::~basic_string()
	_ZNSsD2Ev @ 1063
;	std::string::operator=(std::string&&)
	_ZNSsaSEOSs @ 1064
;	std::string::operator=(char const*)
	_ZNSsaSEPKc @ 1065
;	std::string::operator=(std::string const&)
	_ZNSsaSERKSs @ 1066
;	std::string::operator=(std::initializer_list<char>)
	_ZNSsaSESt16initializer_listIcE @ 1067
;	std::string::operator=(char)
	_ZNSsaSEc @ 1068
;	std::string::operator[](unsigned long long)
	_ZNSsixEy @ 1069
;	std::string::operator+=(char const*)
	_ZNSspLEPKc @ 1070
;	std::string::operator+=(std::string const&)
	_ZNSspLERKSs @ 1071
;	std::string::operator+=(std::initializer_list<char>)
	_ZNSspLESt16initializer_listIcE @ 1072
;	std::string::operator+=(char)
	_ZNSspLEc @ 1073
;	std::bad_typeid::~bad_typeid()
	_ZNSt10bad_typeidD0Ev @ 1074
;	std::bad_typeid::~bad_typeid()
	_ZNSt10bad_typeidD1Ev @ 1075
;	std::bad_typeid::~bad_typeid()
	_ZNSt10bad_typeidD2Ev @ 1076
;	std::logic_error::logic_error(std::logic_error&&)
	_ZNSt11logic_errorC1EOS_ @ 1077
;	std::logic_error::logic_error(char const*)
	_ZNSt11logic_errorC1EPKc @ 1078
;	std::logic_error::logic_error(std::logic_error const&)
	_ZNSt11logic_errorC1ERKS_ @ 1079
;	std::logic_error::logic_error(std::string const&)
	_ZNSt11logic_errorC1ERKSs @ 1080
;	std::logic_error::logic_error(std::logic_error&&)
	_ZNSt11logic_errorC2EOS_ @ 1081
;	std::logic_error::logic_error(char const*)
	_ZNSt11logic_errorC2EPKc @ 1082
;	std::logic_error::logic_error(std::logic_error const&)
	_ZNSt11logic_errorC2ERKS_ @ 1083
;	std::logic_error::logic_error(std::string const&)
	_ZNSt11logic_errorC2ERKSs @ 1084
;	std::logic_error::~logic_error()
	_ZNSt11logic_errorD0Ev @ 1085
;	std::logic_error::~logic_error()
	_ZNSt11logic_errorD1Ev @ 1086
;	std::logic_error::~logic_error()
	_ZNSt11logic_errorD2Ev @ 1087
;	std::logic_error::operator=(std::logic_error&&)
	_ZNSt11logic_erroraSEOS_ @ 1088
;	std::logic_error::operator=(std::logic_error const&)
	_ZNSt11logic_erroraSERKS_ @ 1089
;	std::range_error::range_error(char const*)
	_ZNSt11range_errorC1EPKc @ 1090
;	std::range_error::range_error(std::string const&)
	_ZNSt11range_errorC1ERKSs @ 1091
;	std::range_error::range_error(char const*)
	_ZNSt11range_errorC2EPKc @ 1092
;	std::range_error::range_error(std::string const&)
	_ZNSt11range_errorC2ERKSs @ 1093
;	std::range_error::~range_error()
	_ZNSt11range_errorD0Ev @ 1094
;	std::range_error::~range_error()
	_ZNSt11range_errorD1Ev @ 1095
;	std::range_error::~range_error()
	_ZNSt11range_errorD2Ev @ 1096
;	std::__cow_string::__cow_string(std::__cow_string&&)
	_ZNSt12__cow_stringC1EOS_ @ 1097
;	std::__cow_string::__cow_string(char const*, unsigned long long)
	_ZNSt12__cow_stringC1EPKcy @ 1098
;	std::__cow_string::__cow_string(std::__cow_string const&)
	_ZNSt12__cow_stringC1ERKS_ @ 1099
;	std::__cow_string::__cow_string(std::string const&)
	_ZNSt12__cow_stringC1ERKSs @ 1100
;	std::__cow_string::__cow_string()
	_ZNSt12__cow_stringC1Ev @ 1101
;	std::__cow_string::__cow_string(std::__cow_string&&)
	_ZNSt12__cow_stringC2EOS_ @ 1102
;	std::__cow_string::__cow_string(char const*, unsigned long long)
	_ZNSt12__cow_stringC2EPKcy @ 1103
;	std::__cow_string::__cow_string(std::__cow_string const&)
	_ZNSt12__cow_stringC2ERKS_ @ 1104
;	std::__cow_string::__cow_string(std::string const&)
	_ZNSt12__cow_stringC2ERKSs @ 1105
;	std::__cow_string::__cow_string()
	_ZNSt12__cow_stringC2Ev @ 1106
;	std::__cow_string::~__cow_string()
	_ZNSt12__cow_stringD1Ev @ 1107
;	std::__cow_string::~__cow_string()
	_ZNSt12__cow_stringD2Ev @ 1108
;	std::__cow_string::operator=(std::__cow_string&&)
	_ZNSt12__cow_stringaSEOS_ @ 1109
;	std::__cow_string::operator=(std::__cow_string const&)
	_ZNSt12__cow_stringaSERKS_ @ 1110
;	std::__sso_string::__sso_string(std::__sso_string&&)
	_ZNSt12__sso_stringC1EOS_ @ 1111
;	std::__sso_string::__sso_string(char const*, unsigned long long)
	_ZNSt12__sso_stringC1EPKcy @ 1112
;	std::__sso_string::__sso_string(std::__cxx11::basic_string<char, std::char_traits<char>, std::allocator<char> > const&)
	_ZNSt12__sso_stringC1ERKNSt7__cxx1112basic_stringIcSt11char_traitsIcESaIcEEE @ 1113
;	std::__sso_string::__sso_string(std::__sso_string const&)
	_ZNSt12__sso_stringC1ERKS_ @ 1114
;	std::__sso_string::__sso_string(std::string const&)
	_ZNSt12__sso_stringC1ERKSs @ 1115
;	std::__sso_string::__sso_string()
	_ZNSt12__sso_stringC1Ev @ 1116
;	std::__sso_string::__sso_string(std::__sso_string&&)
	_ZNSt12__sso_stringC2EOS_ @ 1117
;	std::__sso_string::__sso_string(char const*, unsigned long long)
	_ZNSt12__sso_stringC2EPKcy @ 1118
;	std::__sso_string::__sso_string(std::__cxx11::basic_string<char, std::char_traits<char>, std::allocator<char> > const&)
	_ZNSt12__sso_stringC2ERKNSt7__cxx1112basic_stringIcSt11char_traitsIcESaIcEEE @ 1119
;	std::__sso_string::__sso_string(std::__sso_string const&)
	_ZNSt12__sso_stringC2ERKS_ @ 1120
;	std::__sso_string::__sso_string(std::string const&)
	_ZNSt12__sso_stringC2ERKSs @ 1121
;	std::__sso_string::__sso_string()
	_ZNSt12__sso_stringC2Ev @ 1122
;	std::__sso_string::~__sso_string()
	_ZNSt12__sso_stringD1Ev @ 1123
;	std::__sso_string::~__sso_string()
	_ZNSt12__sso_stringD2Ev @ 1124
;	std::__sso_string::operator=(std::__sso_string&&)
	_ZNSt12__sso_stringaSEOS_ @ 1125
;	std::__sso_string::operator=(std::__sso_string const&)
	_ZNSt12__sso_stringaSERKS_ @ 1126
;	std::domain_error::domain_error(char const*)
	_ZNSt12domain_errorC1EPKc @ 1127
;	std::domain_error::domain_error(std::string const&)
	_ZNSt12domain_errorC1ERKSs @ 1128
;	std::domain_error::domain_error(char const*)
	_ZNSt12domain_errorC2EPKc @ 1129
;	std::domain_error::domain_error(std::string const&)
	_ZNSt12domain_errorC2ERKSs @ 1130
;	std::domain_error::~domain_error()
	_ZNSt12domain_errorD0Ev @ 1131
;	std::domain_error::~domain_error()
	_ZNSt12domain_errorD1Ev @ 1132
;	std::domain_error::~domain_error()
	_ZNSt12domain_errorD2Ev @ 1133
;	std::length_error::length_error(char const*)
	_ZNSt12length_errorC1EPKc @ 1134
;	std::length_error::length_error(std::string const&)
	_ZNSt12length_errorC1ERKSs @ 1135
;	std::length_error::length_error(char const*)
	_ZNSt12length_errorC2EPKc @ 1136
;	std::length_error::length_error(std::string const&)
	_ZNSt12length_errorC2ERKSs @ 1137
;	std::length_error::~length_error()
	_ZNSt12length_errorD0Ev @ 1138
;	std::length_error::~length_error()
	_ZNSt12length_errorD1Ev @ 1139
;	std::length_error::~length_error()
	_ZNSt12length_errorD2Ev @ 1140
;	std::out_of_range::out_of_range(char const*)
	_ZNSt12out_of_rangeC1EPKc @ 1141
;	std::out_of_range::out_of_range(std::string const&)
	_ZNSt12out_of_rangeC1ERKSs @ 1142
;	std::out_of_range::out_of_range(char const*)
	_ZNSt12out_of_rangeC2EPKc @ 1143
;	std::out_of_range::out_of_range(std::string const&)
	_ZNSt12out_of_rangeC2ERKSs @ 1144
;	std::out_of_range::~out_of_range()
	_ZNSt12out_of_rangeD0Ev @ 1145
;	std::out_of_range::~out_of_range()
	_ZNSt12out_of_rangeD1Ev @ 1146
;	std::out_of_range::~out_of_range()
	_ZNSt12out_of_rangeD2Ev @ 1147
;	std::bad_exception::~bad_exception()
	_ZNSt13bad_exceptionD0Ev @ 1148
;	std::bad_exception::~bad_exception()
	_ZNSt13bad_exceptionD1Ev @ 1149
;	std::bad_exception::~bad_exception()
	_ZNSt13bad_exceptionD2Ev @ 1150
;	std::random_device::_M_init_pretr1(std::__cxx11::basic_string<char, std::char_traits<char>, std::allocator<char> > const&)
	_ZNSt13random_device14_M_init_pretr1ERKNSt7__cxx1112basic_stringIcSt11char_traitsIcESaIcEEE @ 1151
;	std::random_device::_M_init_pretr1(std::string const&)
	_ZNSt13random_device14_M_init_pretr1ERKSs @ 1152
;	std::random_device::_M_getval_pretr1()
	_ZNSt13random_device16_M_getval_pretr1Ev @ 1153
;	std::random_device::_M_fini()
	_ZNSt13random_device7_M_finiEv @ 1154
;	std::random_device::_M_init(char const*, unsigned long long)
	_ZNSt13random_device7_M_initEPKcy @ 1155
;	std::random_device::_M_init(std::__cxx11::basic_string<char, std::char_traits<char>, std::allocator<char> > const&)
	_ZNSt13random_device7_M_initERKNSt7__cxx1112basic_stringIcSt11char_traitsIcESaIcEEE @ 1156
;	std::random_device::_M_init(std::string const&)
	_ZNSt13random_device7_M_initERKSs @ 1157
;	std::random_device::_M_getval()
	_ZNSt13random_device9_M_getvalEv @ 1158
;	std::runtime_error::runtime_error(std::runtime_error&&)
	_ZNSt13runtime_errorC1EOS_ @ 1159
;	std::runtime_error::runtime_error(char const*)
	_ZNSt13runtime_errorC1EPKc @ 1160
;	std::runtime_error::runtime_error(std::runtime_error const&)
	_ZNSt13runtime_errorC1ERKS_ @ 1161
;	std::runtime_error::runtime_error(std::string const&)
	_ZNSt13runtime_errorC1ERKSs @ 1162
;	std::runtime_error::runtime_error(std::runtime_error&&)
	_ZNSt13runtime_errorC2EOS_ @ 1163
;	std::runtime_error::runtime_error(char const*)
	_ZNSt13runtime_errorC2EPKc @ 1164
;	std::runtime_error::runtime_error(std::runtime_error const&)
	_ZNSt13runtime_errorC2ERKS_ @ 1165
;	std::runtime_error::runtime_error(std::string const&)
	_ZNSt13runtime_errorC2ERKSs @ 1166
;	std::runtime_error::~runtime_error()
	_ZNSt13runtime_errorD0Ev @ 1167
;	std::runtime_error::~runtime_error()
	_ZNSt13runtime_errorD1Ev @ 1168
;	std::runtime_error::~runtime_error()
	_ZNSt13runtime_errorD2Ev @ 1169
;	std::runtime_error::operator=(std::runtime_error&&)
	_ZNSt13runtime_erroraSEOS_ @ 1170
;	std::runtime_error::operator=(std::runtime_error const&)
	_ZNSt13runtime_erroraSERKS_ @ 1171
;	std::overflow_error::overflow_error(char const*)
	_ZNSt14overflow_errorC1EPKc @ 1172
;	std::overflow_error::overflow_error(std::string const&)
	_ZNSt14overflow_errorC1ERKSs @ 1173
;	std::overflow_error::overflow_error(char const*)
	_ZNSt14overflow_errorC2EPKc @ 1174
;	std::overflow_error::overflow_error(std::string const&)
	_ZNSt14overflow_errorC2ERKSs @ 1175
;	std::overflow_error::~overflow_error()
	_ZNSt14overflow_errorD0Ev @ 1176
;	std::overflow_error::~overflow_error()
	_ZNSt14overflow_errorD1Ev @ 1177
;	std::overflow_error::~overflow_error()
	_ZNSt14overflow_errorD2Ev @ 1178
;	void std::__exception_ptr::__dest_thunk<tbb::captured_exception>(void*)
	_ZNSt15__exception_ptr12__dest_thunkIN3tbb18captured_exceptionEEEvPv @ 1179
;	std::__exception_ptr::exception_ptr::_M_release()
	_ZNSt15__exception_ptr13exception_ptr10_M_releaseEv @ 1180
;	std::__exception_ptr::exception_ptr::_M_safe_bool_dummy()
	_ZNSt15__exception_ptr13exception_ptr18_M_safe_bool_dummyEv @ 1181
;	std::__exception_ptr::exception_ptr::swap(std::__exception_ptr::exception_ptr&)
	_ZNSt15__exception_ptr13exception_ptr4swapERS0_ @ 1182
;	std::__exception_ptr::exception_ptr::_M_addref()
	_ZNSt15__exception_ptr13exception_ptr9_M_addrefEv @ 1183
;	std::__exception_ptr::exception_ptr::exception_ptr(void (std::__exception_ptr::exception_ptr::*)())
	_ZNSt15__exception_ptr13exception_ptrC1EMS0_FvvE @ 1184
;	std::__exception_ptr::exception_ptr::exception_ptr(void*)
	_ZNSt15__exception_ptr13exception_ptrC1EPv @ 1185
;	std::__exception_ptr::exception_ptr::exception_ptr(std::__exception_ptr::exception_ptr const&)
	_ZNSt15__exception_ptr13exception_ptrC1ERKS0_ @ 1186
;	std::__exception_ptr::exception_ptr::exception_ptr()
	_ZNSt15__exception_ptr13exception_ptrC1Ev @ 1187
;	std::__exception_ptr::exception_ptr::exception_ptr(void (std::__exception_ptr::exception_ptr::*)())
	_ZNSt15__exception_ptr13exception_ptrC2EMS0_FvvE @ 1188
;	std::__exception_ptr::exception_ptr::exception_ptr(void*)
	_ZNSt15__exception_ptr13exception_ptrC2EPv @ 1189
;	std::__exception_ptr::exception_ptr::exception_ptr(std::__exception_ptr::exception_ptr const&)
	_ZNSt15__exception_ptr13exception_ptrC2ERKS0_ @ 1190
;	std::__exception_ptr::exception_ptr::exception_ptr()
	_ZNSt15__exception_ptr13exception_ptrC2Ev @ 1191
;	std::__exception_ptr::exception_ptr::~exception_ptr()
	_ZNSt15__exception_ptr13exception_ptrD1Ev @ 1192
;	std::__exception_ptr::exception_ptr::~exception_ptr()
	_ZNSt15__exception_ptr13exception_ptrD2Ev @ 1193
;	std::__exception_ptr::exception_ptr::operator=(std::__exception_ptr::exception_ptr const&)
	_ZNSt15__exception_ptr13exception_ptraSERKS0_ @ 1194
;	std::__exception_ptr::operator==(std::__exception_ptr::exception_ptr const&, std::__exception_ptr::exception_ptr const&)
	_ZNSt15__exception_ptreqERKNS_13exception_ptrES2_ @ 1195
;	std::__exception_ptr::operator!=(std::__exception_ptr::exception_ptr const&, std::__exception_ptr::exception_ptr const&)
	_ZNSt15__exception_ptrneERKNS_13exception_ptrES2_ @ 1196
;	std::underflow_error::underflow_error(char const*)
	_ZNSt15underflow_errorC1EPKc @ 1197
;	std::underflow_error::underflow_error(std::string const&)
	_ZNSt15underflow_errorC1ERKSs @ 1198
;	std::underflow_error::underflow_error(char const*)
	_ZNSt15underflow_errorC2EPKc @ 1199
;	std::underflow_error::underflow_error(std::string const&)
	_ZNSt15underflow_errorC2ERKSs @ 1200
;	std::underflow_error::~underflow_error()
	_ZNSt15underflow_errorD0Ev @ 1201
;	std::underflow_error::~underflow_error()
	_ZNSt15underflow_errorD1Ev @ 1202
;	std::underflow_error::~underflow_error()
	_ZNSt15underflow_errorD2Ev @ 1203
;	std::invalid_argument::invalid_argument(char const*)
	_ZNSt16invalid_argumentC1EPKc @ 1204
;	std::invalid_argument::invalid_argument(std::string const&)
	_ZNSt16invalid_argumentC1ERKSs @ 1205
;	std::invalid_argument::invalid_argument(char const*)
	_ZNSt16invalid_argumentC2EPKc @ 1206
;	std::invalid_argument::invalid_argument(std::string const&)
	_ZNSt16invalid_argumentC2ERKSs @ 1207
;	std::invalid_argument::~invalid_argument()
	_ZNSt16invalid_argumentD0Ev @ 1208
;	std::invalid_argument::~invalid_argument()
	_ZNSt16invalid_argumentD1Ev @ 1209
;	std::invalid_argument::~invalid_argument()
	_ZNSt16invalid_argumentD2Ev @ 1210
;	std::bad_array_new_length::~bad_array_new_length()
	_ZNSt20bad_array_new_lengthD0Ev @ 1211
;	std::bad_array_new_length::~bad_array_new_length()
	_ZNSt20bad_array_new_lengthD1Ev @ 1212
;	std::bad_array_new_length::~bad_array_new_length()
	_ZNSt20bad_array_new_lengthD2Ev @ 1213
;	std::__cxx11::basic_string<char, std::char_traits<char>, std::allocator<char> >::_M_destroy(unsigned long long)
	_ZNSt7__cxx1112basic_stringIcSt11char_traitsIcESaIcEE10_M_destroyEy @ 1214
;	std::__cxx11::basic_string<char, std::char_traits<char>, std::allocator<char> >::_M_dispose()
	_ZNSt7__cxx1112basic_stringIcSt11char_traitsIcESaIcEE10_M_disposeEv @ 1215
;	std::__cxx11::basic_string<char, std::char_traits<char>, std::allocator<char> >::_M_replace(unsigned long long, unsigned long long, char const*, unsigned long long)
	_ZNSt7__cxx1112basic_stringIcSt11char_traitsIcESaIcEE10_M_replaceEyyPKcy @ 1216
;	std::__cxx11::basic_string<char, std::char_traits<char>, std::allocator<char> >::_S_compare(unsigned long long, unsigned long long)
	_ZNSt7__cxx1112basic_stringIcSt11char_traitsIcESaIcEE10_S_compareEyy @ 1217
;	std::__cxx11::basic_string<char, std::char_traits<char>, std::allocator<char> >::_M_capacity(unsigned long long)
	_ZNSt7__cxx1112basic_stringIcSt11char_traitsIcESaIcEE11_M_capacityEy @ 1218
;	std::__cxx11::basic_string<char, std::char_traits<char>, std::allocator<char> >::_S_allocate(std::allocator<char>&, unsigned long long)
	_ZNSt7__cxx1112basic_stringIcSt11char_traitsIcESaIcEE11_S_allocateERS3_y @ 1219
;	std::__cxx11::basic_string<char, std::char_traits<char>, std::allocator<char> >::_Alloc_hider::_Alloc_hider(char*, std::allocator<char>&&)
	_ZNSt7__cxx1112basic_stringIcSt11char_traitsIcESaIcEE12_Alloc_hiderC1EPcOS3_ @ 1220
;	std::__cxx11::basic_string<char, std::char_traits<char>, std::allocator<char> >::_Alloc_hider::_Alloc_hider(char*, std::allocator<char> const&)
	_ZNSt7__cxx1112basic_stringIcSt11char_traitsIcESaIcEE12_Alloc_hiderC1EPcRKS3_ @ 1221
;	std::__cxx11::basic_string<char, std::char_traits<char>, std::allocator<char> >::_Alloc_hider::_Alloc_hider(char*, std::allocator<char>&&)
	_ZNSt7__cxx1112basic_stringIcSt11char_traitsIcESaIcEE12_Alloc_hiderC2EPcOS3_ @ 1222
;	std::__cxx11::basic_string<char, std::char_traits<char>, std::allocator<char> >::_Alloc_hider::_Alloc_hider(char*, std::allocator<char> const&)
	_ZNSt7__cxx1112basic_stringIcSt11char_traitsIcESaIcEE12_Alloc_hiderC2EPcRKS3_ @ 1223
;	std::__cxx11::basic_string<char, std::char_traits<char>, std::allocator<char> >::_M_construct(unsigned long long, char)
	_ZNSt7__cxx1112basic_stringIcSt11char_traitsIcESaIcEE12_M_constructEyc @ 1224
;	void std::__cxx11::basic_string<char, std::char_traits<char>, std::allocator<char> >::_M_construct<__gnu_cxx::__normal_iterator<char const*, std::__cxx11::basic_string<char, std::char_traits<char>, std::allocator<char> > > >(__gnu_cxx::__normal_iterator<char const*, std::__cxx11::basic_string<char, std::char_traits<char>, std::allocator<char> > >, __gnu_cxx::__normal_iterator<char const*, std::__cxx11::basic_string<char, std::char_traits<char>, std::allocator<char> > >, std::forward_iterator_tag)
	_ZNSt7__cxx1112basic_stringIcSt11char_traitsIcESaIcEE12_M_constructIN9__gnu_cxx17__normal_iteratorIPKcS4_EEEEvT_SB_St20forward_iterator_tag @ 1225
;	void std::__cxx11::basic_string<char, std::char_traits<char>, std::allocator<char> >::_M_construct<__gnu_cxx::__normal_iterator<char*, std::__cxx11::basic_string<char, std::char_traits<char>, std::allocator<char> > > >(__gnu_cxx::__normal_iterator<char*, std::__cxx11::basic_string<char, std::char_traits<char>, std::allocator<char> > >, __gnu_cxx::__normal_iterator<char*, std::__cxx11::basic_string<char, std::char_traits<char>, std::allocator<char> > >, std::forward_iterator_tag)
	_ZNSt7__cxx1112basic_stringIcSt11char_traitsIcESaIcEE12_M_constructIN9__gnu_cxx17__normal_iteratorIPcS4_EEEEvT_SA_St20forward_iterator_tag @ 1226
;	void std::__cxx11::basic_string<char, std::char_traits<char>, std::allocator<char> >::_M_construct<char const*>(char const*, char const*, std::forward_iterator_tag)
	_ZNSt7__cxx1112basic_stringIcSt11char_traitsIcESaIcEE12_M_constructIPKcEEvT_S8_St20forward_iterator_tag @ 1227
;	void std::__cxx11::basic_string<char, std::char_traits<char>, std::allocator<char> >::_M_construct<char*>(char*, char*, std::forward_iterator_tag)
	_ZNSt7__cxx1112basic_stringIcSt11char_traitsIcESaIcEE12_M_constructIPcEEvT_S7_St20forward_iterator_tag @ 1228
;	std::__cxx11::basic_string<char, std::char_traits<char>, std::allocator<char> >::_M_local_data()
	_ZNSt7__cxx1112basic_stringIcSt11char_traitsIcESaIcEE13_M_local_dataEv @ 1229
;	std::__cxx11::basic_string<char, std::char_traits<char>, std::allocator<char> >::_M_set_length(unsigned long long)
	_ZNSt7__cxx1112basic_stringIcSt11char_traitsIcESaIcEE13_M_set_lengthEy @ 1230
;	std::__cxx11::basic_string<char, std::char_traits<char>, std::allocator<char> >::_S_copy_chars(char*, __gnu_cxx::__normal_iterator<char const*, std::__cxx11::basic_string<char, std::char_traits<char>, std::allocator<char> > >, __gnu_cxx::__normal_iterator<char const*, std::__cxx11::basic_string<char, std::char_traits<char>, std::allocator<char> > >)
	_ZNSt7__cxx1112basic_stringIcSt11char_traitsIcESaIcEE13_S_copy_charsEPcN9__gnu_cxx17__normal_iteratorIPKcS4_EESA_ @ 1231
;	std::__cxx11::basic_string<char, std::char_traits<char>, std::allocator<char> >::_S_copy_chars(char*, __gnu_cxx::__normal_iterator<char*, std::__cxx11::basic_string<char, std::char_traits<char>, std::allocator<char> > >, __gnu_cxx::__normal_iterator<char*, std::__cxx11::basic_string<char, std::char_traits<char>, std::allocator<char> > >)
	_ZNSt7__cxx1112basic_stringIcSt11char_traitsIcESaIcEE13_S_copy_charsEPcN9__gnu_cxx17__normal_iteratorIS5_S4_EES8_ @ 1232
;	std::__cxx11::basic_string<char, std::char_traits<char>, std::allocator<char> >::_S_copy_chars(char*, char const*, char const*)
	_ZNSt7__cxx1112basic_stringIcSt11char_traitsIcESaIcEE13_S_copy_charsEPcPKcS7_ @ 1233
;	std::__cxx11::basic_string<char, std::char_traits<char>, std::allocator<char> >::_S_copy_chars(char*, char*, char*)
	_ZNSt7__cxx1112basic_stringIcSt11char_traitsIcESaIcEE13_S_copy_charsEPcS5_S5_ @ 1234
;	std::__cxx11::basic_string<char, std::char_traits<char>, std::allocator<char> >::shrink_to_fit()
	_ZNSt7__cxx1112basic_stringIcSt11char_traitsIcESaIcEE13shrink_to_fitEv @ 1235
;	std::__cxx11::basic_string<char, std::char_traits<char>, std::allocator<char> >::_M_replace_aux(unsigned long long, unsigned long long, unsigned long long, char)
	_ZNSt7__cxx1112basic_stringIcSt11char_traitsIcESaIcEE14_M_replace_auxEyyyc @ 1236
;	std::__cxx11::basic_string<char, std::char_traits<char>, std::allocator<char> >::_M_replace_cold(char*, unsigned long long, char const*, unsigned long long, unsigned long long)
	_ZNSt7__cxx1112basic_stringIcSt11char_traitsIcESaIcEE15_M_replace_coldEPcyPKcyy @ 1237
;	std::__cxx11::basic_string<char, std::char_traits<char>, std::allocator<char> >::_M_get_allocator()
	_ZNSt7__cxx1112basic_stringIcSt11char_traitsIcESaIcEE16_M_get_allocatorEv @ 1238
;	std::__cxx11::basic_string<char, std::char_traits<char>, std::allocator<char> >::_M_init_local_buf()
	_ZNSt7__cxx1112basic_stringIcSt11char_traitsIcESaIcEE17_M_init_local_bufEv @ 1239
;	std::__cxx11::basic_string<char, std::char_traits<char>, std::allocator<char> >::_M_use_local_data()
	_ZNSt7__cxx1112basic_stringIcSt11char_traitsIcESaIcEE17_M_use_local_dataEv @ 1240
;	std::__cxx11::basic_string<char, std::char_traits<char>, std::allocator<char> >::_M_construct_aux_2(unsigned long long, char)
	_ZNSt7__cxx1112basic_stringIcSt11char_traitsIcESaIcEE18_M_construct_aux_2Eyc @ 1241
;	std::__cxx11::basic_string<char, std::char_traits<char>, std::allocator<char> >::at(unsigned long long)
	_ZNSt7__cxx1112basic_stringIcSt11char_traitsIcESaIcEE2atEy @ 1242
;	std::__cxx11::basic_string<char, std::char_traits<char>, std::allocator<char> >::end()
	_ZNSt7__cxx1112basic_stringIcSt11char_traitsIcESaIcEE3endEv @ 1243
;	std::__cxx11::basic_string<char, std::char_traits<char>, std::allocator<char> >::back()
	_ZNSt7__cxx1112basic_stringIcSt11char_traitsIcESaIcEE4backEv @ 1244
;	std::__cxx11::basic_string<char, std::char_traits<char>, std::allocator<char> >::npos
	_ZNSt7__cxx1112basic_stringIcSt11char_traitsIcESaIcEE4nposE @ 1245 DATA
;	std::__cxx11::basic_string<char, std::char_traits<char>, std::allocator<char> >::rend()
	_ZNSt7__cxx1112basic_stringIcSt11char_traitsIcESaIcEE4rendEv @ 1246
;	std::__cxx11::basic_string<char, std::char_traits<char>, std::allocator<char> >::swap(std::__cxx11::basic_string<char, std::char_traits<char>, std::allocator<char> >&)
	_ZNSt7__cxx1112basic_stringIcSt11char_traitsIcESaIcEE4swapERS4_ @ 1247
;	std::__cxx11::basic_string<char, std::char_traits<char>, std::allocator<char> >::begin()
	_ZNSt7__cxx1112basic_stringIcSt11char_traitsIcESaIcEE5beginEv @ 1248
;	std::__cxx11::basic_string<char, std::char_traits<char>, std::allocator<char> >::clear()
	_ZNSt7__cxx1112basic_stringIcSt11char_traitsIcESaIcEE5clearEv @ 1249
;	std::__cxx11::basic_string<char, std::char_traits<char>, std::allocator<char> >::erase(__gnu_cxx::__normal_iterator<char const*, std::__cxx11::basic_string<char, std::char_traits<char>, std::allocator<char> > >)
	_ZNSt7__cxx1112basic_stringIcSt11char_traitsIcESaIcEE5eraseEN9__gnu_cxx17__normal_iteratorIPKcS4_EE @ 1250
;	std::__cxx11::basic_string<char, std::char_traits<char>, std::allocator<char> >::erase(__gnu_cxx::__normal_iterator<char const*, std::__cxx11::basic_string<char, std::char_traits<char>, std::allocator<char> > >, __gnu_cxx::__normal_iterator<char const*, std::__cxx11::basic_string<char, std::char_traits<char>, std::allocator<char> > >)
	_ZNSt7__cxx1112basic_stringIcSt11char_traitsIcESaIcEE5eraseEN9__gnu_cxx17__normal_iteratorIPKcS4_EES9_ @ 1251
;	std::__cxx11::basic_string<char, std::char_traits<char>, std::allocator<char> >::erase(unsigned long long, unsigned long long)
	_ZNSt7__cxx1112basic_stringIcSt11char_traitsIcESaIcEE5eraseEyy @ 1252
;	std::__cxx11::basic_string<char, std::char_traits<char>, std::allocator<char> >::front()
	_ZNSt7__cxx1112basic_stringIcSt11char_traitsIcESaIcEE5frontEv @ 1253
;	std::__cxx11::basic_string<char, std::char_traits<char>, std::allocator<char> >::append(char const*)
	_ZNSt7__cxx1112basic_stringIcSt11char_traitsIcESaIcEE6appendEPKc @ 1254
;	std::__cxx11::basic_string<char, std::char_traits<char>, std::allocator<char> >::append(char const*, unsigned long long)
	_ZNSt7__cxx1112basic_stringIcSt11char_traitsIcESaIcEE6appendEPKcy @ 1255
;	std::__cxx11::basic_string<char, std::char_traits<char>, std::allocator<char> >::append(std::__cxx11::basic_string<char, std::char_traits<char>, std::allocator<char> > const&)
	_ZNSt7__cxx1112basic_stringIcSt11char_traitsIcESaIcEE6appendERKS4_ @ 1256
;	std::__cxx11::basic_string<char, std::char_traits<char>, std::allocator<char> >::append(std::__cxx11::basic_string<char, std::char_traits<char>, std::allocator<char> > const&, unsigned long long, unsigned long long)
	_ZNSt7__cxx1112basic_stringIcSt11char_traitsIcESaIcEE6appendERKS4_yy @ 1257
;	std::__cxx11::basic_string<char, std::char_traits<char>, std::allocator<char> >::append(std::initializer_list<char>)
	_ZNSt7__cxx1112basic_stringIcSt11char_traitsIcESaIcEE6appendESt16initializer_listIcE @ 1258
;	std::__cxx11::basic_string<char, std::char_traits<char>, std::allocator<char> >::append(unsigned long long, char)
	_ZNSt7__cxx1112basic_stringIcSt11char_traitsIcESaIcEE6appendEyc @ 1259
;	std::__cxx11::basic_string<char, std::char_traits<char>, std::allocator<char> >::assign(std::__cxx11::basic_string<char, std::char_traits<char>, std::allocator<char> >&&)
	_ZNSt7__cxx1112basic_stringIcSt11char_traitsIcESaIcEE6assignEOS4_ @ 1260
;	std::__cxx11::basic_string<char, std::char_traits<char>, std::allocator<char> >::assign(char const*)
	_ZNSt7__cxx1112basic_stringIcSt11char_traitsIcESaIcEE6assignEPKc @ 1261
;	std::__cxx11::basic_string<char, std::char_traits<char>, std::allocator<char> >::assign(char const*, unsigned long long)
	_ZNSt7__cxx1112basic_stringIcSt11char_traitsIcESaIcEE6assignEPKcy @ 1262
;	std::__cxx11::basic_string<char, std::char_traits<char>, std::allocator<char> >::assign(std::__cxx11::basic_string<char, std::char_traits<char>, std::allocator<char> > const&)
	_ZNSt7__cxx1112basic_stringIcSt11char_traitsIcESaIcEE6assignERKS4_ @ 1263
;	std::__cxx11::basic_string<char, std::char_traits<char>, std::allocator<char> >::assign(std::__cxx11::basic_string<char, std::char_traits<char>, std::allocator<char> > const&, unsigned long long, unsigned long long)
	_ZNSt7__cxx1112basic_stringIcSt11char_traitsIcESaIcEE6assignERKS4_yy @ 1264
;	std::__cxx11::basic_string<char, std::char_traits<char>, std::allocator<char> >::assign(std::initializer_list<char>)
	_ZNSt7__cxx1112basic_stringIcSt11char_traitsIcESaIcEE6assignESt16initializer_listIcE @ 1265
;	std::__cxx11::basic_string<char, std::char_traits<char>, std::allocator<char> >::assign(unsigned long long, char)
	_ZNSt7__cxx1112basic_stringIcSt11char_traitsIcESaIcEE6assignEyc @ 1266
;	std::__cxx11::basic_string<char, std::char_traits<char>, std::allocator<char> >::insert(__gnu_cxx::__normal_iterator<char const*, std::__cxx11::basic_string<char, std::char_traits<char>, std::allocator<char> > >, std::initializer_list<char>)
	_ZNSt7__cxx1112basic_stringIcSt11char_traitsIcESaIcEE6insertEN9__gnu_cxx17__normal_iteratorIPKcS4_EESt16initializer_listIcE @ 1267
;	std::__cxx11::basic_string<char, std::char_traits<char>, std::allocator<char> >::insert(__gnu_cxx::__normal_iterator<char const*, std::__cxx11::basic_string<char, std::char_traits<char>, std::allocator<char> > >, char)
	_ZNSt7__cxx1112basic_stringIcSt11char_traitsIcESaIcEE6insertEN9__gnu_cxx17__normal_iteratorIPKcS4_EEc @ 1268
;	std::__cxx11::basic_string<char, std::char_traits<char>, std::allocator<char> >::insert(__gnu_cxx::__normal_iterator<char const*, std::__cxx11::basic_string<char, std::char_traits<char>, std::allocator<char> > >, unsigned long long, char)
	_ZNSt7__cxx1112basic_stringIcSt11char_traitsIcESaIcEE6insertEN9__gnu_cxx17__normal_iteratorIPKcS4_EEyc @ 1269
;	std::__cxx11::basic_string<char, std::char_traits<char>, std::allocator<char> >::insert(__gnu_cxx::__normal_iterator<char*, std::__cxx11::basic_string<char, std::char_traits<char>, std::allocator<char> > >, std::initializer_list<char>)
	_ZNSt7__cxx1112basic_stringIcSt11char_traitsIcESaIcEE6insertEN9__gnu_cxx17__normal_iteratorIPcS4_EESt16initializer_listIcE @ 1270
;	std::__cxx11::basic_string<char, std::char_traits<char>, std::allocator<char> >::insert(unsigned long long, char const*)
	_ZNSt7__cxx1112basic_stringIcSt11char_traitsIcESaIcEE6insertEyPKc @ 1271
;	std::__cxx11::basic_string<char, std::char_traits<char>, std::allocator<char> >::insert(unsigned long long, char const*, unsigned long long)
	_ZNSt7__cxx1112basic_stringIcSt11char_traitsIcESaIcEE6insertEyPKcy @ 1272
;	std::__cxx11::basic_string<char, std::char_traits<char>, std::allocator<char> >::insert(unsigned long long, std::__cxx11::basic_string<char, std::char_traits<char>, std::allocator<char> > const&)
	_ZNSt7__cxx1112basic_stringIcSt11char_traitsIcESaIcEE6insertEyRKS4_ @ 1273
;	std::__cxx11::basic_string<char, std::char_traits<char>, std::allocator<char> >::insert(unsigned long long, std::__cxx11::basic_string<char, std::char_traits<char>, std::allocator<char> > const&, unsigned long long, unsigned long long)
	_ZNSt7__cxx1112basic_stringIcSt11char_traitsIcESaIcEE6insertEyRKS4_yy @ 1274
;	std::__cxx11::basic_string<char, std::char_traits<char>, std::allocator<char> >::insert(unsigned long long, unsigned long long, char)
	_ZNSt7__cxx1112basic_stringIcSt11char_traitsIcESaIcEE6insertEyyc @ 1275
;	std::__cxx11::basic_string<char, std::char_traits<char>, std::allocator<char> >::rbegin()
	_ZNSt7__cxx1112basic_stringIcSt11char_traitsIcESaIcEE6rbeginEv @ 1276
;	std::__cxx11::basic_string<char, std::char_traits<char>, std::allocator<char> >::resize(unsigned long long)
	_ZNSt7__cxx1112basic_stringIcSt11char_traitsIcESaIcEE6resizeEy @ 1277
;	std::__cxx11::basic_string<char, std::char_traits<char>, std::allocator<char> >::resize(unsigned long long, char)
	_ZNSt7__cxx1112basic_stringIcSt11char_traitsIcESaIcEE6resizeEyc @ 1278
;	std::__cxx11::basic_string<char, std::char_traits<char>, std::allocator<char> >::_M_data(char*)
	_ZNSt7__cxx1112basic_stringIcSt11char_traitsIcESaIcEE7_M_dataEPc @ 1279
;	std::__cxx11::basic_string<char, std::char_traits<char>, std::allocator<char> >::_S_copy(char*, char const*, unsigned long long)
	_ZNSt7__cxx1112basic_stringIcSt11char_traitsIcESaIcEE7_S_copyEPcPKcy @ 1280
;	std::__cxx11::basic_string<char, std::char_traits<char>, std::allocator<char> >::_S_move(char*, char const*, unsigned long long)
	_ZNSt7__cxx1112basic_stringIcSt11char_traitsIcESaIcEE7_S_moveEPcPKcy @ 1281
;	std::__cxx11::basic_string<char, std::char_traits<char>, std::allocator<char> >::replace(__gnu_cxx::__normal_iterator<char const*, std::__cxx11::basic_string<char, std::char_traits<char>, std::allocator<char> > >, __gnu_cxx::__normal_iterator<char const*, std::__cxx11::basic_string<char, std::char_traits<char>, std::allocator<char> > >, __gnu_cxx::__normal_iterator<char*, std::__cxx11::basic_string<char, std::char_traits<char>, std::allocator<char> > >, __gnu_cxx::__normal_iterator<char*, std::__cxx11::basic_string<char, std::char_traits<char>, std::allocator<char> > >)
	_ZNSt7__cxx1112basic_stringIcSt11char_traitsIcESaIcEE7replaceEN9__gnu_cxx17__normal_iteratorIPKcS4_EES9_NS6_IPcS4_EESB_ @ 1282
;	std::__cxx11::basic_string<char, std::char_traits<char>, std::allocator<char> >::replace(__gnu_cxx::__normal_iterator<char const*, std::__cxx11::basic_string<char, std::char_traits<char>, std::allocator<char> > >, __gnu_cxx::__normal_iterator<char const*, std::__cxx11::basic_string<char, std::char_traits<char>, std::allocator<char> > >, char*, char*)
	_ZNSt7__cxx1112basic_stringIcSt11char_traitsIcESaIcEE7replaceEN9__gnu_cxx17__normal_iteratorIPKcS4_EES9_PcSA_ @ 1283
;	std::__cxx11::basic_string<char, std::char_traits<char>, std::allocator<char> >::replace(__gnu_cxx::__normal_iterator<char const*, std::__cxx11::basic_string<char, std::char_traits<char>, std::allocator<char> > >, __gnu_cxx::__normal_iterator<char const*, std::__cxx11::basic_string<char, std::char_traits<char>, std::allocator<char> > >, std::__cxx11::basic_string<char, std::char_traits<char>, std::allocator<char> > const&)
	_ZNSt7__cxx1112basic_stringIcSt11char_traitsIcESaIcEE7replaceEN9__gnu_cxx17__normal_iteratorIPKcS4_EES9_RKS4_ @ 1284
;	std::__cxx11::basic_string<char, std::char_traits<char>, std::allocator<char> >::replace(__gnu_cxx::__normal_iterator<char const*, std::__cxx11::basic_string<char, std::char_traits<char>, std::allocator<char> > >, __gnu_cxx::__normal_iterator<char const*, std::__cxx11::basic_string<char, std::char_traits<char>, std::allocator<char> > >, char const*)
	_ZNSt7__cxx1112basic_stringIcSt11char_traitsIcESaIcEE7replaceEN9__gnu_cxx17__normal_iteratorIPKcS4_EES9_S8_ @ 1285
;	std::__cxx11::basic_string<char, std::char_traits<char>, std::allocator<char> >::replace(__gnu_cxx::__normal_iterator<char const*, std::__cxx11::basic_string<char, std::char_traits<char>, std::allocator<char> > >, __gnu_cxx::__normal_iterator<char const*, std::__cxx11::basic_string<char, std::char_traits<char>, std::allocator<char> > >, char const*, char const*)
	_ZNSt7__cxx1112basic_stringIcSt11char_traitsIcESaIcEE7replaceEN9__gnu_cxx17__normal_iteratorIPKcS4_EES9_S8_S8_ @ 1286
;	std::__cxx11::basic_string<char, std::char_traits<char>, std::allocator<char> >::replace(__gnu_cxx::__normal_iterator<char const*, std::__cxx11::basic_string<char, std::char_traits<char>, std::allocator<char> > >, __gnu_cxx::__normal_iterator<char const*, std::__cxx11::basic_string<char, std::char_traits<char>, std::allocator<char> > >, char const*, unsigned long long)
	_ZNSt7__cxx1112basic_stringIcSt11char_traitsIcESaIcEE7replaceEN9__gnu_cxx17__normal_iteratorIPKcS4_EES9_S8_y @ 1287
;	std::__cxx11::basic_string<char, std::char_traits<char>, std::allocator<char> >::replace(__gnu_cxx::__normal_iterator<char const*, std::__cxx11::basic_string<char, std::char_traits<char>, std::allocator<char> > >, __gnu_cxx::__normal_iterator<char const*, std::__cxx11::basic_string<char, std::char_traits<char>, std::allocator<char> > >, __gnu_cxx::__normal_iterator<char const*, std::__cxx11::basic_string<char, std::char_traits<char>, std::allocator<char> > >, __gnu_cxx::__normal_iterator<char const*, std::__cxx11::basic_string<char, std::char_traits<char>, std::allocator<char> > >)
	_ZNSt7__cxx1112basic_stringIcSt11char_traitsIcESaIcEE7replaceEN9__gnu_cxx17__normal_iteratorIPKcS4_EES9_S9_S9_ @ 1288
;	std::__cxx11::basic_string<char, std::char_traits<char>, std::allocator<char> >::replace(__gnu_cxx::__normal_iterator<char const*, std::__cxx11::basic_string<char, std::char_traits<char>, std::allocator<char> > >, __gnu_cxx::__normal_iterator<char const*, std::__cxx11::basic_string<char, std::char_traits<char>, std::allocator<char> > >, std::initializer_list<char>)
	_ZNSt7__cxx1112basic_stringIcSt11char_traitsIcESaIcEE7replaceEN9__gnu_cxx17__normal_iteratorIPKcS4_EES9_St16initializer_listIcE @ 1289
;	std::__cxx11::basic_string<char, std::char_traits<char>, std::allocator<char> >::replace(__gnu_cxx::__normal_iterator<char const*, std::__cxx11::basic_string<char, std::char_traits<char>, std::allocator<char> > >, __gnu_cxx::__normal_iterator<char const*, std::__cxx11::basic_string<char, std::char_traits<char>, std::allocator<char> > >, unsigned long long, char)
	_ZNSt7__cxx1112basic_stringIcSt11char_traitsIcESaIcEE7replaceEN9__gnu_cxx17__normal_iteratorIPKcS4_EES9_yc @ 1290
;	std::__cxx11::basic_string<char, std::char_traits<char>, std::allocator<char> >::replace(unsigned long long, unsigned long long, char const*)
	_ZNSt7__cxx1112basic_stringIcSt11char_traitsIcESaIcEE7replaceEyyPKc @ 1291
;	std::__cxx11::basic_string<char, std::char_traits<char>, std::allocator<char> >::replace(unsigned long long, unsigned long long, char const*, unsigned long long)
	_ZNSt7__cxx1112basic_stringIcSt11char_traitsIcESaIcEE7replaceEyyPKcy @ 1292
;	std::__cxx11::basic_string<char, std::char_traits<char>, std::allocator<char> >::replace(unsigned long long, unsigned long long, std::__cxx11::basic_string<char, std::char_traits<char>, std::allocator<char> > const&)
	_ZNSt7__cxx1112basic_stringIcSt11char_traitsIcESaIcEE7replaceEyyRKS4_ @ 1293
;	std::__cxx11::basic_string<char, std::char_traits<char>, std::allocator<char> >::replace(unsigned long long, unsigned long long, std::__cxx11::basic_string<char, std::char_traits<char>, std::allocator<char> > const&, unsigned long long, unsigned long long)
	_ZNSt7__cxx1112basic_stringIcSt11char_traitsIcESaIcEE7replaceEyyRKS4_yy @ 1294
;	std::__cxx11::basic_string<char, std::char_traits<char>, std::allocator<char> >::replace(unsigned long long, unsigned long long, unsigned long long, char)
	_ZNSt7__cxx1112basic_stringIcSt11char_traitsIcESaIcEE7replaceEyyyc @ 1295
;	std::__cxx11::basic_string<char, std::char_traits<char>, std::allocator<char> >::reserve()
	_ZNSt7__cxx1112basic_stringIcSt11char_traitsIcESaIcEE7reserveEv @ 1296
;	std::__cxx11::basic_string<char, std::char_traits<char>, std::allocator<char> >::reserve(unsigned long long)
	_ZNSt7__cxx1112basic_stringIcSt11char_traitsIcESaIcEE7reserveEy @ 1297
;	std::__cxx11::basic_string<char, std::char_traits<char>, std::allocator<char> >::_M_erase(unsigned long long, unsigned long long)
	_ZNSt7__cxx1112basic_stringIcSt11char_traitsIcESaIcEE8_M_eraseEyy @ 1298
;	std::__cxx11::basic_string<char, std::char_traits<char>, std::allocator<char> >::pop_back()
	_ZNSt7__cxx1112basic_stringIcSt11char_traitsIcESaIcEE8pop_backEv @ 1299
;	std::__cxx11::basic_string<char, std::char_traits<char>, std::allocator<char> >::_M_append(char const*, unsigned long long)
	_ZNSt7__cxx1112basic_stringIcSt11char_traitsIcESaIcEE9_M_appendEPKcy @ 1300
;	std::__cxx11::basic_string<char, std::char_traits<char>, std::allocator<char> >::_M_assign(std::__cxx11::basic_string<char, std::char_traits<char>, std::allocator<char> > const&)
	_ZNSt7__cxx1112basic_stringIcSt11char_traitsIcESaIcEE9_M_assignERKS4_ @ 1301
;	std::__cxx11::basic_string<char, std::char_traits<char>, std::allocator<char> >::_M_create(unsigned long long&, unsigned long long)
	_ZNSt7__cxx1112basic_stringIcSt11char_traitsIcESaIcEE9_M_createERyy @ 1302
;	std::__cxx11::basic_string<char, std::char_traits<char>, std::allocator<char> >::_M_length(unsigned long long)
	_ZNSt7__cxx1112basic_stringIcSt11char_traitsIcESaIcEE9_M_lengthEy @ 1303
;	std::__cxx11::basic_string<char, std::char_traits<char>, std::allocator<char> >::_M_mutate(unsigned long long, unsigned long long, char const*, unsigned long long)
	_ZNSt7__cxx1112basic_stringIcSt11char_traitsIcESaIcEE9_M_mutateEyyPKcy @ 1304
;	std::__cxx11::basic_string<char, std::char_traits<char>, std::allocator<char> >::_S_assign(char*, unsigned long long, char)
	_ZNSt7__cxx1112basic_stringIcSt11char_traitsIcESaIcEE9_S_assignEPcyc @ 1305
;	std::__cxx11::basic_string<char, std::char_traits<char>, std::allocator<char> >::push_back(char)
	_ZNSt7__cxx1112basic_stringIcSt11char_traitsIcESaIcEE9push_backEc @ 1306
;	std::__cxx11::basic_string<char, std::char_traits<char>, std::allocator<char> >::basic_string(std::__cxx11::basic_string<char, std::char_traits<char>, std::allocator<char> >&&)
	_ZNSt7__cxx1112basic_stringIcSt11char_traitsIcESaIcEEC1EOS4_ @ 1307
;	std::__cxx11::basic_string<char, std::char_traits<char>, std::allocator<char> >::basic_string(std::__cxx11::basic_string<char, std::char_traits<char>, std::allocator<char> >&&, std::allocator<char> const&)
	_ZNSt7__cxx1112basic_stringIcSt11char_traitsIcESaIcEEC1EOS4_RKS3_ @ 1308
;	std::__cxx11::basic_string<char, std::char_traits<char>, std::allocator<char> >::basic_string(char const*, std::allocator<char> const&)
	_ZNSt7__cxx1112basic_stringIcSt11char_traitsIcESaIcEEC1EPKcRKS3_ @ 1309
;	std::__cxx11::basic_string<char, std::char_traits<char>, std::allocator<char> >::basic_string(char const*, unsigned long long, std::allocator<char> const&)
	_ZNSt7__cxx1112basic_stringIcSt11char_traitsIcESaIcEEC1EPKcyRKS3_ @ 1310
;	std::__cxx11::basic_string<char, std::char_traits<char>, std::allocator<char> >::basic_string(std::allocator<char> const&)
	_ZNSt7__cxx1112basic_stringIcSt11char_traitsIcESaIcEEC1ERKS3_ @ 1311
;	std::__cxx11::basic_string<char, std::char_traits<char>, std::allocator<char> >::basic_string(std::__cxx11::basic_string<char, std::char_traits<char>, std::allocator<char> > const&)
	_ZNSt7__cxx1112basic_stringIcSt11char_traitsIcESaIcEEC1ERKS4_ @ 1312
;	std::__cxx11::basic_string<char, std::char_traits<char>, std::allocator<char> >::basic_string(std::__cxx11::basic_string<char, std::char_traits<char>, std::allocator<char> > const&, std::allocator<char> const&)
	_ZNSt7__cxx1112basic_stringIcSt11char_traitsIcESaIcEEC1ERKS4_RKS3_ @ 1313
;	std::__cxx11::basic_string<char, std::char_traits<char>, std::allocator<char> >::basic_string(std::__cxx11::basic_string<char, std::char_traits<char>, std::allocator<char> > const&, unsigned long long, std::allocator<char> const&)
	_ZNSt7__cxx1112basic_stringIcSt11char_traitsIcESaIcEEC1ERKS4_yRKS3_ @ 1314
;	std::__cxx11::basic_string<char, std::char_traits<char>, std::allocator<char> >::basic_string(std::__cxx11::basic_string<char, std::char_traits<char>, std::allocator<char> > const&, unsigned long long, unsigned long long)
	_ZNSt7__cxx1112basic_stringIcSt11char_traitsIcESaIcEEC1ERKS4_yy @ 1315
;	std::__cxx11::basic_string<char, std::char_traits<char>, std::allocator<char> >::basic_string(std::__cxx11::basic_string<char, std::char_traits<char>, std::allocator<char> > const&, unsigned long long, unsigned long long, std::allocator<char> const&)
	_ZNSt7__cxx1112basic_stringIcSt11char_traitsIcESaIcEEC1ERKS4_yyRKS3_ @ 1316
;	std::__cxx11::basic_string<char, std::char_traits<char>, std::allocator<char> >::basic_string(std::initializer_list<char>, std::allocator<char> const&)
	_ZNSt7__cxx1112basic_stringIcSt11char_traitsIcESaIcEEC1ESt16initializer_listIcERKS3_ @ 1317
;	std::__cxx11::basic_string<char, std::char_traits<char>, std::allocator<char> >::basic_string()
	_ZNSt7__cxx1112basic_stringIcSt11char_traitsIcESaIcEEC1Ev @ 1318
;	std::__cxx11::basic_string<char, std::char_traits<char>, std::allocator<char> >::basic_string(unsigned long long, char, std::allocator<char> const&)
	_ZNSt7__cxx1112basic_stringIcSt11char_traitsIcESaIcEEC1EycRKS3_ @ 1319
;	std::__cxx11::basic_string<char, std::char_traits<char>, std::allocator<char> >::basic_string<__gnu_cxx::__normal_iterator<char*, std::__cxx11::basic_string<char, std::char_traits<char>, std::allocator<char> > >, void>(__gnu_cxx::__normal_iterator<char*, std::__cxx11::basic_string<char, std::char_traits<char>, std::allocator<char> > >, __gnu_cxx::__normal_iterator<char*, std::__cxx11::basic_string<char, std::char_traits<char>, std::allocator<char> > >, std::allocator<char> const&)
	_ZNSt7__cxx1112basic_stringIcSt11char_traitsIcESaIcEEC1IN9__gnu_cxx17__normal_iteratorIPcS4_EEvEET_SA_RKS3_ @ 1320
;	std::__cxx11::basic_string<char, std::char_traits<char>, std::allocator<char> >::basic_string<char const*, void>(char const*, char const*, std::allocator<char> const&)
	_ZNSt7__cxx1112basic_stringIcSt11char_traitsIcESaIcEEC1IPKcvEET_S8_RKS3_ @ 1321
;	std::__cxx11::basic_string<char, std::char_traits<char>, std::allocator<char> >::basic_string<char*, void>(char*, char*, std::allocator<char> const&)
	_ZNSt7__cxx1112basic_stringIcSt11char_traitsIcESaIcEEC1IPcvEET_S7_RKS3_ @ 1322
;	std::__cxx11::basic_string<char, std::char_traits<char>, std::allocator<char> >::basic_string(std::__cxx11::basic_string<char, std::char_traits<char>, std::allocator<char> >&&)
	_ZNSt7__cxx1112basic_stringIcSt11char_traitsIcESaIcEEC2EOS4_ @ 1323
;	std::__cxx11::basic_string<char, std::char_traits<char>, std::allocator<char> >::basic_string(std::__cxx11::basic_string<char, std::char_traits<char>, std::allocator<char> >&&, std::allocator<char> const&)
	_ZNSt7__cxx1112basic_stringIcSt11char_traitsIcESaIcEEC2EOS4_RKS3_ @ 1324
;	std::__cxx11::basic_string<char, std::char_traits<char>, std::allocator<char> >::basic_string(char const*, std::allocator<char> const&)
	_ZNSt7__cxx1112basic_stringIcSt11char_traitsIcESaIcEEC2EPKcRKS3_ @ 1325
;	std::__cxx11::basic_string<char, std::char_traits<char>, std::allocator<char> >::basic_string(char const*, unsigned long long, std::allocator<char> const&)
	_ZNSt7__cxx1112basic_stringIcSt11char_traitsIcESaIcEEC2EPKcyRKS3_ @ 1326
;	std::__cxx11::basic_string<char, std::char_traits<char>, std::allocator<char> >::basic_string(std::allocator<char> const&)
	_ZNSt7__cxx1112basic_stringIcSt11char_traitsIcESaIcEEC2ERKS3_ @ 1327
;	std::__cxx11::basic_string<char, std::char_traits<char>, std::allocator<char> >::basic_string(std::__cxx11::basic_string<char, std::char_traits<char>, std::allocator<char> > const&)
	_ZNSt7__cxx1112basic_stringIcSt11char_traitsIcESaIcEEC2ERKS4_ @ 1328
;	std::__cxx11::basic_string<char, std::char_traits<char>, std::allocator<char> >::basic_string(std::__cxx11::basic_string<char, std::char_traits<char>, std::allocator<char> > const&, std::allocator<char> const&)
	_ZNSt7__cxx1112basic_stringIcSt11char_traitsIcESaIcEEC2ERKS4_RKS3_ @ 1329
;	std::__cxx11::basic_string<char, std::char_traits<char>, std::allocator<char> >::basic_string(std::__cxx11::basic_string<char, std::char_traits<char>, std::allocator<char> > const&, unsigned long long, std::allocator<char> const&)
	_ZNSt7__cxx1112basic_stringIcSt11char_traitsIcESaIcEEC2ERKS4_yRKS3_ @ 1330
;	std::__cxx11::basic_string<char, std::char_traits<char>, std::allocator<char> >::basic_string(std::__cxx11::basic_string<char, std::char_traits<char>, std::allocator<char> > const&, unsigned long long, unsigned long long)
	_ZNSt7__cxx1112basic_stringIcSt11char_traitsIcESaIcEEC2ERKS4_yy @ 1331
;	std::__cxx11::basic_string<char, std::char_traits<char>, std::allocator<char> >::basic_string(std::__cxx11::basic_string<char, std::char_traits<char>, std::allocator<char> > const&, unsigned long long, unsigned long long, std::allocator<char> const&)
	_ZNSt7__cxx1112basic_stringIcSt11char_traitsIcESaIcEEC2ERKS4_yyRKS3_ @ 1332
;	std::__cxx11::basic_string<char, std::char_traits<char>, std::allocator<char> >::basic_string(std::initializer_list<char>, std::allocator<char> const&)
	_ZNSt7__cxx1112basic_stringIcSt11char_traitsIcESaIcEEC2ESt16initializer_listIcERKS3_ @ 1333
;	std::__cxx11::basic_string<char, std::char_traits<char>, std::allocator<char> >::basic_string()
	_ZNSt7__cxx1112basic_stringIcSt11char_traitsIcESaIcEEC2Ev @ 1334
;	std::__cxx11::basic_string<char, std::char_traits<char>, std::allocator<char> >::basic_string(unsigned long long, char, std::allocator<char> const&)
	_ZNSt7__cxx1112basic_stringIcSt11char_traitsIcESaIcEEC2EycRKS3_ @ 1335
;	std::__cxx11::basic_string<char, std::char_traits<char>, std::allocator<char> >::basic_string<__gnu_cxx::__normal_iterator<char*, std::__cxx11::basic_string<char, std::char_traits<char>, std::allocator<char> > >, void>(__gnu_cxx::__normal_iterator<char*, std::__cxx11::basic_string<char, std::char_traits<char>, std::allocator<char> > >, __gnu_cxx::__normal_iterator<char*, std::__cxx11::basic_string<char, std::char_traits<char>, std::allocator<char> > >, std::allocator<char> const&)
	_ZNSt7__cxx1112basic_stringIcSt11char_traitsIcESaIcEEC2IN9__gnu_cxx17__normal_iteratorIPcS4_EEvEET_SA_RKS3_ @ 1336
;	std::__cxx11::basic_string<char, std::char_traits<char>, std::allocator<char> >::basic_string<char const*, void>(char const*, char const*, std::allocator<char> const&)
	_ZNSt7__cxx1112basic_stringIcSt11char_traitsIcESaIcEEC2IPKcvEET_S8_RKS3_ @ 1337
;	std::__cxx11::basic_string<char, std::char_traits<char>, std::allocator<char> >::basic_string<char*, void>(char*, char*, std::allocator<char> const&)
	_ZNSt7__cxx1112basic_stringIcSt11char_traitsIcESaIcEEC2IPcvEET_S7_RKS3_ @ 1338
;	std::__cxx11::basic_string<char, std::char_traits<char>, std::allocator<char> >::~basic_string()
	_ZNSt7__cxx1112basic_stringIcSt11char_traitsIcESaIcEED1Ev @ 1339
;	std::__cxx11::basic_string<char, std::char_traits<char>, std::allocator<char> >::~basic_string()
	_ZNSt7__cxx1112basic_stringIcSt11char_traitsIcESaIcEED2Ev @ 1340
;	std::__cxx11::basic_string<char, std::char_traits<char>, std::allocator<char> >::operator=(std::__cxx11::basic_string<char, std::char_traits<char>, std::allocator<char> >&&)
	_ZNSt7__cxx1112basic_stringIcSt11char_traitsIcESaIcEEaSEOS4_ @ 1341
;	std::__cxx11::basic_string<char, std::char_traits<char>, std::allocator<char> >::operator=(char const*)
	_ZNSt7__cxx1112basic_stringIcSt11char_traitsIcESaIcEEaSEPKc @ 1342
;	std::__cxx11::basic_string<char, std::char_traits<char>, std::allocator<char> >::operator=(std::__cxx11::basic_string<char, std::char_traits<char>, std::allocator<char> > const&)
	_ZNSt7__cxx1112basic_stringIcSt11char_traitsIcESaIcEEaSERKS4_ @ 1343
;	std::__cxx11::basic_string<char, std::char_traits<char>, std::allocator<char> >::operator=(std::initializer_list<char>)
	_ZNSt7__cxx1112basic_stringIcSt11char_traitsIcESaIcEEaSESt16initializer_listIcE @ 1344
;	std::__cxx11::basic_string<char, std::char_traits<char>, std::allocator<char> >::operator=(char)
	_ZNSt7__cxx1112basic_stringIcSt11char_traitsIcESaIcEEaSEc @ 1345
;	std::__cxx11::basic_string<char, std::char_traits<char>, std::allocator<char> >::operator[](unsigned long long)
	_ZNSt7__cxx1112basic_stringIcSt11char_traitsIcESaIcEEixEy @ 1346
;	std::__cxx11::basic_string<char, std::char_traits<char>, std::allocator<char> >::operator+=(char const*)
	_ZNSt7__cxx1112basic_stringIcSt11char_traitsIcESaIcEEpLEPKc @ 1347
;	std::__cxx11::basic_string<char, std::char_traits<char>, std::allocator<char> >::operator+=(std::__cxx11::basic_string<char, std::char_traits<char>, std::allocator<char> > const&)
	_ZNSt7__cxx1112basic_stringIcSt11char_traitsIcESaIcEEpLERKS4_ @ 1348
;	std::__cxx11::basic_string<char, std::char_traits<char>, std::allocator<char> >::operator+=(std::initializer_list<char>)
	_ZNSt7__cxx1112basic_stringIcSt11char_traitsIcESaIcEEpLESt16initializer_listIcE @ 1349
;	std::__cxx11::basic_string<char, std::char_traits<char>, std::allocator<char> >::operator+=(char)
	_ZNSt7__cxx1112basic_stringIcSt11char_traitsIcESaIcEEpLEc @ 1350
;	std::bad_cast::~bad_cast()
	_ZNSt8bad_castD0Ev @ 1351
;	std::bad_cast::~bad_cast()
	_ZNSt8bad_castD1Ev @ 1352
;	std::bad_cast::~bad_cast()
	_ZNSt8bad_castD2Ev @ 1353
;	std::bad_alloc::~bad_alloc()
	_ZNSt9bad_allocD0Ev @ 1354
;	std::bad_alloc::~bad_alloc()
	_ZNSt9bad_allocD1Ev @ 1355
;	std::bad_alloc::~bad_alloc()
	_ZNSt9bad_allocD2Ev @ 1356
;	std::exception::~exception()
	_ZNSt9exceptionD0Ev @ 1357
;	std::exception::~exception()
	_ZNSt9exceptionD1Ev @ 1358
;	std::exception::~exception()
	_ZNSt9exceptionD2Ev @ 1359
;	std::type_info::~type_info()
	_ZNSt9type_infoD0Ev @ 1360
;	std::type_info::~type_info()
	_ZNSt9type_infoD1Ev @ 1361
;	std::type_info::~type_info()
	_ZNSt9type_infoD2Ev @ 1362
;	std::unexpected()
	_ZSt10unexpectedv @ 1363
;	std::get_terminate()
	_ZSt13get_terminatev @ 1364
;	std::set_terminate(void (*)())
	_ZSt13set_terminatePFvvE @ 1365
;	std::get_unexpected()
	_ZSt14get_unexpectedv @ 1366
;	std::set_unexpected(void (*)())
	_ZSt14set_unexpectedPFvvE @ 1367
;	std::get_new_handler()
	_ZSt15get_new_handlerv @ 1368
;	std::set_new_handler(void (*)())
	_ZSt15set_new_handlerPFvvE @ 1369
;	std::__throw_bad_cast()
	_ZSt16__throw_bad_castv @ 1370
;	std::__throw_bad_alloc()
	_ZSt17__throw_bad_allocv @ 1371
;	std::current_exception()
	_ZSt17current_exceptionv @ 1372
;	std::rethrow_exception(std::__exception_ptr::exception_ptr)
	_ZSt17rethrow_exceptionNSt15__exception_ptr13exception_ptrE @ 1373
;	std::__throw_bad_typeid()
	_ZSt18__throw_bad_typeidv @ 1374
;	std::uncaught_exception()
	_ZSt18uncaught_exceptionv @ 1375
;	std::__throw_logic_error(char const*)
	_ZSt19__throw_logic_errorPKc @ 1376
;	std::__throw_range_error(char const*)
	_ZSt19__throw_range_errorPKc @ 1377
;	std::uncaught_exceptions()
	_ZSt19uncaught_exceptionsv @ 1378
;	std::__throw_domain_error(char const*)
	_ZSt20__throw_domain_errorPKc @ 1379
;	std::__throw_length_error(char const*)
	_ZSt20__throw_length_errorPKc @ 1380
;	std::__throw_out_of_range(char const*)
	_ZSt20__throw_out_of_rangePKc @ 1381
;	std::__throw_bad_exception()
	_ZSt21__throw_bad_exceptionv @ 1382
;	std::__throw_runtime_error(char const*)
	_ZSt21__throw_runtime_errorPKc @ 1383
;	std::__throw_overflow_error(char const*)
	_ZSt22__throw_overflow_errorPKc @ 1384
;	std::__throw_underflow_error(char const*)
	_ZSt23__throw_underflow_errorPKc @ 1385
;	std::__throw_invalid_argument(char const*)
	_ZSt24__throw_invalid_argumentPKc @ 1386
;	std::__throw_out_of_range_fmt(char const*, ...)
	_ZSt24__throw_out_of_range_fmtPKcz @ 1387
;	std::__throw_bad_array_new_length()
	_ZSt28__throw_bad_array_new_lengthv @ 1388
;	std::nothrow
	_ZSt7nothrow @ 1389 DATA
;	std::terminate()
	_ZSt9terminatev @ 1390
;	std::__cxx11::basic_string<char, std::char_traits<char>, std::allocator<char> > std::operator+<char, std::char_traits<char>, std::allocator<char> >(char const*, std::__cxx11::basic_string<char, std::char_traits<char>, std::allocator<char> > const&)
	_ZStplIcSt11char_traitsIcESaIcEENSt7__cxx1112basic_stringIT_T0_T1_EEPKS5_RKS8_ @ 1391
;	std::__cxx11::basic_string<char, std::char_traits<char>, std::allocator<char> > std::operator+<char, std::char_traits<char>, std::allocator<char> >(std::__cxx11::basic_string<char, std::char_traits<char>, std::allocator<char> > const&, std::__cxx11::basic_string<char, std::char_traits<char>, std::allocator<char> > const&)
	_ZStplIcSt11char_traitsIcESaIcEENSt7__cxx1112basic_stringIT_T0_T1_EERKS8_SA_ @ 1392
;	std::__cxx11::basic_string<char, std::char_traits<char>, std::allocator<char> > std::operator+<char, std::char_traits<char>, std::allocator<char> >(char, std::__cxx11::basic_string<char, std::char_traits<char>, std::allocator<char> > const&)
	_ZStplIcSt11char_traitsIcESaIcEENSt7__cxx1112basic_stringIT_T0_T1_EES5_RKS8_ @ 1393
;	std::basic_string<char, std::char_traits<char>, std::allocator<char> > std::operator+<char, std::char_traits<char>, std::allocator<char> >(char const*, std::basic_string<char, std::char_traits<char>, std::allocator<char> > const&)
	_ZStplIcSt11char_traitsIcESaIcEESbIT_T0_T1_EPKS3_RKS6_ @ 1394
;	std::basic_string<char, std::char_traits<char>, std::allocator<char> > std::operator+<char, std::char_traits<char>, std::allocator<char> >(std::basic_string<char, std::char_traits<char>, std::allocator<char> > const&, std::basic_string<char, std::char_traits<char>, std::allocator<char> > const&)
	_ZStplIcSt11char_traitsIcESaIcEESbIT_T0_T1_ERKS6_S8_ @ 1395
;	std::basic_string<char, std::char_traits<char>, std::allocator<char> > std::operator+<char, std::char_traits<char>, std::allocator<char> >(char, std::basic_string<char, std::char_traits<char>, std::allocator<char> > const&)
	_ZStplIcSt11char_traitsIcESaIcEESbIT_T0_T1_ES3_RKS6_ @ 1396
;	typeinfo for __cxxabiv1::__forced_unwind
	_ZTIN10__cxxabiv115__forced_unwindE @ 1397 DATA
;	typeinfo for __cxxabiv1::__class_type_info
	_ZTIN10__cxxabiv117__class_type_infoE @ 1398 DATA
;	typeinfo for __cxxabiv1::__foreign_exception
	_ZTIN10__cxxabiv119__foreign_exceptionE @ 1399 DATA
;	typeinfo for __cxxabiv1::__si_class_type_info
	_ZTIN10__cxxabiv120__si_class_type_infoE @ 1400 DATA
;	typeinfo for __cxxabiv1::__vmi_class_type_info
	_ZTIN10__cxxabiv121__vmi_class_type_infoE @ 1401 DATA
;	typeinfo for rml::versioned_object
	_ZTIN3rml16versioned_objectE @ 1402 DATA
;	typeinfo for rml::job
	_ZTIN3rml3jobE @ 1403 DATA
;	typeinfo for rml::client
	_ZTIN3rml6clientE @ 1404 DATA
;	typeinfo for rml::server
	_ZTIN3rml6serverE @ 1405 DATA
;	typeinfo for tbb::empty_task
	_ZTIN3tbb10empty_taskE @ 1406 DATA
;	typeinfo for tbb::interface5::internal::task_base
	_ZTIN3tbb10interface58internal9task_baseE @ 1407 DATA
;	typeinfo for tbb::interface6::task_scheduler_observer
	_ZTIN3tbb10interface623task_scheduler_observerE @ 1408 DATA
;	typeinfo for tbb::interface7::internal::delegate_base
	_ZTIN3tbb10interface78internal13delegate_baseE @ 1409 DATA
;	typeinfo for tbb::interface7::internal::delegated_task
	_ZTIN3tbb10interface78internal14delegated_taskE @ 1410 DATA
;	typeinfo for tbb::interface7::internal::delegated_function<tbb::flow::interface10::graph::spawn_functor, void>
	_ZTIN3tbb10interface78internal18delegated_functionINS_4flow11interface105graph13spawn_functorEvEE @ 1411 DATA
;	typeinfo for tbb::interface7::internal::wait_task
	_ZTIN3tbb10interface78internal9wait_taskE @ 1412 DATA
;	typeinfo for tbb::user_abort
	_ZTIN3tbb10user_abortE @ 1413 DATA
;	typeinfo for tbb::missing_wait
	_ZTIN3tbb12missing_waitE @ 1414 DATA
;	typeinfo for tbb::improper_lock
	_ZTIN3tbb13improper_lockE @ 1415 DATA
;	typeinfo for tbb::tbb_exception
	_ZTIN3tbb13tbb_exceptionE @ 1416 DATA
;	typeinfo for tbb::bad_last_alloc
	_ZTIN3tbb14bad_last_allocE @ 1417 DATA
;	typeinfo for tbb::captured_exception
	_ZTIN3tbb18captured_exceptionE @ 1418 DATA
;	typeinfo for tbb::invalid_multiple_scheduling
	_ZTIN3tbb27invalid_multiple_schedulingE @ 1419 DATA
;	typeinfo for tbb::task
	_ZTIN3tbb4taskE @ 1420 DATA
;	typeinfo for tbb::filter
	_ZTIN3tbb6filterE @ 1421 DATA
;	typeinfo for tbb::internal::stage_task
	_ZTIN3tbb8internal10stage_taskE @ 1422 DATA
;	typeinfo for tbb::internal::padded_base<tbb::internal::control_storage, 128ull, 32ull>
	_ZTIN3tbb8internal11padded_baseINS0_15control_storageELy128ELy32EEE @ 1423 DATA
;	typeinfo for tbb::internal::function_task<tbb::flow::interface10::graph::spawn_functor>
	_ZTIN3tbb8internal13function_taskINS_4flow11interface105graph13spawn_functorEEE @ 1424 DATA
;	typeinfo for tbb::internal::control_storage
	_ZTIN3tbb8internal15control_storageE @ 1425 DATA
;	typeinfo for tbb::internal::scheduler_state
	_ZTIN3tbb8internal15scheduler_stateE @ 1426 DATA
;	typeinfo for tbb::internal::custom_scheduler<tbb::internal::IntelSchedulerTraits>
	_ZTIN3tbb8internal16custom_schedulerINS0_20IntelSchedulerTraitsEEE @ 1427 DATA
;	typeinfo for tbb::internal::custom_scheduler<tbb::internal::DefaultSchedulerTraits>
	_ZTIN3tbb8internal16custom_schedulerINS0_22DefaultSchedulerTraitsEEE @ 1428 DATA
;	typeinfo for tbb::internal::generic_scheduler
	_ZTIN3tbb8internal17generic_schedulerE @ 1429 DATA
;	typeinfo for tbb::internal::pipeline_root_task
	_ZTIN3tbb8internal18pipeline_root_taskE @ 1430 DATA
;	typeinfo for tbb::internal::stack_size_control
	_ZTIN3tbb8internal18stack_size_controlE @ 1431 DATA
;	typeinfo for tbb::internal::intrusive_list_node
	_ZTIN3tbb8internal19intrusive_list_nodeE @ 1432 DATA
;	typeinfo for tbb::internal::concurrent_queue_base
	_ZTIN3tbb8internal21concurrent_queue_baseE @ 1433 DATA
;	typeinfo for tbb::internal::numa_binding_observer
	_ZTIN3tbb8internal21numa_binding_observerE @ 1434 DATA
;	typeinfo for tbb::internal::concurrent_queue_base_v3
	_ZTIN3tbb8internal24concurrent_queue_base_v3E @ 1435 DATA
;	typeinfo for tbb::internal::task_scheduler_observer_v3
	_ZTIN3tbb8internal26task_scheduler_observer_v3E @ 1436 DATA
;	typeinfo for tbb::internal::allowed_parallelism_control
	_ZTIN3tbb8internal27allowed_parallelism_controlE @ 1437 DATA
;	typeinfo for tbb::internal::rml::tbb_client
	_ZTIN3tbb8internal3rml10tbb_clientE @ 1438 DATA
;	typeinfo for tbb::internal::rml::tbb_server
	_ZTIN3tbb8internal3rml10tbb_serverE @ 1439 DATA
;	typeinfo for tbb::internal::rml::private_server
	_ZTIN3tbb8internal3rml14private_serverE @ 1440 DATA
;	typeinfo for tbb::internal::market
	_ZTIN3tbb8internal6marketE @ 1441 DATA
;	typeinfo for tbb::internal::padded<tbb::internal::control_storage, 128ull>
	_ZTIN3tbb8internal6paddedINS0_15control_storageELy128EEE @ 1442 DATA
;	typeinfo for tbb::internal::no_copy
	_ZTIN3tbb8internal7no_copyE @ 1443 DATA
;	typeinfo for tbb::internal::no_assign
	_ZTIN3tbb8internal9no_assignE @ 1444 DATA
;	typeinfo for tbb::internal::scheduler
	_ZTIN3tbb8internal9schedulerE @ 1445 DATA
;	typeinfo for tbb::internal::task_info
	_ZTIN3tbb8internal9task_infoE @ 1446 DATA
;	typeinfo for tbb::pipeline
	_ZTIN3tbb8pipelineE @ 1447 DATA
;	typeinfo for __gnu_cxx::__concurrence_lock_error
	_ZTIN9__gnu_cxx24__concurrence_lock_errorE @ 1448 DATA
;	typeinfo for __gnu_cxx::__concurrence_wait_error
	_ZTIN9__gnu_cxx24__concurrence_wait_errorE @ 1449 DATA
;	typeinfo for __gnu_cxx::__concurrence_unlock_error
	_ZTIN9__gnu_cxx26__concurrence_unlock_errorE @ 1450 DATA
;	typeinfo for __gnu_cxx::__concurrence_broadcast_error
	_ZTIN9__gnu_cxx29__concurrence_broadcast_errorE @ 1451 DATA
;	typeinfo for std::bad_typeid
	_ZTISt10bad_typeid @ 1452 DATA
;	typeinfo for std::logic_error
	_ZTISt11logic_error @ 1453 DATA
;	typeinfo for std::range_error
	_ZTISt11range_error @ 1454 DATA
;	typeinfo for std::domain_error
	_ZTISt12domain_error @ 1455 DATA
;	typeinfo for std::length_error
	_ZTISt12length_error @ 1456 DATA
;	typeinfo for std::out_of_range
	_ZTISt12out_of_range @ 1457 DATA
;	typeinfo for std::bad_exception
	_ZTISt13bad_exception @ 1458 DATA
;	typeinfo for std::runtime_error
	_ZTISt13runtime_error @ 1459 DATA
;	typeinfo for std::overflow_error
	_ZTISt14overflow_error @ 1460 DATA
;	typeinfo for std::underflow_error
	_ZTISt15underflow_error @ 1461 DATA
;	typeinfo for std::invalid_argument
	_ZTISt16invalid_argument @ 1462 DATA
;	typeinfo for std::bad_array_new_length
	_ZTISt20bad_array_new_length @ 1463 DATA
;	typeinfo for std::bad_cast
	_ZTISt8bad_cast @ 1464 DATA
;	typeinfo for std::bad_alloc
	_ZTISt9bad_alloc @ 1465 DATA
;	typeinfo for std::exception
	_ZTISt9exception @ 1466 DATA
;	typeinfo for std::type_info
	_ZTISt9type_info @ 1467 DATA
;	typeinfo name for __cxxabiv1::__forced_unwind
	_ZTSN10__cxxabiv115__forced_unwindE @ 1468 DATA
;	typeinfo name for __cxxabiv1::__class_type_info
	_ZTSN10__cxxabiv117__class_type_infoE @ 1469 DATA
;	typeinfo name for __cxxabiv1::__foreign_exception
	_ZTSN10__cxxabiv119__foreign_exceptionE @ 1470 DATA
;	typeinfo name for __cxxabiv1::__si_class_type_info
	_ZTSN10__cxxabiv120__si_class_type_infoE @ 1471 DATA
;	typeinfo name for __cxxabiv1::__vmi_class_type_info
	_ZTSN10__cxxabiv121__vmi_class_type_infoE @ 1472 DATA
;	typeinfo name for rml::versioned_object
	_ZTSN3rml16versioned_objectE @ 1473 DATA
;	typeinfo name for rml::job
	_ZTSN3rml3jobE @ 1474 DATA
;	typeinfo name for rml::client
	_ZTSN3rml6clientE @ 1475 DATA
;	typeinfo name for rml::server
	_ZTSN3rml6serverE @ 1476 DATA
;	typeinfo name for tbb::empty_task
	_ZTSN3tbb10empty_taskE @ 1477 DATA
;	typeinfo name for tbb::interface5::internal::task_base
	_ZTSN3tbb10interface58internal9task_baseE @ 1478 DATA
;	typeinfo name for tbb::interface6::task_scheduler_observer
	_ZTSN3tbb10interface623task_scheduler_observerE @ 1479 DATA
;	typeinfo name for tbb::interface7::internal::delegate_base
	_ZTSN3tbb10interface78internal13delegate_baseE @ 1480 DATA
;	typeinfo name for tbb::interface7::internal::delegated_task
	_ZTSN3tbb10interface78internal14delegated_taskE @ 1481 DATA
;	typeinfo name for tbb::interface7::internal::delegated_function<tbb::flow::interface10::graph::spawn_functor, void>
	_ZTSN3tbb10interface78internal18delegated_functionINS_4flow11interface105graph13spawn_functorEvEE @ 1482 DATA
;	typeinfo name for tbb::interface7::internal::wait_task
	_ZTSN3tbb10interface78internal9wait_taskE @ 1483 DATA
;	typeinfo name for tbb::user_abort
	_ZTSN3tbb10user_abortE @ 1484 DATA
;	typeinfo name for tbb::missing_wait
	_ZTSN3tbb12missing_waitE @ 1485 DATA
;	typeinfo name for tbb::improper_lock
	_ZTSN3tbb13improper_lockE @ 1486 DATA
;	typeinfo name for tbb::tbb_exception
	_ZTSN3tbb13tbb_exceptionE @ 1487 DATA
;	typeinfo name for tbb::bad_last_alloc
	_ZTSN3tbb14bad_last_allocE @ 1488 DATA
;	typeinfo name for tbb::captured_exception
	_ZTSN3tbb18captured_exceptionE @ 1489 DATA
;	typeinfo name for tbb::invalid_multiple_scheduling
	_ZTSN3tbb27invalid_multiple_schedulingE @ 1490 DATA
;	typeinfo name for tbb::task
	_ZTSN3tbb4taskE @ 1491 DATA
;	typeinfo name for tbb::filter
	_ZTSN3tbb6filterE @ 1492 DATA
;	typeinfo name for tbb::internal::stage_task
	_ZTSN3tbb8internal10stage_taskE @ 1493 DATA
;	typeinfo name for tbb::internal::padded_base<tbb::internal::control_storage, 128ull, 32ull>
	_ZTSN3tbb8internal11padded_baseINS0_15control_storageELy128ELy32EEE @ 1494 DATA
;	typeinfo name for tbb::internal::function_task<tbb::flow::interface10::graph::spawn_functor>
	_ZTSN3tbb8internal13function_taskINS_4flow11interface105graph13spawn_functorEEE @ 1495 DATA
;	typeinfo name for tbb::internal::control_storage
	_ZTSN3tbb8internal15control_storageE @ 1496 DATA
;	typeinfo name for tbb::internal::scheduler_state
	_ZTSN3tbb8internal15scheduler_stateE @ 1497 DATA
;	typeinfo name for tbb::internal::custom_scheduler<tbb::internal::IntelSchedulerTraits>
	_ZTSN3tbb8internal16custom_schedulerINS0_20IntelSchedulerTraitsEEE @ 1498 DATA
;	typeinfo name for tbb::internal::custom_scheduler<tbb::internal::DefaultSchedulerTraits>
	_ZTSN3tbb8internal16custom_schedulerINS0_22DefaultSchedulerTraitsEEE @ 1499 DATA
;	typeinfo name for tbb::internal::generic_scheduler
	_ZTSN3tbb8internal17generic_schedulerE @ 1500 DATA
;	typeinfo name for tbb::internal::pipeline_root_task
	_ZTSN3tbb8internal18pipeline_root_taskE @ 1501 DATA
;	typeinfo name for tbb::internal::stack_size_control
	_ZTSN3tbb8internal18stack_size_controlE @ 1502 DATA
;	typeinfo name for tbb::internal::intrusive_list_node
	_ZTSN3tbb8internal19intrusive_list_nodeE @ 1503 DATA
;	typeinfo name for tbb::internal::concurrent_queue_base
	_ZTSN3tbb8internal21concurrent_queue_baseE @ 1504 DATA
;	typeinfo name for tbb::internal::numa_binding_observer
	_ZTSN3tbb8internal21numa_binding_observerE @ 1505 DATA
;	typeinfo name for tbb::internal::concurrent_queue_base_v3
	_ZTSN3tbb8internal24concurrent_queue_base_v3E @ 1506 DATA
;	typeinfo name for tbb::internal::task_scheduler_observer_v3
	_ZTSN3tbb8internal26task_scheduler_observer_v3E @ 1507 DATA
;	typeinfo name for tbb::internal::allowed_parallelism_control
	_ZTSN3tbb8internal27allowed_parallelism_controlE @ 1508 DATA
;	typeinfo name for tbb::internal::rml::tbb_client
	_ZTSN3tbb8internal3rml10tbb_clientE @ 1509 DATA
;	typeinfo name for tbb::internal::rml::tbb_server
	_ZTSN3tbb8internal3rml10tbb_serverE @ 1510 DATA
;	typeinfo name for tbb::internal::rml::private_server
	_ZTSN3tbb8internal3rml14private_serverE @ 1511 DATA
;	typeinfo name for tbb::internal::market
	_ZTSN3tbb8internal6marketE @ 1512 DATA
;	typeinfo name for tbb::internal::padded<tbb::internal::control_storage, 128ull>
	_ZTSN3tbb8internal6paddedINS0_15control_storageELy128EEE @ 1513 DATA
;	typeinfo name for tbb::internal::no_copy
	_ZTSN3tbb8internal7no_copyE @ 1514 DATA
;	typeinfo name for tbb::internal::no_assign
	_ZTSN3tbb8internal9no_assignE @ 1515 DATA
;	typeinfo name for tbb::internal::scheduler
	_ZTSN3tbb8internal9schedulerE @ 1516 DATA
;	typeinfo name for tbb::internal::task_info
	_ZTSN3tbb8internal9task_infoE @ 1517 DATA
;	typeinfo name for tbb::pipeline
	_ZTSN3tbb8pipelineE @ 1518 DATA
;	typeinfo name for __gnu_cxx::__concurrence_lock_error
	_ZTSN9__gnu_cxx24__concurrence_lock_errorE @ 1519 DATA
;	typeinfo name for __gnu_cxx::__concurrence_wait_error
	_ZTSN9__gnu_cxx24__concurrence_wait_errorE @ 1520 DATA
;	typeinfo name for __gnu_cxx::__concurrence_unlock_error
	_ZTSN9__gnu_cxx26__concurrence_unlock_errorE @ 1521 DATA
;	typeinfo name for __gnu_cxx::__concurrence_broadcast_error
	_ZTSN9__gnu_cxx29__concurrence_broadcast_errorE @ 1522 DATA
;	typeinfo name for std::bad_typeid
	_ZTSSt10bad_typeid @ 1523 DATA
;	typeinfo name for std::logic_error
	_ZTSSt11logic_error @ 1524 DATA
;	typeinfo name for std::range_error
	_ZTSSt11range_error @ 1525 DATA
;	typeinfo name for std::domain_error
	_ZTSSt12domain_error @ 1526 DATA
;	typeinfo name for std::length_error
	_ZTSSt12length_error @ 1527 DATA
;	typeinfo name for std::out_of_range
	_ZTSSt12out_of_range @ 1528 DATA
;	typeinfo name for std::bad_exception
	_ZTSSt13bad_exception @ 1529 DATA
;	typeinfo name for std::runtime_error
	_ZTSSt13runtime_error @ 1530 DATA
;	typeinfo name for std::overflow_error
	_ZTSSt14overflow_error @ 1531 DATA
;	typeinfo name for std::underflow_error
	_ZTSSt15underflow_error @ 1532 DATA
;	typeinfo name for std::invalid_argument
	_ZTSSt16invalid_argument @ 1533 DATA
;	typeinfo name for std::bad_array_new_length
	_ZTSSt20bad_array_new_length @ 1534 DATA
;	typeinfo name for std::bad_cast
	_ZTSSt8bad_cast @ 1535 DATA
;	typeinfo name for std::bad_alloc
	_ZTSSt9bad_alloc @ 1536 DATA
;	typeinfo name for std::exception
	_ZTSSt9exception @ 1537 DATA
;	typeinfo name for std::type_info
	_ZTSSt9type_info @ 1538 DATA
;	vtable for __cxxabiv1::__forced_unwind
	_ZTVN10__cxxabiv115__forced_unwindE @ 1539 DATA
;	vtable for __cxxabiv1::__class_type_info
	_ZTVN10__cxxabiv117__class_type_infoE @ 1540 DATA
;	vtable for __cxxabiv1::__foreign_exception
	_ZTVN10__cxxabiv119__foreign_exceptionE @ 1541 DATA
;	vtable for __cxxabiv1::__si_class_type_info
	_ZTVN10__cxxabiv120__si_class_type_infoE @ 1542 DATA
;	vtable for __cxxabiv1::__vmi_class_type_info
	_ZTVN10__cxxabiv121__vmi_class_type_infoE @ 1543 DATA
;	vtable for tbb::empty_task
	_ZTVN3tbb10empty_taskE @ 1544 DATA
;	vtable for tbb::interface6::task_scheduler_observer
	_ZTVN3tbb10interface623task_scheduler_observerE @ 1545 DATA
;	vtable for tbb::interface7::internal::delegated_task
	_ZTVN3tbb10interface78internal14delegated_taskE @ 1546 DATA
;	vtable for tbb::interface7::internal::wait_task
	_ZTVN3tbb10interface78internal9wait_taskE @ 1547 DATA
;	vtable for tbb::user_abort
	_ZTVN3tbb10user_abortE @ 1548 DATA
;	vtable for tbb::missing_wait
	_ZTVN3tbb12missing_waitE @ 1549 DATA
;	vtable for tbb::improper_lock
	_ZTVN3tbb13improper_lockE @ 1550 DATA
;	vtable for tbb::tbb_exception
	_ZTVN3tbb13tbb_exceptionE @ 1551 DATA
;	vtable for tbb::bad_last_alloc
	_ZTVN3tbb14bad_last_allocE @ 1552 DATA
;	vtable for tbb::captured_exception
	_ZTVN3tbb18captured_exceptionE @ 1553 DATA
;	vtable for tbb::invalid_multiple_scheduling
	_ZTVN3tbb27invalid_multiple_schedulingE @ 1554 DATA
;	vtable for tbb::task
	_ZTVN3tbb4taskE @ 1555 DATA
;	vtable for tbb::filter
	_ZTVN3tbb6filterE @ 1556 DATA
;	vtable for tbb::internal::stage_task
	_ZTVN3tbb8internal10stage_taskE @ 1557 DATA
;	vtable for tbb::internal::function_task<tbb::flow::interface10::graph::spawn_functor>
	_ZTVN3tbb8internal13function_taskINS_4flow11interface105graph13spawn_functorEEE @ 1558 DATA
;	vtable for tbb::internal::custom_scheduler<tbb::internal::IntelSchedulerTraits>
	_ZTVN3tbb8internal16custom_schedulerINS0_20IntelSchedulerTraitsEEE @ 1559 DATA
;	vtable for tbb::internal::custom_scheduler<tbb::internal::DefaultSchedulerTraits>
	_ZTVN3tbb8internal16custom_schedulerINS0_22DefaultSchedulerTraitsEEE @ 1560 DATA
;	vtable for tbb::internal::generic_scheduler
	_ZTVN3tbb8internal17generic_schedulerE @ 1561 DATA
;	vtable for tbb::internal::pipeline_root_task
	_ZTVN3tbb8internal18pipeline_root_taskE @ 1562 DATA
;	vtable for tbb::internal::stack_size_control
	_ZTVN3tbb8internal18stack_size_controlE @ 1563 DATA
;	vtable for tbb::internal::concurrent_queue_base
	_ZTVN3tbb8internal21concurrent_queue_baseE @ 1564 DATA
;	vtable for tbb::internal::numa_binding_observer
	_ZTVN3tbb8internal21numa_binding_observerE @ 1565 DATA
;	vtable for tbb::internal::concurrent_queue_base_v3
	_ZTVN3tbb8internal24concurrent_queue_base_v3E @ 1566 DATA
;	vtable for tbb::internal::task_scheduler_observer_v3
	_ZTVN3tbb8internal26task_scheduler_observer_v3E @ 1567 DATA
;	vtable for tbb::internal::allowed_parallelism_control
	_ZTVN3tbb8internal27allowed_parallelism_controlE @ 1568 DATA
;	vtable for tbb::internal::rml::private_server
	_ZTVN3tbb8internal3rml14private_serverE @ 1569 DATA
;	vtable for tbb::internal::market
	_ZTVN3tbb8internal6marketE @ 1570 DATA
;	vtable for tbb::pipeline
	_ZTVN3tbb8pipelineE @ 1571 DATA
;	vtable for __gnu_cxx::__concurrence_lock_error
	_ZTVN9__gnu_cxx24__concurrence_lock_errorE @ 1572 DATA
;	vtable for __gnu_cxx::__concurrence_wait_error
	_ZTVN9__gnu_cxx24__concurrence_wait_errorE @ 1573 DATA
;	vtable for __gnu_cxx::__concurrence_unlock_error
	_ZTVN9__gnu_cxx26__concurrence_unlock_errorE @ 1574 DATA
;	vtable for __gnu_cxx::__concurrence_broadcast_error
	_ZTVN9__gnu_cxx29__concurrence_broadcast_errorE @ 1575 DATA
;	vtable for std::bad_typeid
	_ZTVSt10bad_typeid @ 1576 DATA
;	vtable for std::logic_error
	_ZTVSt11logic_error @ 1577 DATA
;	vtable for std::range_error
	_ZTVSt11range_error @ 1578 DATA
;	vtable for std::domain_error
	_ZTVSt12domain_error @ 1579 DATA
;	vtable for std::length_error
	_ZTVSt12length_error @ 1580 DATA
;	vtable for std::out_of_range
	_ZTVSt12out_of_range @ 1581 DATA
;	vtable for std::bad_exception
	_ZTVSt13bad_exception @ 1582 DATA
;	vtable for std::runtime_error
	_ZTVSt13runtime_error @ 1583 DATA
;	vtable for std::overflow_error
	_ZTVSt14overflow_error @ 1584 DATA
;	vtable for std::underflow_error
	_ZTVSt15underflow_error @ 1585 DATA
;	vtable for std::invalid_argument
	_ZTVSt16invalid_argument @ 1586 DATA
;	vtable for std::bad_array_new_length
	_ZTVSt20bad_array_new_length @ 1587 DATA
;	vtable for std::bad_cast
	_ZTVSt8bad_cast @ 1588 DATA
;	vtable for std::bad_alloc
	_ZTVSt9bad_alloc @ 1589 DATA
;	vtable for std::exception
	_ZTVSt9exception @ 1590 DATA
;	vtable for std::type_info
	_ZTVSt9type_info @ 1591 DATA
;	operator delete[](void*)
	_ZdaPv @ 1592
;	operator delete[](void*, unsigned long long)
	_ZdaPvy @ 1593
;	operator delete(void*)
	_ZdlPv @ 1594
;	operator delete(void*, unsigned long long)
	_ZdlPvy @ 1595
;	operator new[](unsigned long long)
	_Znay @ 1596
;	operator new(unsigned long long)
	_Znwy @ 1597
	__Balloc_D2A @ 1598
	__Bfree_D2A @ 1599
	__CTOR_LIST__ @ 1600 DATA
	__C_specific_handler @ 1601 DATA
	__DTOR_LIST__ @ 1602 DATA
	__IAT_end__ @ 1603 DATA
	__IAT_start__ @ 1604 DATA
	__RUNTIME_PSEUDO_RELOC_LIST_END__ @ 1605 DATA
	__RUNTIME_PSEUDO_RELOC_LIST__ @ 1606 DATA
	___CTOR_LIST__ @ 1607 DATA
	___DTOR_LIST__ @ 1608 DATA
	___RUNTIME_PSEUDO_RELOC_LIST_END__ @ 1609 DATA
	___RUNTIME_PSEUDO_RELOC_LIST__ @ 1610 DATA
	___chkstk_ms @ 1611 DATA
	___crt_xc_end__ @ 1612 DATA
	___crt_xc_start__ @ 1613 DATA
	___crt_xi_end__ @ 1614 DATA
	___crt_xi_start__ @ 1615 DATA
	___crt_xl_start__ @ 1616 DATA
	___crt_xp_end__ @ 1617 DATA
	___crt_xp_start__ @ 1618 DATA
	___crt_xt_end__ @ 1619 DATA
	___crt_xt_start__ @ 1620 DATA
	___tls_end__ @ 1621 DATA
	___tls_start__ @ 1622 DATA
	___w64_mingwthr_add_key_dtor @ 1623
	___w64_mingwthr_remove_key_dtor @ 1624
	__acrt_iob_func @ 1625
	__b2d_D2A @ 1626
	__bigtens_D2A @ 1627 DATA
	__bss_end__ @ 1628 DATA
	__bss_start__ @ 1629 DATA
	__cmp_D2A @ 1630
	__cxa_allocate_dependent_exception @ 1631
	__cxa_allocate_exception @ 1632
	__cxa_begin_catch @ 1633
	__cxa_call_terminate @ 1634
	__cxa_call_unexpected @ 1635
	__cxa_current_exception_type @ 1636
	__cxa_demangle @ 1637
	__cxa_end_catch @ 1638
	__cxa_free_dependent_exception @ 1639
	__cxa_free_exception @ 1640
	__cxa_get_exception_ptr @ 1641
	__cxa_get_globals @ 1642
	__cxa_get_globals_fast @ 1643
	__cxa_guard_abort @ 1644
	__cxa_guard_acquire @ 1645
	__cxa_guard_release @ 1646
	__cxa_init_primary_exception @ 1647
	__cxa_rethrow @ 1648
	__cxa_throw @ 1649
	__d2b_D2A @ 1650
	__data_end__ @ 1651 DATA
	__data_start__ @ 1652 DATA
	__daylight @ 1653
	__diff_D2A @ 1654
	__dll__ @ 1655 DATA
	__dll_characteristics__ @ 1656 DATA
	__do_global_ctors @ 1657
	__do_global_dtors @ 1658
	__dyn_tls_init @ 1659
	__dyn_tls_init_callback @ 1660 DATA
	__dynamic_cast @ 1661
	__emutls_get_address @ 1662
	__emutls_register_common @ 1663
	__file_alignment__ @ 1664 DATA
	__freedtoa @ 1665
	__gcc_deregister_frame @ 1666
	__gcc_register_frame @ 1667
	__gcclibcxx_demangle_callback @ 1668
	__gdtoa @ 1669
	__getmainargs @ 1670
	__gxx_personality_seh0 @ 1671
	__i2b_D2A @ 1672
	__imp_AddVectoredExceptionHandler @ 1673 DATA
	__imp_CloseHandle @ 1674 DATA
	__imp_CreateEventA @ 1675 DATA
	__imp_CreateSemaphoreA @ 1676 DATA
	__imp_DeleteCriticalSection @ 1677 DATA
	__imp_DuplicateHandle @ 1678 DATA
	__imp_EnterCriticalSection @ 1679 DATA
	__imp_FormatMessageA @ 1680 DATA
	__imp_FreeLibrary @ 1681 DATA
	__imp_GetCurrentProcess @ 1682 DATA
	__imp_GetCurrentProcessId @ 1683 DATA
	__imp_GetCurrentThread @ 1684 DATA
	__imp_GetCurrentThreadId @ 1685 DATA
	__imp_GetHandleInformation @ 1686 DATA
	__imp_GetLastError @ 1687 DATA
	__imp_GetModuleFileNameA @ 1688 DATA
	__imp_GetModuleHandleExA @ 1689 DATA
	__imp_GetNativeSystemInfo @ 1690 DATA
	__imp_GetProcAddress @ 1691 DATA
	__imp_GetProcessAffinityMask @ 1692 DATA
	__imp_GetSystemInfo @ 1693 DATA
	__imp_GetSystemTimeAsFileTime @ 1694 DATA
	__imp_GetThreadContext @ 1695 DATA
	__imp_GetThreadPriority @ 1696 DATA
	__imp_GetTickCount64 @ 1697 DATA
	__imp_InitializeCriticalSection @ 1698 DATA
	__imp_InitializeCriticalSectionAndSpinCount @ 1699 DATA
	__imp_IsDebuggerPresent @ 1700 DATA
	__imp_LeaveCriticalSection @ 1701 DATA
	__imp_LoadLibraryA @ 1702 DATA
	__imp_OpenProcess @ 1703 DATA
	__imp_OutputDebugStringA @ 1704 DATA
	__imp_QueryPerformanceCounter @ 1705 DATA
	__imp_QueryPerformanceFrequency @ 1706 DATA
	__imp_RaiseException @ 1707 DATA
	__imp_ReleaseSemaphore @ 1708 DATA
	__imp_RemoveVectoredExceptionHandler @ 1709 DATA
	__imp_ResetEvent @ 1710 DATA
	__imp_ResumeThread @ 1711 DATA
	__imp_RtlCaptureContext @ 1712 DATA
	__imp_RtlLookupFunctionEntry @ 1713 DATA
	__imp_RtlUnwindEx @ 1714 DATA
	__imp_RtlVirtualUnwind @ 1715 DATA
	__imp_SetErrorMode @ 1716 DATA
	__imp_SetEvent @ 1717 DATA
	__imp_SetLastError @ 1718 DATA
	__imp_SetProcessAffinityMask @ 1719 DATA
	__imp_SetThreadContext @ 1720 DATA
	__imp_SetThreadPriority @ 1721 DATA
	__imp_Sleep @ 1722 DATA
	__imp_SuspendThread @ 1723 DATA
	__imp_SwitchToThread @ 1724 DATA
	__imp_TlsAlloc @ 1725 DATA
	__imp_TlsFree @ 1726 DATA
	__imp_TlsGetValue @ 1727 DATA
	__imp_TlsSetValue @ 1728 DATA
	__imp_TryEnterCriticalSection @ 1729 DATA
	__imp_VirtualProtect @ 1730 DATA
	__imp_VirtualQuery @ 1731 DATA
	__imp_WaitForMultipleObjects @ 1732 DATA
	__imp_WaitForSingleObject @ 1733 DATA
	__imp_WaitForSingleObjectEx @ 1734 DATA
	__imp___C_specific_handler @ 1735 DATA
	__imp___acrt_iob_func @ 1736 DATA
	__imp___daylight @ 1737 DATA
	__imp___getmainargs @ 1738 DATA
	__imp___intrinsic_setjmpex @ 1739 DATA
	__imp___ms_fwprintf @ 1740 DATA
	__imp___p___argc @ 1741 DATA
	__imp___p___argv @ 1742 DATA
	__imp___p___wargv @ 1743 DATA
	__imp___p__environ @ 1744 DATA
	__imp___p__wenviron @ 1745 DATA
	__imp___stdio_common_vfprintf @ 1746 DATA
	__imp___stdio_common_vfwprintf @ 1747 DATA
	__imp___stdio_common_vsprintf @ 1748 DATA
	__imp___timezone @ 1749 DATA
	__imp___tzname @ 1750 DATA
	__imp___wgetmainargs @ 1751 DATA
	__imp__amsg_exit @ 1752 DATA
	__imp__beginthreadex @ 1753 DATA
	__imp__configure_narrow_argv @ 1754 DATA
	__imp__configure_wide_argv @ 1755 DATA
	__imp__crt_at_quick_exit @ 1756 DATA
	__imp__crt_atexit @ 1757 DATA
	__imp__endthreadex @ 1758 DATA
	__imp__errno @ 1759 DATA
	__imp__execute_onexit_table @ 1760 DATA
	__imp__exit @ 1761 DATA
	__imp__get_output_format @ 1762 DATA
	__imp__initialize_narrow_environment @ 1763 DATA
	__imp__initialize_onexit_table @ 1764 DATA
	__imp__initialize_wide_environment @ 1765 DATA
	__imp__initterm @ 1766 DATA
	__imp__lock_file @ 1767 DATA
	__imp__onexit @ 1768 DATA
	__imp__register_onexit_function @ 1769 DATA
	__imp__set_new_mode @ 1770 DATA
	__imp__tzset @ 1771 DATA
	__imp__ultoa @ 1772 DATA
	__imp__unlock_file @ 1773 DATA
	__imp_abort @ 1774 DATA
	__imp_at_quick_exit @ 1775 DATA
	__imp_calloc @ 1776 DATA
	__imp_daylight @ 1777 DATA
	__imp_exit @ 1778 DATA
	__imp_fflush @ 1779 DATA
	__imp_fprintf @ 1780 DATA
	__imp_fputc @ 1781 DATA
	__imp_fputs @ 1782 DATA
	__imp_free @ 1783 DATA
	__imp_fwrite @ 1784 DATA
	__imp_getenv @ 1785 DATA
	__imp_localeconv @ 1786 DATA
	__imp_longjmp @ 1787 DATA
	__imp_malloc @ 1788 DATA
	__imp_mbrtowc @ 1789 DATA
	__imp_memchr @ 1790 DATA
	__imp_memcmp @ 1791 DATA
	__imp_memcpy @ 1792 DATA
	__imp_memmove @ 1793 DATA
	__imp_memset @ 1794 DATA
	__imp_printf @ 1795 DATA
	__imp_rand_s @ 1796 DATA
	__imp_read @ 1797 DATA
	__imp_realloc @ 1798 DATA
	__imp_signal @ 1799 DATA
	__imp_sprintf @ 1800 DATA
	__imp_strcat @ 1801 DATA
	__imp_strchr @ 1802 DATA
	__imp_strcmp @ 1803 DATA
	__imp_strcpy @ 1804 DATA
	__imp_strdup @ 1805 DATA
	__imp_strerror @ 1806 DATA
	__imp_strlen @ 1807 DATA
	__imp_strncmp @ 1808 DATA
	__imp_strncpy @ 1809 DATA
	__imp_strrchr @ 1810 DATA
	__imp_strspn @ 1811 DATA
	__imp_strtoul @ 1812 DATA
	__imp_timezone @ 1813 DATA
	__imp_tzname @ 1814 DATA
	__imp_tzset @ 1815 DATA
	__imp_vfprintf @ 1816 DATA
	__imp_wcrtomb @ 1817 DATA
	__imp_wcslen @ 1818 DATA
	__intrinsic_setjmpex @ 1819
	__lib64_libapi_ms_win_crt_convert_l1_1_0_a_iname @ 1820 DATA
	__lib64_libapi_ms_win_crt_environment_l1_1_0_a_iname @ 1821 DATA
	__lib64_libapi_ms_win_crt_filesystem_l1_1_0_a_iname @ 1822 DATA
	__lib64_libapi_ms_win_crt_heap_l1_1_0_a_iname @ 1823 DATA
	__lib64_libapi_ms_win_crt_locale_l1_1_0_a_iname @ 1824 DATA
	__lib64_libapi_ms_win_crt_private_l1_1_0_a_iname @ 1825 DATA
	__lib64_libapi_ms_win_crt_runtime_l1_1_0_a_iname @ 1826 DATA
	__lib64_libapi_ms_win_crt_stdio_l1_1_0_a_iname @ 1827 DATA
	__lib64_libapi_ms_win_crt_string_l1_1_0_a_iname @ 1828 DATA
	__lib64_libapi_ms_win_crt_time_l1_1_0_a_iname @ 1829 DATA
	__lib64_libapi_ms_win_crt_utility_l1_1_0_a_iname @ 1830 DATA
	__lib64_libkernel32_a_iname @ 1831 DATA
	__loader_flags__ @ 1832 DATA
	__lshift_D2A @ 1833
	__main @ 1834
	__major_image_version__ @ 1835 DATA
	__major_os_version__ @ 1836 DATA
	__major_subsystem_version__ @ 1837 DATA
	__mingw_GetSectionCount @ 1838
	__mingw_GetSectionForAddress @ 1839
	__mingw_TLScallback @ 1840
	__mingw_app_type @ 1841 DATA
	__mingw_enum_import_library_names @ 1842
	__mingw_initltsdrot_force @ 1843 DATA
	__mingw_initltsdyn_force @ 1844 DATA
	__mingw_initltssuo_force @ 1845 DATA
	__mingw_module_is_dll @ 1846 DATA
	__mingw_oldexcpt_handler @ 1847 DATA
	__mingw_pformat @ 1848
	__mingw_vfprintf @ 1849
	__mingw_vsnprintf @ 1850
	__minor_image_version__ @ 1851 DATA
	__minor_os_version__ @ 1852 DATA
	__minor_subsystem_version__ @ 1853 DATA
	__ms_fwprintf @ 1854
	__mult_D2A @ 1855
	__multadd_D2A @ 1856
	__native_dllmain_reason @ 1857 DATA
	__native_startup_lock @ 1858 DATA
	__native_startup_state @ 1859 DATA
	__native_vcclrit_reason @ 1860 DATA
	__nrv_alloc_D2A @ 1861
	__p___argc @ 1862
	__p___argv @ 1863
	__p___wargv @ 1864
	__p__environ @ 1865
	__p__wenviron @ 1866
	__pow5mult_D2A @ 1867
	__pth_gpointer_locked @ 1868
	__pthread_clock_nanosleep @ 1869
	__pthread_shallcancel @ 1870
	__quorem_D2A @ 1871
	__rshift_D2A @ 1872
	__rt_psrelocs_end @ 1873 DATA
	__rt_psrelocs_size @ 1874 DATA
	__rt_psrelocs_start @ 1875 DATA
	__rv_alloc_D2A @ 1876
	__section_alignment__ @ 1877 DATA
	__size_of_heap_commit__ @ 1878 DATA
	__size_of_heap_reserve__ @ 1879 DATA
	__size_of_stack_commit__ @ 1880 DATA
	__size_of_stack_reserve__ @ 1881 DATA
	__stdio_common_vfprintf @ 1882
	__stdio_common_vfwprintf @ 1883
	__stdio_common_vsprintf @ 1884
	__strcp_D2A @ 1885
	__subsystem__ @ 1886 DATA
	__tens_D2A @ 1887 DATA
	__timezone @ 1888
	__tinytens_D2A @ 1889 DATA
	__tlregdtor @ 1890
	__trailz_D2A @ 1891
	__tzname @ 1892
	__wgetmainargs @ 1893
	__xc_a @ 1894 DATA
	__xc_z @ 1895 DATA
	__xi_a @ 1896 DATA
	__xi_z @ 1897 DATA
	__xl_a @ 1898 DATA
	__xl_c @ 1899 DATA
	__xl_d @ 1900 DATA
	__xl_f @ 1901 DATA
	__xl_z @ 1902 DATA
	_amsg_exit @ 1903
	_beginthreadex @ 1904 DATA
	_configure_narrow_argv @ 1905
	_configure_wide_argv @ 1906
	_crt_at_quick_exit @ 1907
	_crt_atexit @ 1908
	_endthreadex @ 1909 DATA
	_errno @ 1910
	_execute_onexit_table @ 1911
	_exit @ 1912
	_fpreset @ 1913
	_get_output_format @ 1914
	_gnu_exception_handler @ 1915
	_head_lib64_libapi_ms_win_crt_convert_l1_1_0_a @ 1916 DATA
	_head_lib64_libapi_ms_win_crt_environment_l1_1_0_a @ 1917 DATA
	_head_lib64_libapi_ms_win_crt_filesystem_l1_1_0_a @ 1918 DATA
	_head_lib64_libapi_ms_win_crt_heap_l1_1_0_a @ 1919 DATA
	_head_lib64_libapi_ms_win_crt_locale_l1_1_0_a @ 1920 DATA
	_head_lib64_libapi_ms_win_crt_private_l1_1_0_a @ 1921 DATA
	_head_lib64_libapi_ms_win_crt_runtime_l1_1_0_a @ 1922 DATA
	_head_lib64_libapi_ms_win_crt_stdio_l1_1_0_a @ 1923 DATA
	_head_lib64_libapi_ms_win_crt_string_l1_1_0_a @ 1924 DATA
	_head_lib64_libapi_ms_win_crt_time_l1_1_0_a @ 1925 DATA
	_head_lib64_libapi_ms_win_crt_utility_l1_1_0_a @ 1926 DATA
	_head_lib64_libkernel32_a @ 1927 DATA
	_initialize_narrow_environment @ 1928
	_initialize_onexit_table @ 1929
	_initialize_wide_environment @ 1930
	_initterm @ 1931
	_lock_file @ 1932
	_onexit @ 1933
	_pei386_runtime_relocator @ 1934
	_pthread_cleanup_dest @ 1935
	_pthread_get_state @ 1936
	_pthread_invoke_cancel @ 1937
	_pthread_key_dest @ 1938 DATA
	_pthread_rel_time_in_ms @ 1939
	_pthread_set_state @ 1940
	_pthread_setnobreak @ 1941
	_pthread_time_in_ms @ 1942
	_pthread_time_in_ms_from_timespec @ 1943
	_pthread_tryjoin @ 1944
	_pthread_wait_for_multiple_objects @ 1945
	_pthread_wait_for_single_object @ 1946
	_register_onexit_function @ 1947
	_set_new_mode @ 1948
	_tls_end @ 1949 DATA
	_tls_index @ 1950 DATA
	_tls_start @ 1951 DATA
	_tls_used @ 1952 DATA
	_tzset @ 1953
	_ultoa @ 1954 DATA
	_unlock_file @ 1955
	abort @ 1956
	at_quick_exit @ 1957
	atexit @ 1958
	calloc @ 1959
	cond_print @ 1960
	cond_print_set @ 1961
	do_sema_b_wait_intern @ 1962
	exit @ 1963
	fflush @ 1964
	fpreset @ 1965
	fprintf @ 1966
	fputc @ 1967
	fputs @ 1968
	free @ 1969
	fwrite @ 1970
	getenv @ 1971
	localeconv @ 1972
	longjmp @ 1973 DATA
	malloc @ 1974
	mbrtowc @ 1975
	memchr @ 1976
	memcmp @ 1977
	memcpy @ 1978
	memmove @ 1979
	memset @ 1980
	pcinit @ 1981 DATA
	printf @ 1982
	pthread_attr_destroy @ 1983
	pthread_attr_getdetachstate @ 1984
	pthread_attr_getinheritsched @ 1985
	pthread_attr_getschedparam @ 1986
	pthread_attr_getschedpolicy @ 1987
	pthread_attr_getscope @ 1988
	pthread_attr_getstack @ 1989
	pthread_attr_getstackaddr @ 1990
	pthread_attr_getstacksize @ 1991
	pthread_attr_init @ 1992
	pthread_attr_setdetachstate @ 1993
	pthread_attr_setinheritsched @ 1994
	pthread_attr_setschedparam @ 1995
	pthread_attr_setschedpolicy @ 1996
	pthread_attr_setscope @ 1997
	pthread_attr_setstack @ 1998
	pthread_attr_setstackaddr @ 1999
	pthread_attr_setstacksize @ 2000
	pthread_cancel @ 2001
	pthread_cond_broadcast @ 2002
	pthread_cond_destroy @ 2003
	pthread_cond_init @ 2004
	pthread_cond_signal @ 2005
	pthread_cond_timedwait @ 2006
	pthread_cond_timedwait_relative_np @ 2007
	pthread_cond_wait @ 2008
	pthread_condattr_destroy @ 2009
	pthread_condattr_getclock @ 2010
	pthread_condattr_getpshared @ 2011
	pthread_condattr_init @ 2012
	pthread_condattr_setclock @ 2013
	pthread_condattr_setpshared @ 2014
	pthread_create @ 2015
	pthread_create_wrapper @ 2016
	pthread_delay_np @ 2017
	pthread_delay_np_ms @ 2018
	pthread_detach @ 2019
	pthread_equal @ 2020
	pthread_exit @ 2021
	pthread_get_concurrency @ 2022
	pthread_getclean @ 2023
	pthread_getconcurrency @ 2024
	pthread_getevent @ 2025
	pthread_gethandle @ 2026
	pthread_getname_np @ 2027
	pthread_getschedparam @ 2028
	pthread_getspecific @ 2029
	pthread_join @ 2030
	pthread_key_create @ 2031
	pthread_key_delete @ 2032
	pthread_kill @ 2033
	pthread_mutex_destroy @ 2034
	pthread_mutex_init @ 2035
	pthread_mutex_lock @ 2036
	pthread_mutex_timedlock @ 2037
	pthread_mutex_trylock @ 2038
	pthread_mutex_unlock @ 2039
	pthread_mutexattr_destroy @ 2040
	pthread_mutexattr_getprioceiling @ 2041
	pthread_mutexattr_getprotocol @ 2042
	pthread_mutexattr_getpshared @ 2043
	pthread_mutexattr_gettype @ 2044
	pthread_mutexattr_init @ 2045
	pthread_mutexattr_setprioceiling @ 2046
	pthread_mutexattr_setprotocol @ 2047
	pthread_mutexattr_setpshared @ 2048
	pthread_mutexattr_settype @ 2049
	pthread_num_processors_np @ 2050
	pthread_once @ 2051
	pthread_rwlock_destroy @ 2052
	pthread_rwlock_init @ 2053
	pthread_rwlock_rdlock @ 2054
	pthread_rwlock_timedrdlock @ 2055
	pthread_rwlock_timedwrlock @ 2056
	pthread_rwlock_tryrdlock @ 2057
	pthread_rwlock_trywrlock @ 2058
	pthread_rwlock_unlock @ 2059
	pthread_rwlock_wrlock @ 2060
	pthread_rwlockattr_destroy @ 2061
	pthread_rwlockattr_getpshared @ 2062
	pthread_rwlockattr_init @ 2063
	pthread_rwlockattr_setpshared @ 2064
	pthread_self @ 2065
	pthread_set_concurrency @ 2066
	pthread_set_num_processors_np @ 2067
	pthread_setcancelstate @ 2068
	pthread_setcanceltype @ 2069
	pthread_setconcurrency @ 2070
	pthread_setname_np @ 2071
	pthread_setschedparam @ 2072
	pthread_setspecific @ 2073
	pthread_spin_destroy @ 2074
	pthread_spin_init @ 2075
	pthread_spin_lock @ 2076
	pthread_spin_trylock @ 2077
	pthread_spin_unlock @ 2078
	pthread_testcancel @ 2079
	pthread_timechange_handler_np @ 2080
	pthread_tls_init @ 2081
	rand_s @ 2082 DATA
	read @ 2083
	realloc @ 2084
	rwl_print @ 2085
	rwl_print_set @ 2086
	sched_get_priority_max @ 2087
	sched_get_priority_min @ 2088
	sched_getscheduler @ 2089
	sched_setscheduler @ 2090
	sched_yield @ 2091
	signal @ 2092
	sprintf @ 2093
	strcat @ 2094
	strchr @ 2095
	strcmp @ 2096
	strcpy @ 2097
	strdup @ 2098
	strerror @ 2099
	strlen @ 2100
	strncmp @ 2101
	strncpy @ 2102
	strnlen @ 2103
	strrchr @ 2104
	strspn @ 2105
	strtoul @ 2106
	thread_print @ 2107
	thread_print_set @ 2108
	tzset @ 2109
	vfprintf @ 2110
	wcrtomb @ 2111
	wcslen @ 2112
	wcsnlen @ 2113
