; C:\rtools44\x86_64-w64-mingw32.static.posix\bin\dlltool.exe --export-all-symbols --output-def dummy_stan_model_win_model.def dummy_stan_model_win_model.dll
EXPORTS
	".refptr._CRT_MT" @ 1 DATA
	".refptr._ZN10__cxxabiv119__terminate_handlerE" @ 2 DATA
	".refptr._ZN10__cxxabiv120__unexpected_handlerE" @ 3 DATA
	".refptr._ZN14__gnu_internal12buf_cin_syncE" @ 4 DATA
	".refptr._ZN14__gnu_internal13buf_cerr_syncE" @ 5 DATA
	".refptr._ZN14__gnu_internal13buf_cout_syncE" @ 6 DATA
	".refptr._ZN14__gnu_internal13buf_wcin_syncE" @ 7 DATA
	".refptr._ZN14__gnu_internal14buf_wcerr_syncE" @ 8 DATA
	".refptr._ZN14__gnu_internal14buf_wcout_syncE" @ 9 DATA
	".refptr._ZN14__gnu_internal7buf_cinE" @ 10 DATA
	".refptr._ZN14__gnu_internal8buf_cerrE" @ 11 DATA
	".refptr._ZN14__gnu_internal8buf_coutE" @ 12 DATA
	".refptr._ZN14__gnu_internal8buf_wcinE" @ 13 DATA
	".refptr._ZN14__gnu_internal9buf_wcerrE" @ 14 DATA
	".refptr._ZN14__gnu_internal9buf_wcoutE" @ 15 DATA
	".refptr._ZN9__gnu_cxx27__verbose_terminate_handlerEv" @ 16 DATA
	".refptr._ZNSbIwSt11char_traitsIwESaIwEE4_Rep20_S_empty_rep_storageE" @ 17 DATA
	".refptr._ZNSs4_Rep20_S_empty_rep_storageE" @ 18 DATA
	".refptr._ZNSt10__num_base11_S_atoms_inE" @ 19 DATA
	".refptr._ZNSt10__num_base12_S_atoms_outE" @ 20 DATA
	".refptr._ZNSt10bad_typeidD1Ev" @ 21 DATA
	".refptr._ZNSt10money_base18_S_default_patternE" @ 22 DATA
	".refptr._ZNSt10money_base8_S_atomsE" @ 23 DATA
	".refptr._ZNSt10moneypunctIcLb0EE2idE" @ 24 DATA
	".refptr._ZNSt10moneypunctIcLb1EE2idE" @ 25 DATA
	".refptr._ZNSt10moneypunctIwLb0EE2idE" @ 26 DATA
	".refptr._ZNSt10moneypunctIwLb1EE2idE" @ 27 DATA
	".refptr._ZNSt11__timepunctIcE2idE" @ 28 DATA
	".refptr._ZNSt11__timepunctIwE2idE" @ 29 DATA
	".refptr._ZNSt11logic_errorD1Ev" @ 30 DATA
	".refptr._ZNSt11range_errorD1Ev" @ 31 DATA
	".refptr._ZNSt12domain_errorD1Ev" @ 32 DATA
	".refptr._ZNSt12length_errorD1Ev" @ 33 DATA
	".refptr._ZNSt12out_of_rangeD1Ev" @ 34 DATA
	".refptr._ZNSt13bad_exceptionD1Ev" @ 35 DATA
	".refptr._ZNSt13runtime_errorD1Ev" @ 36 DATA
	".refptr._ZNSt14overflow_errorD1Ev" @ 37 DATA
	".refptr._ZNSt15underflow_errorD1Ev" @ 38 DATA
	".refptr._ZNSt16invalid_argumentD1Ev" @ 39 DATA
	".refptr._ZNSt17__timepunct_cacheIcE12_S_timezonesE" @ 40 DATA
	".refptr._ZNSt17__timepunct_cacheIwE12_S_timezonesE" @ 41 DATA
	".refptr._ZNSt20bad_array_new_lengthD1Ev" @ 42 DATA
	".refptr._ZNSt5ctypeIcE2idE" @ 43 DATA
	".refptr._ZNSt5ctypeIwE2idE" @ 44 DATA
	".refptr._ZNSt6locale10_S_classicE" @ 45 DATA
	".refptr._ZNSt6locale13_S_categoriesE" @ 46 DATA
	".refptr._ZNSt6locale17_S_twinned_facetsE" @ 47 DATA
	".refptr._ZNSt6locale7_S_onceE" @ 48 DATA
	".refptr._ZNSt6locale9_S_globalE" @ 49 DATA
	".refptr._ZNSt7__cxx1110moneypunctIcLb0EE2idE" @ 50 DATA
	".refptr._ZNSt7__cxx1110moneypunctIcLb1EE2idE" @ 51 DATA
	".refptr._ZNSt7__cxx1110moneypunctIwLb0EE2idE" @ 52 DATA
	".refptr._ZNSt7__cxx1110moneypunctIwLb1EE2idE" @ 53 DATA
	".refptr._ZNSt7__cxx117collateIcE2idE" @ 54 DATA
	".refptr._ZNSt7__cxx117collateIwE2idE" @ 55 DATA
	".refptr._ZNSt7__cxx118messagesIcE2idE" @ 56 DATA
	".refptr._ZNSt7__cxx118messagesIwE2idE" @ 57 DATA
	".refptr._ZNSt7__cxx118numpunctIcE2idE" @ 58 DATA
	".refptr._ZNSt7__cxx118numpunctIwE2idE" @ 59 DATA
	".refptr._ZNSt7__cxx118time_getIcSt19istreambuf_iteratorIcSt11char_traitsIcEEE2idE" @ 60 DATA
	".refptr._ZNSt7__cxx118time_getIwSt19istreambuf_iteratorIwSt11char_traitsIwEEE2idE" @ 61 DATA
	".refptr._ZNSt7__cxx119money_getIcSt19istreambuf_iteratorIcSt11char_traitsIcEEE2idE" @ 62 DATA
	".refptr._ZNSt7__cxx119money_getIwSt19istreambuf_iteratorIwSt11char_traitsIwEEE2idE" @ 63 DATA
	".refptr._ZNSt7__cxx119money_putIcSt19ostreambuf_iteratorIcSt11char_traitsIcEEE2idE" @ 64 DATA
	".refptr._ZNSt7__cxx119money_putIwSt19ostreambuf_iteratorIwSt11char_traitsIwEEE2idE" @ 65 DATA
	".refptr._ZNSt7codecvtIDiDu9_MbstatetE2idE" @ 66 DATA
	".refptr._ZNSt7codecvtIDic9_MbstatetE2idE" @ 67 DATA
	".refptr._ZNSt7codecvtIDsDu9_MbstatetE2idE" @ 68 DATA
	".refptr._ZNSt7codecvtIDsc9_MbstatetE2idE" @ 69 DATA
	".refptr._ZNSt7codecvtIcc9_MbstatetE2idE" @ 70 DATA
	".refptr._ZNSt7codecvtIwc9_MbstatetE2idE" @ 71 DATA
	".refptr._ZNSt7collateIcE2idE" @ 72 DATA
	".refptr._ZNSt7collateIwE2idE" @ 73 DATA
	".refptr._ZNSt7num_getIcSt19istreambuf_iteratorIcSt11char_traitsIcEEE2idE" @ 74 DATA
	".refptr._ZNSt7num_getIwSt19istreambuf_iteratorIwSt11char_traitsIwEEE2idE" @ 75 DATA
	".refptr._ZNSt7num_putIcSt19ostreambuf_iteratorIcSt11char_traitsIcEEE2idE" @ 76 DATA
	".refptr._ZNSt7num_putIwSt19ostreambuf_iteratorIwSt11char_traitsIwEEE2idE" @ 77 DATA
	".refptr._ZNSt8bad_castD1Ev" @ 78 DATA
	".refptr._ZNSt8ios_base4Init11_S_refcountE" @ 79 DATA
	".refptr._ZNSt8ios_base4Init20_S_synced_with_stdioE" @ 80 DATA
	".refptr._ZNSt8messagesIcE2idE" @ 81 DATA
	".refptr._ZNSt8messagesIwE2idE" @ 82 DATA
	".refptr._ZNSt8numpunctIcE2idE" @ 83 DATA
	".refptr._ZNSt8numpunctIwE2idE" @ 84 DATA
	".refptr._ZNSt8time_getIcSt19istreambuf_iteratorIcSt11char_traitsIcEEE2idE" @ 85 DATA
	".refptr._ZNSt8time_getIwSt19istreambuf_iteratorIwSt11char_traitsIwEEE2idE" @ 86 DATA
	".refptr._ZNSt8time_putIcSt19ostreambuf_iteratorIcSt11char_traitsIcEEE2idE" @ 87 DATA
	".refptr._ZNSt8time_putIwSt19ostreambuf_iteratorIwSt11char_traitsIwEEE2idE" @ 88 DATA
	".refptr._ZNSt9bad_allocD1Ev" @ 89 DATA
	".refptr._ZNSt9money_getIcSt19istreambuf_iteratorIcSt11char_traitsIcEEE2idE" @ 90 DATA
	".refptr._ZNSt9money_getIwSt19istreambuf_iteratorIwSt11char_traitsIwEEE2idE" @ 91 DATA
	".refptr._ZNSt9money_putIcSt19ostreambuf_iteratorIcSt11char_traitsIcEEE2idE" @ 92 DATA
	".refptr._ZNSt9money_putIwSt19ostreambuf_iteratorIwSt11char_traitsIwEEE2idE" @ 93 DATA
	".refptr._ZSt3cin" @ 94 DATA
	".refptr._ZSt4cerr" @ 95 DATA
	".refptr._ZSt4clog" @ 96 DATA
	".refptr._ZSt4cout" @ 97 DATA
	".refptr._ZSt4wcin" @ 98 DATA
	".refptr._ZSt5wcerr" @ 99 DATA
	".refptr._ZSt5wclog" @ 100 DATA
	".refptr._ZSt5wcout" @ 101 DATA
	".refptr._ZSt7nothrow" @ 102 DATA
	".refptr._ZTISt11__timepunctIcE" @ 103 DATA
	".refptr._ZTISt11__timepunctIwE" @ 104 DATA
	".refptr._ZTTNSt7__cxx1118basic_stringstreamIcSt11char_traitsIcESaIcEEE" @ 105 DATA
	".refptr._ZTTNSt7__cxx1119basic_istringstreamIcSt11char_traitsIcESaIcEEE" @ 106 DATA
	".refptr._ZTTSt14basic_ifstreamIcSt11char_traitsIcEE" @ 107 DATA
	".refptr._ZTVN9__gnu_cxx18stdio_sync_filebufIcSt11char_traitsIcEEE" @ 108 DATA
	".refptr._ZTVN9__gnu_cxx18stdio_sync_filebufIwSt11char_traitsIwEEE" @ 109 DATA
	".refptr._ZTVNSt7__cxx1110moneypunctIcLb0EEE" @ 110 DATA
	".refptr._ZTVNSt7__cxx1110moneypunctIcLb1EEE" @ 111 DATA
	".refptr._ZTVNSt7__cxx1110moneypunctIwLb0EEE" @ 112 DATA
	".refptr._ZTVNSt7__cxx1110moneypunctIwLb1EEE" @ 113 DATA
	".refptr._ZTVNSt7__cxx1115basic_stringbufIcSt11char_traitsIcESaIcEEE" @ 114 DATA
	".refptr._ZTVNSt7__cxx1118basic_stringstreamIcSt11char_traitsIcESaIcEEE" @ 115 DATA
	".refptr._ZTVNSt7__cxx1119basic_istringstreamIcSt11char_traitsIcESaIcEEE" @ 116 DATA
	".refptr._ZTVNSt7__cxx117collateIcEE" @ 117 DATA
	".refptr._ZTVNSt7__cxx117collateIwEE" @ 118 DATA
	".refptr._ZTVNSt7__cxx118numpunctIcEE" @ 119 DATA
	".refptr._ZTVNSt7__cxx118numpunctIwEE" @ 120 DATA
	".refptr._ZTVNSt7__cxx118time_getIcSt19istreambuf_iteratorIcSt11char_traitsIcEEEE" @ 121 DATA
	".refptr._ZTVNSt7__cxx118time_getIwSt19istreambuf_iteratorIwSt11char_traitsIwEEEE" @ 122 DATA
	".refptr._ZTVNSt7__cxx119money_getIcSt19istreambuf_iteratorIcSt11char_traitsIcEEEE" @ 123 DATA
	".refptr._ZTVNSt7__cxx119money_getIwSt19istreambuf_iteratorIwSt11char_traitsIwEEEE" @ 124 DATA
	".refptr._ZTVNSt7__cxx119money_putIcSt19ostreambuf_iteratorIcSt11char_traitsIcEEEE" @ 125 DATA
	".refptr._ZTVNSt7__cxx119money_putIwSt19ostreambuf_iteratorIwSt11char_traitsIwEEEE" @ 126 DATA
	".refptr._ZTVSi" @ 127 DATA
	".refptr._ZTVSo" @ 128 DATA
	".refptr._ZTVSt10bad_typeid" @ 129 DATA
	".refptr._ZTVSt10moneypunctIcLb0EE" @ 130 DATA
	".refptr._ZTVSt10moneypunctIcLb1EE" @ 131 DATA
	".refptr._ZTVSt10moneypunctIwLb0EE" @ 132 DATA
	".refptr._ZTVSt10moneypunctIwLb1EE" @ 133 DATA
	".refptr._ZTVSt11logic_error" @ 134 DATA
	".refptr._ZTVSt11range_error" @ 135 DATA
	".refptr._ZTVSt12domain_error" @ 136 DATA
	".refptr._ZTVSt12length_error" @ 137 DATA
	".refptr._ZTVSt12out_of_range" @ 138 DATA
	".refptr._ZTVSt12system_error" @ 139 DATA
	".refptr._ZTVSt13bad_exception" @ 140 DATA
	".refptr._ZTVSt13basic_filebufIcSt11char_traitsIcEE" @ 141 DATA
	".refptr._ZTVSt13basic_filebufIwSt11char_traitsIwEE" @ 142 DATA
	".refptr._ZTVSt13basic_istreamIwSt11char_traitsIwEE" @ 143 DATA
	".refptr._ZTVSt13basic_ostreamIwSt11char_traitsIwEE" @ 144 DATA
	".refptr._ZTVSt13runtime_error" @ 145 DATA
	".refptr._ZTVSt14basic_ifstreamIcSt11char_traitsIcEE" @ 146 DATA
	".refptr._ZTVSt14codecvt_bynameIcc9_MbstatetE" @ 147 DATA
	".refptr._ZTVSt14codecvt_bynameIwc9_MbstatetE" @ 148 DATA
	".refptr._ZTVSt14overflow_error" @ 149 DATA
	".refptr._ZTVSt15basic_streambufIcSt11char_traitsIcEE" @ 150 DATA
	".refptr._ZTVSt15basic_streambufIwSt11char_traitsIwEE" @ 151 DATA
	".refptr._ZTVSt15time_put_bynameIcSt19ostreambuf_iteratorIcSt11char_traitsIcEEE" @ 152 DATA
	".refptr._ZTVSt15time_put_bynameIwSt19ostreambuf_iteratorIwSt11char_traitsIwEEE" @ 153 DATA
	".refptr._ZTVSt15underflow_error" @ 154 DATA
	".refptr._ZTVSt16__numpunct_cacheIcE" @ 155 DATA
	".refptr._ZTVSt16__numpunct_cacheIwE" @ 156 DATA
	".refptr._ZTVSt16invalid_argument" @ 157 DATA
	".refptr._ZTVSt17__timepunct_cacheIcE" @ 158 DATA
	".refptr._ZTVSt17__timepunct_cacheIwE" @ 159 DATA
	".refptr._ZTVSt18__moneypunct_cacheIcLb0EE" @ 160 DATA
	".refptr._ZTVSt18__moneypunct_cacheIcLb1EE" @ 161 DATA
	".refptr._ZTVSt18__moneypunct_cacheIwLb0EE" @ 162 DATA
	".refptr._ZTVSt18__moneypunct_cacheIwLb1EE" @ 163 DATA
	".refptr._ZTVSt20bad_array_new_length" @ 164 DATA
	".refptr._ZTVSt21__ctype_abstract_baseIwE" @ 165 DATA
	".refptr._ZTVSt23__codecvt_abstract_baseIcc9_MbstatetE" @ 166 DATA
	".refptr._ZTVSt23__codecvt_abstract_baseIwc9_MbstatetE" @ 167 DATA
	".refptr._ZTVSt5ctypeIcE" @ 168 DATA
	".refptr._ZTVSt7codecvtIDiDu9_MbstatetE" @ 169 DATA
	".refptr._ZTVSt7codecvtIDic9_MbstatetE" @ 170 DATA
	".refptr._ZTVSt7codecvtIDsDu9_MbstatetE" @ 171 DATA
	".refptr._ZTVSt7codecvtIDsc9_MbstatetE" @ 172 DATA
	".refptr._ZTVSt7collateIcE" @ 173 DATA
	".refptr._ZTVSt7collateIwE" @ 174 DATA
	".refptr._ZTVSt7num_getIcSt19istreambuf_iteratorIcSt11char_traitsIcEEE" @ 175 DATA
	".refptr._ZTVSt7num_getIwSt19istreambuf_iteratorIwSt11char_traitsIwEEE" @ 176 DATA
	".refptr._ZTVSt7num_putIcSt19ostreambuf_iteratorIcSt11char_traitsIcEEE" @ 177 DATA
	".refptr._ZTVSt7num_putIwSt19ostreambuf_iteratorIwSt11char_traitsIwEEE" @ 178 DATA
	".refptr._ZTVSt8bad_cast" @ 179 DATA
	".refptr._ZTVSt8numpunctIcE" @ 180 DATA
	".refptr._ZTVSt8numpunctIwE" @ 181 DATA
	".refptr._ZTVSt8time_getIcSt19istreambuf_iteratorIcSt11char_traitsIcEEE" @ 182 DATA
	".refptr._ZTVSt8time_getIwSt19istreambuf_iteratorIwSt11char_traitsIwEEE" @ 183 DATA
	".refptr._ZTVSt8time_putIcSt19ostreambuf_iteratorIcSt11char_traitsIcEEE" @ 184 DATA
	".refptr._ZTVSt8time_putIwSt19ostreambuf_iteratorIwSt11char_traitsIwEEE" @ 185 DATA
	".refptr._ZTVSt9bad_alloc" @ 186 DATA
	".refptr._ZTVSt9basic_iosIcSt11char_traitsIcEE" @ 187 DATA
	".refptr._ZTVSt9basic_iosIwSt11char_traitsIwEE" @ 188 DATA
	".refptr._ZTVSt9money_getIcSt19istreambuf_iteratorIcSt11char_traitsIcEEE" @ 189 DATA
	".refptr._ZTVSt9money_getIwSt19istreambuf_iteratorIwSt11char_traitsIwEEE" @ 190 DATA
	".refptr._ZTVSt9money_putIcSt19ostreambuf_iteratorIcSt11char_traitsIcEEE" @ 191 DATA
	".refptr._ZTVSt9money_putIwSt19ostreambuf_iteratorIwSt11char_traitsIwEEE" @ 192 DATA
	".refptr.__CTOR_LIST__" @ 193 DATA
	".refptr.__RUNTIME_PSEUDO_RELOC_LIST_END__" @ 194 DATA
	".refptr.__RUNTIME_PSEUDO_RELOC_LIST__" @ 195 DATA
	".refptr.__bigtens_D2A" @ 196 DATA
	".refptr.__dyn_tls_init_callback" @ 197 DATA
	".refptr.__hexdig_D2A" @ 198 DATA
	".refptr.__image_base__" @ 199 DATA
	".refptr.__imp__tzset" @ 200 DATA
	".refptr.__mingw_app_type" @ 201 DATA
	".refptr.__mingw_module_is_dll" @ 202 DATA
	".refptr.__native_dllmain_reason" @ 203 DATA
	".refptr.__native_startup_lock" @ 204 DATA
	".refptr.__native_startup_state" @ 205 DATA
	".refptr.__tens_D2A" @ 206 DATA
	".refptr.__tinytens_D2A" @ 207 DATA
	".refptr.__xc_a" @ 208 DATA
	".refptr.__xc_z" @ 209 DATA
	".refptr.__xi_a" @ 210 DATA
	".refptr.__xi_z" @ 211 DATA
	".weak.__cxa_pure_virtual._ZN3tbb8internal26task_scheduler_observer_v318on_scheduler_entryEb" @ 212 DATA
	".weak.__cxa_pure_virtual._ZNKSt10moneypunctIwLb0EE16do_decimal_pointEv" @ 213 DATA
	".weak.__cxa_pure_virtual._ZNKSt3_V214error_category23default_error_conditionEi" @ 214 DATA
	".weak.__cxa_pure_virtual._ZNKSt5ctypeIcE8do_widenEc" @ 215 DATA
	".weak.__cxa_pure_virtual._ZNKSt7codecvtIDsc9_MbstatetE10do_unshiftERS0_PcS3_RS3_" @ 216 DATA
	".weak.__cxa_pure_virtual._ZNSt9exceptionD2Ev" @ 217 DATA
	AddVectoredExceptionHandler @ 218 DATA
	CloseHandle @ 219 DATA
	CreateEventA @ 220 DATA
	CreateSemaphoreA @ 221 DATA
	DeleteCriticalSection @ 222 DATA
	DllEntryPoint @ 223
	DllMain @ 224
	DllMainCRTStartup @ 225
	DuplicateHandle @ 226 DATA
	EnterCriticalSection @ 227 DATA
	FormatMessageA @ 228 DATA
	FreeLibrary @ 229 DATA
	GetCurrentProcess @ 230 DATA
	GetCurrentProcessId @ 231 DATA
	GetCurrentThread @ 232 DATA
	GetCurrentThreadId @ 233 DATA
	GetHandleInformation @ 234 DATA
	GetLastError @ 235 DATA
	GetModuleHandleExW @ 236 DATA
	GetProcessAffinityMask @ 237 DATA
	GetSystemTimeAsFileTime @ 238 DATA
	GetThreadContext @ 239 DATA
	GetThreadPriority @ 240 DATA
	GetTickCount64 @ 241 DATA
	InitializeCriticalSection @ 242 DATA
	IsDebuggerPresent @ 243 DATA
	LeaveCriticalSection @ 244 DATA
	LocalFree @ 245 DATA
	MultiByteToWideChar @ 246 DATA
	OpenProcess @ 247 DATA
	OutputDebugStringA @ 248 DATA
	RaiseException @ 249 DATA
	ReleaseSemaphore @ 250 DATA
	RemoveVectoredExceptionHandler @ 251 DATA
	ResetEvent @ 252 DATA
	ResumeThread @ 253 DATA
	RtlCaptureContext @ 254 DATA
	RtlLookupFunctionEntry @ 255 DATA
	RtlUnwindEx @ 256 DATA
	RtlVirtualUnwind @ 257 DATA
	SetEvent @ 258 DATA
	SetLastError @ 259 DATA
	SetProcessAffinityMask @ 260 DATA
	SetThreadContext @ 261 DATA
	SetThreadPriority @ 262 DATA
	Sleep @ 263 DATA
	SuspendThread @ 264 DATA
	TlsAlloc @ 265 DATA
	TlsGetValue @ 266 DATA
	TlsSetValue @ 267 DATA
	TryEnterCriticalSection @ 268 DATA
	VirtualProtect @ 269 DATA
	VirtualQuery @ 270 DATA
	WaitForMultipleObjects @ 271 DATA
	WaitForSingleObject @ 272 DATA
	WideCharToMultiByte @ 273 DATA
	_CRT_INIT @ 274
	_CRT_MT @ 275 DATA
	_FindPESection @ 276
	_FindPESectionByName @ 277
	_FindPESectionExec @ 278
	_GCC_specific_handler @ 279
	_GetPEImageBase @ 280
	_IsNonwritableInCurrentImage @ 281
	_Unwind_Backtrace @ 282
	_Unwind_DeleteException @ 283
	_Unwind_FindEnclosingFunction @ 284
	_Unwind_ForcedUnwind @ 285
	_Unwind_GetCFA @ 286
	_Unwind_GetDataRelBase @ 287
	_Unwind_GetGR @ 288
	_Unwind_GetIP @ 289
	_Unwind_GetIPInfo @ 290
	_Unwind_GetLanguageSpecificData @ 291
	_Unwind_GetRegionStart @ 292
	_Unwind_GetTextRelBase @ 293
	_Unwind_RaiseException @ 294
	_Unwind_Resume @ 295
	_Unwind_Resume_or_Rethrow @ 296
	_Unwind_SetGR @ 297
	_Unwind_SetIP @ 298
	_ValidateImageBase @ 299
;	get_stan_profile_data[abi:cxx11]()
	_Z21get_stan_profile_dataB5cxx11v @ 300
;	to_csv(std::vector<std::__cxx11::basic_string<char, std::char_traits<char>, std::allocator<char> >, std::allocator<std::__cxx11::basic_string<char, std::char_traits<char>, std::allocator<char> > > > const&)
	_Z6to_csvRKSt6vectorINSt7__cxx1112basic_stringIcSt11char_traitsIcESaIcEEESaIS5_EE @ 301
;	new_model(stan::io::var_context&, unsigned int, std::ostream*)
	_Z9new_modelRN4stan2io11var_contextEjPSo @ 302
;	transaction clone for std::bad_exception::what() const
	_ZGTtNKSt13bad_exception4whatEv @ 303
;	transaction clone for std::bad_exception::~bad_exception() const
	_ZGTtNKSt13bad_exceptionD1Ev @ 304
;	transaction clone for std::exception::what() const
	_ZGTtNKSt9exception4whatEv @ 305
;	transaction clone for std::exception::~exception() const
	_ZGTtNKSt9exceptionD1Ev @ 306
;	guard variable for boost::math::detail::erf_initializer<double, boost::math::policies::policy<boost::math::policies::pole_error<(boost::math::policies::error_policy_type)1>, boost::math::policies::overflow_error<(boost::math::policies::error_policy_type)1>, boost::math::policies::promote_float<false>, boost::math::policies::promote_double<false>, boost::math::policies::default_policy, boost::math::policies::default_policy, boost::math::policies::default_policy, boost::math::policies::default_policy, boost::math::policies::default_policy, boost::math::policies::default_policy, boost::math::policies::default_policy, boost::math::policies::default_policy, boost::math::policies::default_policy>, std::integral_constant<int, 53> >::initializer
	_ZGVN5boost4math6detail15erf_initializerIdNS0_8policies6policyINS3_10pole_errorILNS3_17error_policy_typeE1EEENS3_14overflow_errorILS6_1EEENS3_13promote_floatILb0EEENS3_14promote_doubleILb0EEENS3_14default_policyESE_SE_SE_SE_SE_SE_SE_SE_EESt17integral_constantIiLi53EEE11initializerE @ 307 DATA
;	guard variable for boost::math::detail::erf_initializer<long double, boost::math::policies::policy<boost::math::policies::promote_float<false>, boost::math::policies::promote_double<false>, boost::math::policies::default_policy, boost::math::policies::default_policy, boost::math::policies::default_policy, boost::math::policies::default_policy, boost::math::policies::default_policy, boost::math::policies::default_policy, boost::math::policies::default_policy, boost::math::policies::default_policy, boost::math::policies::default_policy, boost::math::policies::default_policy, boost::math::policies::default_policy>, std::integral_constant<int, 64> >::initializer
	_ZGVN5boost4math6detail15erf_initializerIeNS0_8policies6policyINS3_13promote_floatILb0EEENS3_14promote_doubleILb0EEENS3_14default_policyES9_S9_S9_S9_S9_S9_S9_S9_S9_S9_EESt17integral_constantIiLi64EEE11initializerE @ 308 DATA
;	guard variable for boost::math::detail::expm1_initializer<double, boost::math::policies::policy<boost::math::policies::pole_error<(boost::math::policies::error_policy_type)1>, boost::math::policies::overflow_error<(boost::math::policies::error_policy_type)1>, boost::math::policies::promote_float<false>, boost::math::policies::promote_double<false>, boost::math::policies::default_policy, boost::math::policies::default_policy, boost::math::policies::default_policy, boost::math::policies::default_policy, boost::math::policies::default_policy, boost::math::policies::default_policy, boost::math::policies::default_policy, boost::math::policies::default_policy, boost::math::policies::default_policy>, std::integral_constant<int, 53> >::initializer
	_ZGVN5boost4math6detail17expm1_initializerIdNS0_8policies6policyINS3_10pole_errorILNS3_17error_policy_typeE1EEENS3_14overflow_errorILS6_1EEENS3_13promote_floatILb0EEENS3_14promote_doubleILb0EEENS3_14default_policyESE_SE_SE_SE_SE_SE_SE_SE_EESt17integral_constantIiLi53EEE11initializerE @ 309 DATA
;	guard variable for boost::math::detail::expm1_initializer<long double, boost::math::policies::policy<boost::math::policies::promote_float<false>, boost::math::policies::promote_double<false>, boost::math::policies::default_policy, boost::math::policies::default_policy, boost::math::policies::default_policy, boost::math::policies::default_policy, boost::math::policies::default_policy, boost::math::policies::default_policy, boost::math::policies::default_policy, boost::math::policies::default_policy, boost::math::policies::default_policy, boost::math::policies::default_policy, boost::math::policies::default_policy>, std::integral_constant<int, 64> >::initializer
	_ZGVN5boost4math6detail17expm1_initializerIeNS0_8policies6policyINS3_13promote_floatILb0EEENS3_14promote_doubleILb0EEENS3_14default_policyES9_S9_S9_S9_S9_S9_S9_S9_S9_S9_EESt17integral_constantIiLi64EEE11initializerE @ 310 DATA
;	guard variable for boost::math::detail::log1p_initializer<double, boost::math::policies::policy<boost::math::policies::pole_error<(boost::math::policies::error_policy_type)1>, boost::math::policies::overflow_error<(boost::math::policies::error_policy_type)1>, boost::math::policies::promote_float<false>, boost::math::policies::promote_double<false>, boost::math::policies::default_policy, boost::math::policies::default_policy, boost::math::policies::default_policy, boost::math::policies::default_policy, boost::math::policies::default_policy, boost::math::policies::default_policy, boost::math::policies::default_policy, boost::math::policies::default_policy, boost::math::policies::default_policy>, std::integral_constant<int, 53> >::initializer
	_ZGVN5boost4math6detail17log1p_initializerIdNS0_8policies6policyINS3_10pole_errorILNS3_17error_policy_typeE1EEENS3_14overflow_errorILS6_1EEENS3_13promote_floatILb0EEENS3_14promote_doubleILb0EEENS3_14default_policyESE_SE_SE_SE_SE_SE_SE_SE_EESt17integral_constantIiLi53EEE11initializerE @ 311 DATA
;	guard variable for boost::math::detail::log1p_initializer<double, boost::math::policies::policy<boost::math::policies::promote_float<false>, boost::math::policies::promote_double<false>, boost::math::policies::default_policy, boost::math::policies::default_policy, boost::math::policies::default_policy, boost::math::policies::default_policy, boost::math::policies::default_policy, boost::math::policies::default_policy, boost::math::policies::default_policy, boost::math::policies::default_policy, boost::math::policies::default_policy, boost::math::policies::default_policy, boost::math::policies::default_policy>, std::integral_constant<int, 53> >::initializer
	_ZGVN5boost4math6detail17log1p_initializerIdNS0_8policies6policyINS3_13promote_floatILb0EEENS3_14promote_doubleILb0EEENS3_14default_policyES9_S9_S9_S9_S9_S9_S9_S9_S9_S9_EESt17integral_constantIiLi53EEE11initializerE @ 312 DATA
;	guard variable for boost::math::detail::log1p_initializer<long double, boost::math::policies::policy<boost::math::policies::promote_float<false>, boost::math::policies::promote_double<false>, boost::math::policies::default_policy, boost::math::policies::default_policy, boost::math::policies::default_policy, boost::math::policies::default_policy, boost::math::policies::default_policy, boost::math::policies::default_policy, boost::math::policies::default_policy, boost::math::policies::default_policy, boost::math::policies::default_policy, boost::math::policies::default_policy, boost::math::policies::default_policy>, std::integral_constant<int, 64> >::initializer
	_ZGVN5boost4math6detail17log1p_initializerIeNS0_8policies6policyINS3_13promote_floatILb0EEENS3_14promote_doubleILb0EEENS3_14default_policyES9_S9_S9_S9_S9_S9_S9_S9_S9_S9_EESt17integral_constantIiLi64EEE11initializerE @ 313 DATA
;	guard variable for boost::math::detail::igamma_initializer<double, boost::math::policies::policy<boost::math::policies::pole_error<(boost::math::policies::error_policy_type)1>, boost::math::policies::overflow_error<(boost::math::policies::error_policy_type)1>, boost::math::policies::promote_float<false>, boost::math::policies::promote_double<false>, boost::math::policies::default_policy, boost::math::policies::default_policy, boost::math::policies::default_policy, boost::math::policies::default_policy, boost::math::policies::default_policy, boost::math::policies::default_policy, boost::math::policies::default_policy, boost::math::policies::default_policy, boost::math::policies::default_policy> >::initializer
	_ZGVN5boost4math6detail18igamma_initializerIdNS0_8policies6policyINS3_10pole_errorILNS3_17error_policy_typeE1EEENS3_14overflow_errorILS6_1EEENS3_13promote_floatILb0EEENS3_14promote_doubleILb0EEENS3_14default_policyESE_SE_SE_SE_SE_SE_SE_SE_EEE11initializerE @ 314 DATA
;	guard variable for boost::math::detail::igamma_initializer<long double, boost::math::policies::policy<boost::math::policies::promote_float<false>, boost::math::policies::promote_double<false>, boost::math::policies::default_policy, boost::math::policies::default_policy, boost::math::policies::default_policy, boost::math::policies::default_policy, boost::math::policies::default_policy, boost::math::policies::default_policy, boost::math::policies::default_policy, boost::math::policies::default_policy, boost::math::policies::default_policy, boost::math::policies::default_policy, boost::math::policies::default_policy> >::initializer
	_ZGVN5boost4math6detail18igamma_initializerIeNS0_8policies6policyINS3_13promote_floatILb0EEENS3_14promote_doubleILb0EEENS3_14default_policyES9_S9_S9_S9_S9_S9_S9_S9_S9_S9_EEE11initializerE @ 315 DATA
;	guard variable for boost::math::detail::lgamma_initializer<double, boost::math::policies::policy<boost::math::policies::pole_error<(boost::math::policies::error_policy_type)1>, boost::math::policies::overflow_error<(boost::math::policies::error_policy_type)1>, boost::math::policies::promote_float<false>, boost::math::policies::promote_double<false>, boost::math::policies::default_policy, boost::math::policies::default_policy, boost::math::policies::default_policy, boost::math::policies::default_policy, boost::math::policies::default_policy, boost::math::policies::default_policy, boost::math::policies::default_policy, boost::math::policies::default_policy, boost::math::policies::default_policy> >::initializer
	_ZGVN5boost4math6detail18lgamma_initializerIdNS0_8policies6policyINS3_10pole_errorILNS3_17error_policy_typeE1EEENS3_14overflow_errorILS6_1EEENS3_13promote_floatILb0EEENS3_14promote_doubleILb0EEENS3_14default_policyESE_SE_SE_SE_SE_SE_SE_SE_EEE11initializerE @ 316 DATA
;	guard variable for boost::math::detail::lgamma_initializer<long double, boost::math::policies::policy<boost::math::policies::promote_float<false>, boost::math::policies::promote_double<false>, boost::math::policies::default_policy, boost::math::policies::default_policy, boost::math::policies::default_policy, boost::math::policies::default_policy, boost::math::policies::default_policy, boost::math::policies::default_policy, boost::math::policies::default_policy, boost::math::policies::default_policy, boost::math::policies::default_policy, boost::math::policies::default_policy, boost::math::policies::default_policy> >::initializer
	_ZGVN5boost4math6detail18lgamma_initializerIeNS0_8policies6policyINS3_13promote_floatILb0EEENS3_14promote_doubleILb0EEENS3_14default_policyES9_S9_S9_S9_S9_S9_S9_S9_S9_S9_EEE11initializerE @ 317 DATA
;	guard variable for boost::math::detail::digamma_initializer<double, boost::math::policies::policy<boost::math::policies::pole_error<(boost::math::policies::error_policy_type)1>, boost::math::policies::overflow_error<(boost::math::policies::error_policy_type)1>, boost::math::policies::promote_float<false>, boost::math::policies::promote_double<false>, boost::math::policies::default_policy, boost::math::policies::default_policy, boost::math::policies::default_policy, boost::math::policies::default_policy, boost::math::policies::default_policy, boost::math::policies::default_policy, boost::math::policies::default_policy, boost::math::policies::default_policy, boost::math::policies::default_policy> >::initializer
	_ZGVN5boost4math6detail19digamma_initializerIdNS0_8policies6policyINS3_10pole_errorILNS3_17error_policy_typeE1EEENS3_14overflow_errorILS6_1EEENS3_13promote_floatILb0EEENS3_14promote_doubleILb0EEENS3_14default_policyESE_SE_SE_SE_SE_SE_SE_SE_EEE11initializerE @ 318 DATA
;	guard variable for boost::math::detail::erf_inv_initializer<double, boost::math::policies::policy<boost::math::policies::pole_error<(boost::math::policies::error_policy_type)1>, boost::math::policies::overflow_error<(boost::math::policies::error_policy_type)1>, boost::math::policies::promote_float<false>, boost::math::policies::promote_double<false>, boost::math::policies::default_policy, boost::math::policies::default_policy, boost::math::policies::default_policy, boost::math::policies::default_policy, boost::math::policies::default_policy, boost::math::policies::default_policy, boost::math::policies::default_policy, boost::math::policies::default_policy, boost::math::policies::default_policy> >::initializer
	_ZGVN5boost4math6detail19erf_inv_initializerIdNS0_8policies6policyINS3_10pole_errorILNS3_17error_policy_typeE1EEENS3_14overflow_errorILS6_1EEENS3_13promote_floatILb0EEENS3_14promote_doubleILb0EEENS3_14default_policyESE_SE_SE_SE_SE_SE_SE_SE_EEE11initializerE @ 319 DATA
;	guard variable for boost::math::detail::erf_inv_initializer<long double, boost::math::policies::policy<boost::math::policies::promote_float<false>, boost::math::policies::promote_double<false>, boost::math::policies::default_policy, boost::math::policies::default_policy, boost::math::policies::default_policy, boost::math::policies::default_policy, boost::math::policies::default_policy, boost::math::policies::default_policy, boost::math::policies::default_policy, boost::math::policies::default_policy, boost::math::policies::default_policy, boost::math::policies::default_policy, boost::math::policies::default_policy> >::initializer
	_ZGVN5boost4math6detail19erf_inv_initializerIeNS0_8policies6policyINS3_13promote_floatILb0EEENS3_14promote_doubleILb0EEENS3_14default_policyES9_S9_S9_S9_S9_S9_S9_S9_S9_S9_EEE11initializerE @ 320 DATA
;	guard variable for boost::math::detail::owens_t_initializer<double, boost::math::policies::policy<boost::math::policies::default_policy, boost::math::policies::default_policy, boost::math::policies::default_policy, boost::math::policies::default_policy, boost::math::policies::default_policy, boost::math::policies::default_policy, boost::math::policies::default_policy, boost::math::policies::default_policy, boost::math::policies::default_policy, boost::math::policies::default_policy, boost::math::policies::default_policy, boost::math::policies::default_policy, boost::math::policies::default_policy>, std::integral_constant<int, 64> >::initializer
	_ZGVN5boost4math6detail19owens_t_initializerIdNS0_8policies6policyINS3_14default_policyES5_S5_S5_S5_S5_S5_S5_S5_S5_S5_S5_S5_EESt17integral_constantIiLi64EEE11initializerE @ 321 DATA
;	guard variable for boost::math::detail::bessel_i0_initializer<long double, std::integral_constant<int, 64> >::initializer
	_ZGVN5boost4math6detail21bessel_i0_initializerIeSt17integral_constantIiLi64EEE11initializerE @ 322 DATA
;	guard variable for boost::math::detail::bessel_i1_initializer<long double, std::integral_constant<int, 64> >::initializer
	_ZGVN5boost4math6detail21bessel_i1_initializerIeSt17integral_constantIiLi64EEE11initializerE @ 323 DATA
;	guard variable for boost::math::detail::bessel_j0_initializer<long double>::initializer
	_ZGVN5boost4math6detail21bessel_j0_initializerIeE11initializerE @ 324 DATA
;	guard variable for boost::math::detail::bessel_j1_initializer<long double>::initializer
	_ZGVN5boost4math6detail21bessel_j1_initializerIeE11initializerE @ 325 DATA
;	guard variable for boost::math::detail::bessel_k0_initializer<long double, std::integral_constant<int, 64> >::initializer
	_ZGVN5boost4math6detail21bessel_k0_initializerIeSt17integral_constantIiLi64EEE11initializerE @ 326 DATA
;	guard variable for boost::math::detail::bessel_k1_initializer<long double, std::integral_constant<int, 64> >::initializer
	_ZGVN5boost4math6detail21bessel_k1_initializerIeSt17integral_constantIiLi64EEE11initializerE @ 327 DATA
;	guard variable for boost::math::detail::bessel_y0_initializer<long double, boost::math::policies::policy<boost::math::policies::promote_float<false>, boost::math::policies::promote_double<false>, boost::math::policies::default_policy, boost::math::policies::default_policy, boost::math::policies::default_policy, boost::math::policies::default_policy, boost::math::policies::default_policy, boost::math::policies::default_policy, boost::math::policies::default_policy, boost::math::policies::default_policy, boost::math::policies::default_policy, boost::math::policies::default_policy, boost::math::policies::default_policy> >::initializer
	_ZGVN5boost4math6detail21bessel_y0_initializerIeNS0_8policies6policyINS3_13promote_floatILb0EEENS3_14promote_doubleILb0EEENS3_14default_policyES9_S9_S9_S9_S9_S9_S9_S9_S9_S9_EEE11initializerE @ 328 DATA
;	guard variable for boost::math::detail::bessel_y1_initializer<long double, boost::math::policies::policy<boost::math::policies::promote_float<false>, boost::math::policies::promote_double<false>, boost::math::policies::default_policy, boost::math::policies::default_policy, boost::math::policies::default_policy, boost::math::policies::default_policy, boost::math::policies::default_policy, boost::math::policies::default_policy, boost::math::policies::default_policy, boost::math::policies::default_policy, boost::math::policies::default_policy, boost::math::policies::default_policy, boost::math::policies::default_policy> >::initializer
	_ZGVN5boost4math6detail21bessel_y1_initializerIeNS0_8policies6policyINS3_13promote_floatILb0EEENS3_14promote_doubleILb0EEENS3_14default_policyES9_S9_S9_S9_S9_S9_S9_S9_S9_S9_EEE11initializerE @ 329 DATA
;	guard variable for boost::math::detail::min_shift_initializer<double>::initializer
	_ZGVN5boost4math6detail21min_shift_initializerIdE11initializerE @ 330 DATA
;	guard variable for boost::math::lanczos::lanczos_initializer<boost::math::lanczos::lanczos17m64, long double>::initializer
	_ZGVN5boost4math7lanczos19lanczos_initializerINS1_12lanczos17m64EeE11initializerE @ 331 DATA
;	guard variable for std::moneypunct<char, false>::id
	_ZGVNSt10moneypunctIcLb0EE2idE @ 332 DATA
;	guard variable for std::moneypunct<char, true>::id
	_ZGVNSt10moneypunctIcLb1EE2idE @ 333 DATA
;	guard variable for std::moneypunct<wchar_t, false>::id
	_ZGVNSt10moneypunctIwLb0EE2idE @ 334 DATA
;	guard variable for std::moneypunct<wchar_t, true>::id
	_ZGVNSt10moneypunctIwLb1EE2idE @ 335 DATA
;	guard variable for std::__timepunct<char>::id
	_ZGVNSt11__timepunctIcE2idE @ 336 DATA
;	guard variable for std::__timepunct<wchar_t>::id
	_ZGVNSt11__timepunctIwE2idE @ 337 DATA
;	guard variable for std::__cxx11::moneypunct<char, false>::id
	_ZGVNSt7__cxx1110moneypunctIcLb0EE2idE @ 338 DATA
;	guard variable for std::__cxx11::moneypunct<char, true>::id
	_ZGVNSt7__cxx1110moneypunctIcLb1EE2idE @ 339 DATA
;	guard variable for std::__cxx11::moneypunct<wchar_t, false>::id
	_ZGVNSt7__cxx1110moneypunctIwLb0EE2idE @ 340 DATA
;	guard variable for std::__cxx11::moneypunct<wchar_t, true>::id
	_ZGVNSt7__cxx1110moneypunctIwLb1EE2idE @ 341 DATA
;	guard variable for std::__cxx11::collate<char>::id
	_ZGVNSt7__cxx117collateIcE2idE @ 342 DATA
;	guard variable for std::__cxx11::collate<wchar_t>::id
	_ZGVNSt7__cxx117collateIwE2idE @ 343 DATA
;	guard variable for std::__cxx11::messages<char>::id
	_ZGVNSt7__cxx118messagesIcE2idE @ 344 DATA
;	guard variable for std::__cxx11::messages<wchar_t>::id
	_ZGVNSt7__cxx118messagesIwE2idE @ 345 DATA
;	guard variable for std::__cxx11::numpunct<char>::id
	_ZGVNSt7__cxx118numpunctIcE2idE @ 346 DATA
;	guard variable for std::__cxx11::numpunct<wchar_t>::id
	_ZGVNSt7__cxx118numpunctIwE2idE @ 347 DATA
;	guard variable for std::__cxx11::time_get<char, std::istreambuf_iterator<char, std::char_traits<char> > >::id
	_ZGVNSt7__cxx118time_getIcSt19istreambuf_iteratorIcSt11char_traitsIcEEE2idE @ 348 DATA
;	guard variable for std::__cxx11::time_get<wchar_t, std::istreambuf_iterator<wchar_t, std::char_traits<wchar_t> > >::id
	_ZGVNSt7__cxx118time_getIwSt19istreambuf_iteratorIwSt11char_traitsIwEEE2idE @ 349 DATA
;	guard variable for std::__cxx11::money_get<char, std::istreambuf_iterator<char, std::char_traits<char> > >::id
	_ZGVNSt7__cxx119money_getIcSt19istreambuf_iteratorIcSt11char_traitsIcEEE2idE @ 350 DATA
;	guard variable for std::__cxx11::money_get<wchar_t, std::istreambuf_iterator<wchar_t, std::char_traits<wchar_t> > >::id
	_ZGVNSt7__cxx119money_getIwSt19istreambuf_iteratorIwSt11char_traitsIwEEE2idE @ 351 DATA
;	guard variable for std::__cxx11::money_put<char, std::ostreambuf_iterator<char, std::char_traits<char> > >::id
	_ZGVNSt7__cxx119money_putIcSt19ostreambuf_iteratorIcSt11char_traitsIcEEE2idE @ 352 DATA
;	guard variable for std::__cxx11::money_put<wchar_t, std::ostreambuf_iterator<wchar_t, std::char_traits<wchar_t> > >::id
	_ZGVNSt7__cxx119money_putIwSt19ostreambuf_iteratorIwSt11char_traitsIwEEE2idE @ 353 DATA
;	guard variable for std::collate<char>::id
	_ZGVNSt7collateIcE2idE @ 354 DATA
;	guard variable for std::collate<wchar_t>::id
	_ZGVNSt7collateIwE2idE @ 355 DATA
;	guard variable for std::num_get<char, std::istreambuf_iterator<char, std::char_traits<char> > >::id
	_ZGVNSt7num_getIcSt19istreambuf_iteratorIcSt11char_traitsIcEEE2idE @ 356 DATA
;	guard variable for std::num_get<wchar_t, std::istreambuf_iterator<wchar_t, std::char_traits<wchar_t> > >::id
	_ZGVNSt7num_getIwSt19istreambuf_iteratorIwSt11char_traitsIwEEE2idE @ 357 DATA
;	guard variable for std::num_put<char, std::ostreambuf_iterator<char, std::char_traits<char> > >::id
	_ZGVNSt7num_putIcSt19ostreambuf_iteratorIcSt11char_traitsIcEEE2idE @ 358 DATA
;	guard variable for std::num_put<wchar_t, std::ostreambuf_iterator<wchar_t, std::char_traits<wchar_t> > >::id
	_ZGVNSt7num_putIwSt19ostreambuf_iteratorIwSt11char_traitsIwEEE2idE @ 359 DATA
;	guard variable for std::messages<char>::id
	_ZGVNSt8messagesIcE2idE @ 360 DATA
;	guard variable for std::messages<wchar_t>::id
	_ZGVNSt8messagesIwE2idE @ 361 DATA
;	guard variable for std::numpunct<char>::id
	_ZGVNSt8numpunctIcE2idE @ 362 DATA
;	guard variable for std::numpunct<wchar_t>::id
	_ZGVNSt8numpunctIwE2idE @ 363 DATA
;	guard variable for std::time_get<char, std::istreambuf_iterator<char, std::char_traits<char> > >::id
	_ZGVNSt8time_getIcSt19istreambuf_iteratorIcSt11char_traitsIcEEE2idE @ 364 DATA
;	guard variable for std::time_get<wchar_t, std::istreambuf_iterator<wchar_t, std::char_traits<wchar_t> > >::id
	_ZGVNSt8time_getIwSt19istreambuf_iteratorIwSt11char_traitsIwEEE2idE @ 365 DATA
;	guard variable for std::time_put<char, std::ostreambuf_iterator<char, std::char_traits<char> > >::id
	_ZGVNSt8time_putIcSt19ostreambuf_iteratorIcSt11char_traitsIcEEE2idE @ 366 DATA
;	guard variable for std::time_put<wchar_t, std::ostreambuf_iterator<wchar_t, std::char_traits<wchar_t> > >::id
	_ZGVNSt8time_putIwSt19ostreambuf_iteratorIwSt11char_traitsIwEEE2idE @ 367 DATA
;	guard variable for std::money_get<char, std::istreambuf_iterator<char, std::char_traits<char> > >::id
	_ZGVNSt9money_getIcSt19istreambuf_iteratorIcSt11char_traitsIcEEE2idE @ 368 DATA
;	guard variable for std::money_get<wchar_t, std::istreambuf_iterator<wchar_t, std::char_traits<wchar_t> > >::id
	_ZGVNSt9money_getIwSt19istreambuf_iteratorIwSt11char_traitsIwEEE2idE @ 369 DATA
;	guard variable for std::money_put<char, std::ostreambuf_iterator<char, std::char_traits<char> > >::id
	_ZGVNSt9money_putIcSt19ostreambuf_iteratorIcSt11char_traitsIcEEE2idE @ 370 DATA
;	guard variable for std::money_put<wchar_t, std::ostreambuf_iterator<wchar_t, std::char_traits<wchar_t> > >::id
	_ZGVNSt9money_putIwSt19ostreambuf_iteratorIwSt11char_traitsIwEEE2idE @ 371 DATA
;	guard variable for stan::json::json_data_handler::valid_varname(std::__cxx11::basic_string<char, std::char_traits<char>, std::allocator<char> > const&)::re
	_ZGVZN4stan4json17json_data_handler13valid_varnameERKNSt7__cxx1112basic_stringIcSt11char_traitsIcESaIcEEEE2re @ 372 DATA
;	guard variable for boost::object_cache<boost::re_detail_500::cpp_regex_traits_base<char>, boost::re_detail_500::cpp_regex_traits_implementation<char> >::get(boost::re_detail_500::cpp_regex_traits_base<char> const&, unsigned long long)::mut
	_ZGVZN5boost12object_cacheINS_13re_detail_50021cpp_regex_traits_baseIcEENS1_31cpp_regex_traits_implementationIcEEE3getERKS3_yE3mut @ 373 DATA
;	guard variable for boost::object_cache<boost::re_detail_500::cpp_regex_traits_base<char>, boost::re_detail_500::cpp_regex_traits_implementation<char> >::do_get(boost::re_detail_500::cpp_regex_traits_base<char> const&, unsigned long long)::s_data
	_ZGVZN5boost12object_cacheINS_13re_detail_50021cpp_regex_traits_baseIcEENS1_31cpp_regex_traits_implementationIcEEE6do_getERKS3_yE6s_data @ 374 DATA
;	guard variable for boost::re_detail_500::mem_block_cache::instance()::block_cache
	_ZGVZN5boost13re_detail_50015mem_block_cache8instanceEvE11block_cache @ 375 DATA
;	guard variable for boost::re_detail_500::cpp_regex_traits_implementation<char>::init()::null_string[abi:cxx11]
	_ZGVZN5boost13re_detail_50031cpp_regex_traits_implementationIcE4initEvE11null_stringB5cxx11 @ 376 DATA
;	guard variable for boost::cpp_regex_traits<char>::get_mutex_inst()::s_mutex
	_ZGVZN5boost16cpp_regex_traitsIcE14get_mutex_instEvE7s_mutex @ 377 DATA
;	guard variable for boost::cpp_regex_traits<char>::get_catalog_name_inst[abi:cxx11]()::s_name
	_ZGVZN5boost16cpp_regex_traitsIcE21get_catalog_name_instB5cxx11EvE6s_name @ 378 DATA
;	guard variable for boost::math::detail::get_min_shift_value<double>()::val
	_ZGVZN5boost4math6detail19get_min_shift_valueIdEET_vE3val @ 379 DATA
;	guard variable for rapidjson::internal::StrtodDiyFp(char const*, int, int, double*)::kPow10
	_ZGVZN9rapidjson8internal11StrtodDiyFpEPKciiPdE6kPow10 @ 380 DATA
;	__cxxabiv1::__terminate(void (*)())
	_ZN10__cxxabiv111__terminateEPFvvE @ 381
;	__cxxabiv1::__unexpected(void (*)())
	_ZN10__cxxabiv112__unexpectedEPFvvE @ 382
;	__cxxabiv1::__forced_unwind::~__forced_unwind()
	_ZN10__cxxabiv115__forced_unwindD0Ev @ 383
;	__cxxabiv1::__forced_unwind::~__forced_unwind()
	_ZN10__cxxabiv115__forced_unwindD1Ev @ 384
;	__cxxabiv1::__forced_unwind::~__forced_unwind()
	_ZN10__cxxabiv115__forced_unwindD2Ev @ 385
;	__cxxabiv1::__class_type_info::~__class_type_info()
	_ZN10__cxxabiv117__class_type_infoD0Ev @ 386
;	__cxxabiv1::__class_type_info::~__class_type_info()
	_ZN10__cxxabiv117__class_type_infoD1Ev @ 387
;	__cxxabiv1::__class_type_info::~__class_type_info()
	_ZN10__cxxabiv117__class_type_infoD2Ev @ 388
;	__cxxabiv1::__foreign_exception::~__foreign_exception()
	_ZN10__cxxabiv119__foreign_exceptionD0Ev @ 389
;	__cxxabiv1::__foreign_exception::~__foreign_exception()
	_ZN10__cxxabiv119__foreign_exceptionD1Ev @ 390
;	__cxxabiv1::__foreign_exception::~__foreign_exception()
	_ZN10__cxxabiv119__foreign_exceptionD2Ev @ 391
;	__cxxabiv1::__terminate_handler
	_ZN10__cxxabiv119__terminate_handlerE @ 392 DATA
;	__cxxabiv1::__si_class_type_info::~__si_class_type_info()
	_ZN10__cxxabiv120__si_class_type_infoD0Ev @ 393
;	__cxxabiv1::__si_class_type_info::~__si_class_type_info()
	_ZN10__cxxabiv120__si_class_type_infoD1Ev @ 394
;	__cxxabiv1::__si_class_type_info::~__si_class_type_info()
	_ZN10__cxxabiv120__si_class_type_infoD2Ev @ 395
;	__cxxabiv1::__unexpected_handler
	_ZN10__cxxabiv120__unexpected_handlerE @ 396 DATA
;	__cxxabiv1::__vmi_class_type_info::~__vmi_class_type_info()
	_ZN10__cxxabiv121__vmi_class_type_infoD0Ev @ 397
;	__cxxabiv1::__vmi_class_type_info::~__vmi_class_type_info()
	_ZN10__cxxabiv121__vmi_class_type_infoD1Ev @ 398
;	__cxxabiv1::__vmi_class_type_info::~__vmi_class_type_info()
	_ZN10__cxxabiv121__vmi_class_type_infoD2Ev @ 399
;	__gnu_internal::buf_cin_sync
	_ZN14__gnu_internal12buf_cin_syncE @ 400 DATA
;	__gnu_internal::buf_cerr_sync
	_ZN14__gnu_internal13buf_cerr_syncE @ 401 DATA
;	__gnu_internal::buf_cout_sync
	_ZN14__gnu_internal13buf_cout_syncE @ 402 DATA
;	__gnu_internal::buf_wcin_sync
	_ZN14__gnu_internal13buf_wcin_syncE @ 403 DATA
;	__gnu_internal::buf_wcerr_sync
	_ZN14__gnu_internal14buf_wcerr_syncE @ 404 DATA
;	__gnu_internal::buf_wcout_sync
	_ZN14__gnu_internal14buf_wcout_syncE @ 405 DATA
;	__gnu_internal::buf_cin
	_ZN14__gnu_internal7buf_cinE @ 406 DATA
;	__gnu_internal::buf_cerr
	_ZN14__gnu_internal8buf_cerrE @ 407 DATA
;	__gnu_internal::buf_cout
	_ZN14__gnu_internal8buf_coutE @ 408 DATA
;	__gnu_internal::buf_wcin
	_ZN14__gnu_internal8buf_wcinE @ 409 DATA
;	__gnu_internal::buf_wcerr
	_ZN14__gnu_internal9buf_wcerrE @ 410 DATA
;	__gnu_internal::buf_wcout
	_ZN14__gnu_internal9buf_wcoutE @ 411 DATA
;	callback_ostreambuf::xsputn(char const*, long long)
	_ZN19callback_ostreambuf6xsputnEPKcx @ 412
;	callback_ostreambuf::overflow(int)
	_ZN19callback_ostreambuf8overflowEi @ 413
;	callback_ostreambuf::~callback_ostreambuf()
	_ZN19callback_ostreambufD0Ev @ 414
;	callback_ostreambuf::~callback_ostreambuf()
	_ZN19callback_ostreambufD1Ev @ 415
;	dummy_stan_model_win_model_namespace::profiles__[abi:cxx11]
	_ZN36dummy_stan_model_win_model_namespace10profiles__B5cxx11E @ 416 DATA
;	dummy_stan_model_win_model_namespace::dummy_stan_model_win_model::~dummy_stan_model_win_model()
	_ZN36dummy_stan_model_win_model_namespace26dummy_stan_model_win_modelD0Ev @ 417
;	dummy_stan_model_win_model_namespace::dummy_stan_model_win_model::~dummy_stan_model_win_model()
	_ZN36dummy_stan_model_win_model_namespace26dummy_stan_model_win_modelD1Ev @ 418
;	tbb::interface6::task_scheduler_observer::~task_scheduler_observer()
	_ZN3tbb10interface623task_scheduler_observerD0Ev @ 419
;	tbb::interface6::task_scheduler_observer::~task_scheduler_observer()
	_ZN3tbb10interface623task_scheduler_observerD1Ev @ 420
;	tbb::internal::allocate_via_handler_v3(unsigned long long)
	_ZN3tbb8internal23allocate_via_handler_v3Ey @ 421
;	tbb::internal::deallocate_via_handler_v3(void*)
	_ZN3tbb8internal25deallocate_via_handler_v3EPv @ 422
;	tbb::internal::task_scheduler_observer_v3::on_scheduler_exit(bool)
	_ZN3tbb8internal26task_scheduler_observer_v317on_scheduler_exitEb @ 423
;	tbb::internal::task_scheduler_observer_v3::on_scheduler_entry(bool)
	_ZN3tbb8internal26task_scheduler_observer_v318on_scheduler_entryEb @ 424
;	tbb::internal::task_scheduler_observer_v3::observe(bool)
	_ZN3tbb8internal26task_scheduler_observer_v37observeEb @ 425
;	tbb::internal::task_scheduler_observer_v3::~task_scheduler_observer_v3()
	_ZN3tbb8internal26task_scheduler_observer_v3D0Ev @ 426
;	tbb::internal::task_scheduler_observer_v3::~task_scheduler_observer_v3()
	_ZN3tbb8internal26task_scheduler_observer_v3D1Ev @ 427
;	stan::io::validate_dims(stan::io::var_context const&, std::__cxx11::basic_string<char, std::char_traits<char>, std::allocator<char> > const&, std::__cxx11::basic_string<char, std::char_traits<char>, std::allocator<char> > const&, std::__cxx11::basic_string<char, std::char_traits<char>, std::allocator<char> > const&, std::vector<unsigned long long, std::allocator<unsigned long long> > const&)
	_ZN4stan2io13validate_dimsERKNS0_11var_contextERKNSt7__cxx1112basic_stringIcSt11char_traitsIcESaIcEEESB_SB_RKSt6vectorIySaIyEE @ 428
;	stan::io::empty_var_context::~empty_var_context()
	_ZN4stan2io17empty_var_contextD0Ev @ 429
;	stan::io::empty_var_context::~empty_var_context()
	_ZN4stan2io17empty_var_contextD1Ev @ 430
;	stan::json::json_error::~json_error()
	_ZN4stan4json10json_errorD0Ev @ 431
;	stan::json::json_error::~json_error()
	_ZN4stan4json10json_errorD1Ev @ 432
;	void stan::json::rapidjson_parse<stan::json::json_data_handler>(std::istream&, stan::json::json_data_handler&)
	_ZN4stan4json15rapidjson_parseINS0_17json_data_handlerEEEvRSiRT_ @ 433
;	stan::json::json_data_handler::end_object()
	_ZN4stan4json17json_data_handler10end_objectEv @ 434
;	stan::json::json_data_handler::number_int(int)
	_ZN4stan4json17json_data_handler10number_intEi @ 435
;	stan::json::json_data_handler::start_text()
	_ZN4stan4json17json_data_handler10start_textEv @ 436
;	stan::json::json_data_handler::start_array()
	_ZN4stan4json17json_data_handler11start_arrayEv @ 437
;	stan::json::json_data_handler::number_int64(long long)
	_ZN4stan4json17json_data_handler12number_int64Ex @ 438
;	stan::json::json_data_handler::start_object()
	_ZN4stan4json17json_data_handler12start_objectEv @ 439
;	stan::json::json_data_handler::number_double(double)
	_ZN4stan4json17json_data_handler13number_doubleEd @ 440
;	stan::json::json_data_handler::set_outer_dims(stan::json::array_dims)
	_ZN4stan4json17json_data_handler14set_outer_dimsENS0_10array_dimsE @ 441
;	stan::json::json_data_handler::promote_to_double()
	_ZN4stan4json17json_data_handler17promote_to_doubleEv @ 442
;	stan::json::json_data_handler::update_array_dims()
	_ZN4stan4json17json_data_handler17update_array_dimsEv @ 443
;	stan::json::json_data_handler::number_unsigned_int(unsigned int)
	_ZN4stan4json17json_data_handler19number_unsigned_intEj @ 444
;	stan::json::json_data_handler::save_key_value_pair()
	_ZN4stan4json17json_data_handler19save_key_value_pairEv @ 445
;	stan::json::json_data_handler::number_unsigned_int64(unsigned long long)
	_ZN4stan4json17json_data_handler21number_unsigned_int64Ey @ 446
;	stan::json::json_data_handler::key(std::__cxx11::basic_string<char, std::char_traits<char>, std::allocator<char> > const&)
	_ZN4stan4json17json_data_handler3keyERKNSt7__cxx1112basic_stringIcSt11char_traitsIcESaIcEEE @ 447
;	stan::json::json_data_handler::null()
	_ZN4stan4json17json_data_handler4nullEv @ 448
;	stan::json::json_data_handler::string(std::__cxx11::basic_string<char, std::char_traits<char>, std::allocator<char> > const&)
	_ZN4stan4json17json_data_handler6stringERKNSt7__cxx1112basic_stringIcSt11char_traitsIcESaIcEEE @ 449
;	stan::json::json_data_handler::boolean(bool)
	_ZN4stan4json17json_data_handler7booleanEb @ 450
;	stan::json::json_data_handler::end_text()
	_ZN4stan4json17json_data_handler8end_textEv @ 451
;	stan::json::json_data_handler::end_array()
	_ZN4stan4json17json_data_handler9end_arrayEv @ 452
;	stan::json::json_data_handler::~json_data_handler()
	_ZN4stan4json17json_data_handlerD1Ev @ 453
;	stan::json::json_data::json_data(std::istream&)
	_ZN4stan4json9json_dataC1ERSi @ 454
;	stan::json::json_data::~json_data()
	_ZN4stan4json9json_dataD0Ev @ 455
;	stan::json::json_data::~json_data()
	_ZN4stan4json9json_dataD1Ev @ 456
;	stan::lang::rethrow_located(std::exception const&, std::__cxx11::basic_string<char, std::char_traits<char>, std::allocator<char> >)
	_ZN4stan4lang15rethrow_locatedERKSt9exceptionNSt7__cxx1112basic_stringIcSt11char_traitsIcESaIcEEE @ 457
;	stan::lang::located_exception<std::bad_typeid>::located_exception(std::__cxx11::basic_string<char, std::char_traits<char>, std::allocator<char> > const&, std::__cxx11::basic_string<char, std::char_traits<char>, std::allocator<char> > const&)
	_ZN4stan4lang17located_exceptionISt10bad_typeidEC1ERKNSt7__cxx1112basic_stringIcSt11char_traitsIcESaIcEEESB_ @ 458
;	stan::lang::located_exception<std::bad_typeid>::~located_exception()
	_ZN4stan4lang17located_exceptionISt10bad_typeidED0Ev @ 459
;	stan::lang::located_exception<std::bad_typeid>::~located_exception()
	_ZN4stan4lang17located_exceptionISt10bad_typeidED1Ev @ 460
;	stan::lang::located_exception<std::bad_exception>::located_exception(std::__cxx11::basic_string<char, std::char_traits<char>, std::allocator<char> > const&, std::__cxx11::basic_string<char, std::char_traits<char>, std::allocator<char> > const&)
	_ZN4stan4lang17located_exceptionISt13bad_exceptionEC1ERKNSt7__cxx1112basic_stringIcSt11char_traitsIcESaIcEEESB_ @ 461
;	stan::lang::located_exception<std::bad_exception>::~located_exception()
	_ZN4stan4lang17located_exceptionISt13bad_exceptionED0Ev @ 462
;	stan::lang::located_exception<std::bad_exception>::~located_exception()
	_ZN4stan4lang17located_exceptionISt13bad_exceptionED1Ev @ 463
;	stan::lang::located_exception<std::bad_cast>::located_exception(std::__cxx11::basic_string<char, std::char_traits<char>, std::allocator<char> > const&, std::__cxx11::basic_string<char, std::char_traits<char>, std::allocator<char> > const&)
	_ZN4stan4lang17located_exceptionISt8bad_castEC1ERKNSt7__cxx1112basic_stringIcSt11char_traitsIcESaIcEEESB_ @ 464
;	stan::lang::located_exception<std::bad_cast>::~located_exception()
	_ZN4stan4lang17located_exceptionISt8bad_castED0Ev @ 465
;	stan::lang::located_exception<std::bad_cast>::~located_exception()
	_ZN4stan4lang17located_exceptionISt8bad_castED1Ev @ 466
;	stan::lang::located_exception<std::bad_alloc>::located_exception(std::__cxx11::basic_string<char, std::char_traits<char>, std::allocator<char> > const&, std::__cxx11::basic_string<char, std::char_traits<char>, std::allocator<char> > const&)
	_ZN4stan4lang17located_exceptionISt9bad_allocEC1ERKNSt7__cxx1112basic_stringIcSt11char_traitsIcESaIcEEESB_ @ 467
;	stan::lang::located_exception<std::bad_alloc>::~located_exception()
	_ZN4stan4lang17located_exceptionISt9bad_allocED0Ev @ 468
;	stan::lang::located_exception<std::bad_alloc>::~located_exception()
	_ZN4stan4lang17located_exceptionISt9bad_allocED1Ev @ 469
;	stan::lang::located_exception<std::exception>::located_exception(std::__cxx11::basic_string<char, std::char_traits<char>, std::allocator<char> > const&, std::__cxx11::basic_string<char, std::char_traits<char>, std::allocator<char> > const&)
	_ZN4stan4lang17located_exceptionISt9exceptionEC1ERKNSt7__cxx1112basic_stringIcSt11char_traitsIcESaIcEEESB_ @ 470
;	stan::lang::located_exception<std::exception>::~located_exception()
	_ZN4stan4lang17located_exceptionISt9exceptionED0Ev @ 471
;	stan::lang::located_exception<std::exception>::~located_exception()
	_ZN4stan4lang17located_exceptionISt9exceptionED1Ev @ 472
;	stan::math::vari_value<double, void>::set_zero_adjoint()
	_ZN4stan4math10vari_valueIdvE16set_zero_adjointEv @ 473
;	stan::math::vari_value<double, void>::chain()
	_ZN4stan4math10vari_valueIdvE5chainEv @ 474
;	stan::math::stack_alloc::move_to_next_block(unsigned long long)
	_ZN4stan4math11stack_alloc18move_to_next_blockEy @ 475
;	stan::math::ad_tape_observer::on_scheduler_exit(bool)
	_ZN4stan4math16ad_tape_observer17on_scheduler_exitEb @ 476
;	stan::math::ad_tape_observer::on_scheduler_entry(bool)
	_ZN4stan4math16ad_tape_observer18on_scheduler_entryEb @ 477
;	stan::math::ad_tape_observer::~ad_tape_observer()
	_ZN4stan4math16ad_tape_observerD0Ev @ 478
;	stan::math::ad_tape_observer::~ad_tape_observer()
	_ZN4stan4math16ad_tape_observerD1Ev @ 479
;	stan::math::internal::callback_vari<stan::plain_type<double, void>::type, stan::math::sum<stan::math::arena_allocator<stan::math::var_value<double, void> > >(std::vector<stan::math::var_value<double, void>, stan::math::arena_allocator<stan::math::var_value<double, void> > > const&)::{lambda(auto:1&)#1}>* stan::math::make_callback_vari<double, stan::math::sum<stan::math::arena_allocator<stan::math::var_value<double, void> > >(std::vector<stan::math::var_value<double, void>, stan::math::arena_allocator<stan::math::var_value<double, void> > > const&)::{lambda(auto:1&)#1}>(double&&, stan::math::sum<stan::math::arena_allocator<stan::math::var_value<double, void> > >(std::vector<stan::math::var_value<double, void>, stan::math::arena_allocator<stan::math::var_value<double, void> > > const&)::{lambda(auto:1&)#1}&&)
	_ZN4stan4math18make_callback_variIdZNS0_3sumINS0_15arena_allocatorINS0_9var_valueIdvEEEEEES5_RKSt6vectorIS5_T_EEUlRS8_E_EEPNS0_8internal13callback_variINS_10plain_typeIS8_vE4typeET0_EEOS8_OSJ_ @ 480
;	void stan::math::throw_domain_error<int>(char const*, char const*, int const&, char const*, char const*)
	_ZN4stan4math18throw_domain_errorIiEEvPKcS3_RKT_S3_S3_ @ 481
;	stan::math::AutodiffStackSingleton<stan::math::vari_base, stan::math::chainable_alloc>::AutodiffStackStorage::AutodiffStackStorage()
	_ZN4stan4math22AutodiffStackSingletonINS0_9vari_baseENS0_15chainable_allocEE20AutodiffStackStorageC1Ev @ 482
;	stan::math::AutodiffStackSingleton<stan::math::vari_base, stan::math::chainable_alloc>::init()
	_ZN4stan4math22AutodiffStackSingletonINS0_9vari_baseENS0_15chainable_allocEE4initEv @ 483
;	stan::math::AutodiffStackSingleton<stan::math::vari_base, stan::math::chainable_alloc>::~AutodiffStackSingleton()
	_ZN4stan4math22AutodiffStackSingletonINS0_9vari_baseENS0_15chainable_allocEED1Ev @ 484
;	stan::math::var_value<double, void> stan::math::sum<stan::math::arena_allocator<stan::math::var_value<double, void> > >(std::vector<stan::math::var_value<double, void>, stan::math::arena_allocator<stan::math::var_value<double, void> > > const&)
	_ZN4stan4math3sumINS0_15arena_allocatorINS0_9var_valueIdvEEEEEES4_RKSt6vectorIS4_T_E @ 485
;	stan::math::internal::callback_vari<double, stan::math::sum<stan::math::arena_allocator<stan::math::var_value<double, void> > >(std::vector<stan::math::var_value<double, void>, stan::math::arena_allocator<stan::math::var_value<double, void> > > const&)::{lambda(auto:1&)#1}>::chain()
	_ZN4stan4math8internal13callback_variIdZNS0_3sumINS0_15arena_allocatorINS0_9var_valueIdvEEEEEES6_RKSt6vectorIS6_T_EEUlRS9_E_E5chainEv @ 486
;	stan::math::internal::reverse_pass_callback_vari<stan::math::internal::partials_propagator<stan::math::var_value<double, void>, void, stan::math::var_value<double, void>, int, int>::build(double)::{lambda(auto:1&&)#1}::operator()<stan::math::internal::ops_partials_edge<double, stan::math::var_value<double, void>, void>&>(stan::math::internal::ops_partials_edge<double, stan::math::var_value<double, void>, void>&)::{lambda()#1}>::set_zero_adjoint()
	_ZN4stan4math8internal26reverse_pass_callback_variIZZNS1_19partials_propagatorINS0_9var_valueIdvEEvJS5_iiEE5buildEdENUlOT_E_clIRNS1_17ops_partials_edgeIdS5_vEEEEDaS8_EUlvE_E16set_zero_adjointEv @ 487
;	stan::math::internal::reverse_pass_callback_vari<stan::math::internal::partials_propagator<stan::math::var_value<double, void>, void, stan::math::var_value<double, void>, int, int>::build(double)::{lambda(auto:1&&)#1}::operator()<stan::math::internal::ops_partials_edge<double, stan::math::var_value<double, void>, void>&>(stan::math::internal::ops_partials_edge<double, stan::math::var_value<double, void>, void>&)::{lambda()#1}>::chain()
	_ZN4stan4math8internal26reverse_pass_callback_variIZZNS1_19partials_propagatorINS0_9var_valueIdvEEvJS5_iiEE5buildEdENUlOT_E_clIRNS1_17ops_partials_edgeIdS5_vEEEEDaS8_EUlvE_E5chainEv @ 488
;	stan::math::internal::reverse_pass_callback_vari<stan::math::internal::partials_propagator<stan::math::var_value<double, void>, void, stan::math::var_value<double, void>, int, int>::build(double)::{lambda(auto:1&&)#1}::operator()<stan::math::internal::ops_partials_edge<double, int, void>&>(stan::math::internal::ops_partials_edge<double, int, void>&)::{lambda()#1}>::set_zero_adjoint()
	_ZN4stan4math8internal26reverse_pass_callback_variIZZNS1_19partials_propagatorINS0_9var_valueIdvEEvJS5_iiEE5buildEdENUlOT_E_clIRNS1_17ops_partials_edgeIdivEEEEDaS8_EUlvE_E16set_zero_adjointEv @ 489
;	stan::math::internal::reverse_pass_callback_vari<stan::math::internal::partials_propagator<stan::math::var_value<double, void>, void, stan::math::var_value<double, void>, int, int>::build(double)::{lambda(auto:1&&)#1}::operator()<stan::math::internal::ops_partials_edge<double, int, void>&>(stan::math::internal::ops_partials_edge<double, int, void>&)::{lambda()#1}>::chain()
	_ZN4stan4math8internal26reverse_pass_callback_variIZZNS1_19partials_propagatorINS0_9var_valueIdvEEvJS5_iiEE5buildEdENUlOT_E_clIRNS1_17ops_partials_edgeIdivEEEEDaS8_EUlvE_E5chainEv @ 490
;	stan::math::internal::reverse_pass_callback_vari<stan::math::internal::partials_propagator<stan::math::var_value<double, void>, void, std::vector<double, std::allocator<double> >, stan::math::var_value<double, void>, int>::build(double)::{lambda(auto:1&&)#1}::operator()<stan::math::internal::ops_partials_edge<double, stan::math::var_value<double, void>, void>&>(stan::math::internal::ops_partials_edge<double, stan::math::var_value<double, void>, void>&)::{lambda()#1}>::set_zero_adjoint()
	_ZN4stan4math8internal26reverse_pass_callback_variIZZNS1_19partials_propagatorINS0_9var_valueIdvEEvJSt6vectorIdSaIdEES5_iEE5buildEdENUlOT_E_clIRNS1_17ops_partials_edgeIdS5_vEEEEDaSB_EUlvE_E16set_zero_adjointEv @ 491
;	stan::math::internal::reverse_pass_callback_vari<stan::math::internal::partials_propagator<stan::math::var_value<double, void>, void, std::vector<double, std::allocator<double> >, stan::math::var_value<double, void>, int>::build(double)::{lambda(auto:1&&)#1}::operator()<stan::math::internal::ops_partials_edge<double, stan::math::var_value<double, void>, void>&>(stan::math::internal::ops_partials_edge<double, stan::math::var_value<double, void>, void>&)::{lambda()#1}>::chain()
	_ZN4stan4math8internal26reverse_pass_callback_variIZZNS1_19partials_propagatorINS0_9var_valueIdvEEvJSt6vectorIdSaIdEES5_iEE5buildEdENUlOT_E_clIRNS1_17ops_partials_edgeIdS5_vEEEEDaSB_EUlvE_E5chainEv @ 492
;	stan::math::internal::reverse_pass_callback_vari<stan::math::internal::partials_propagator<stan::math::var_value<double, void>, void, std::vector<double, std::allocator<double> >, stan::math::var_value<double, void>, int>::build(double)::{lambda(auto:1&&)#1}::operator()<stan::math::internal::ops_partials_edge<double, std::vector<double, std::allocator<double> >, void>&>(stan::math::internal::ops_partials_edge<double, std::vector<double, std::allocator<double> >, void>&)::{lambda()#1}>::set_zero_adjoint()
	_ZN4stan4math8internal26reverse_pass_callback_variIZZNS1_19partials_propagatorINS0_9var_valueIdvEEvJSt6vectorIdSaIdEES5_iEE5buildEdENUlOT_E_clIRNS1_17ops_partials_edgeIdS8_vEEEEDaSB_EUlvE_E16set_zero_adjointEv @ 493
;	stan::math::internal::reverse_pass_callback_vari<stan::math::internal::partials_propagator<stan::math::var_value<double, void>, void, std::vector<double, std::allocator<double> >, stan::math::var_value<double, void>, int>::build(double)::{lambda(auto:1&&)#1}::operator()<stan::math::internal::ops_partials_edge<double, std::vector<double, std::allocator<double> >, void>&>(stan::math::internal::ops_partials_edge<double, std::vector<double, std::allocator<double> >, void>&)::{lambda()#1}>::chain()
	_ZN4stan4math8internal26reverse_pass_callback_variIZZNS1_19partials_propagatorINS0_9var_valueIdvEEvJSt6vectorIdSaIdEES5_iEE5buildEdENUlOT_E_clIRNS1_17ops_partials_edgeIdS8_vEEEEDaSB_EUlvE_E5chainEv @ 494
;	stan::math::internal::reverse_pass_callback_vari<stan::math::internal::partials_propagator<stan::math::var_value<double, void>, void, std::vector<double, std::allocator<double> >, stan::math::var_value<double, void>, int>::build(double)::{lambda(auto:1&&)#1}::operator()<stan::math::internal::ops_partials_edge<double, int, void>&>(stan::math::internal::ops_partials_edge<double, int, void>&)::{lambda()#1}>::set_zero_adjoint()
	_ZN4stan4math8internal26reverse_pass_callback_variIZZNS1_19partials_propagatorINS0_9var_valueIdvEEvJSt6vectorIdSaIdEES5_iEE5buildEdENUlOT_E_clIRNS1_17ops_partials_edgeIdivEEEEDaSB_EUlvE_E16set_zero_adjointEv @ 495
;	stan::math::internal::reverse_pass_callback_vari<stan::math::internal::partials_propagator<stan::math::var_value<double, void>, void, std::vector<double, std::allocator<double> >, stan::math::var_value<double, void>, int>::build(double)::{lambda(auto:1&&)#1}::operator()<stan::math::internal::ops_partials_edge<double, int, void>&>(stan::math::internal::ops_partials_edge<double, int, void>&)::{lambda()#1}>::chain()
	_ZN4stan4math8internal26reverse_pass_callback_variIZZNS1_19partials_propagatorINS0_9var_valueIdvEEvJSt6vectorIdSaIdEES5_iEE5buildEdENUlOT_E_clIRNS1_17ops_partials_edgeIdivEEEEDaSB_EUlvE_E5chainEv @ 496
;	void stan::math::internal::elementwise_throw_domain_error<char const*, char const*, char const*, char const*, double, char const*, char const*, char const*>(char const* const, char const* const, char const* const, char const* const, double const, char const* const, char const* const, char const* const)
	_ZN4stan4math8internal30elementwise_throw_domain_errorIJPKcS4_S4_S4_dS4_S4_S4_EEEvDpKT_ @ 497
;	void stan::math::internal::elementwise_throw_domain_error<char const*, char const*, char const*, char const*, int, char const*, char const*, char const*>(char const* const, char const* const, char const* const, char const* const, int const, char const* const, char const* const, char const* const)
	_ZN4stan4math8internal30elementwise_throw_domain_errorIJPKcS4_S4_S4_iS4_S4_S4_EEEvDpKT_ @ 498
;	void stan::math::internal::elementwise_throw_domain_error<char const*, char const*, char const*, char const*, unsigned long long, char const*, double, char const*, char const*, char const*>(char const* const, char const* const, char const* const, char const* const, unsigned long long const, char const* const, double const, char const* const, char const* const, char const* const)
	_ZN4stan4math8internal30elementwise_throw_domain_errorIJPKcS4_S4_S4_yS4_dS4_S4_S4_EEEvDpKT_ @ 499
;	stan::math::var_value<double, void>::var_value<double, (void*)0>(double)
	_ZN4stan4math9var_valueIdvEC1IdLPv0EEET_ @ 500
;	stan::model::prob_grad::~prob_grad()
	_ZN4stan5model9prob_gradD0Ev @ 501
;	stan::model::prob_grad::~prob_grad()
	_ZN4stan5model9prob_gradD1Ev @ 502
;	Eigen::internal::throw_std_bad_alloc()
	_ZN5Eigen8internal19throw_std_bad_allocEv @ 503
;	boost::wrapexcept<boost::regex_error>::~wrapexcept()
	_ZN5boost10wrapexceptINS_11regex_errorEED0Ev @ 504
;	boost::wrapexcept<boost::regex_error>::~wrapexcept()
	_ZN5boost10wrapexceptINS_11regex_errorEED1Ev @ 505
;	boost::wrapexcept<boost::bad_function_call>::~wrapexcept()
	_ZN5boost10wrapexceptINS_17bad_function_callEED0Ev @ 506
;	boost::wrapexcept<boost::bad_function_call>::~wrapexcept()
	_ZN5boost10wrapexceptINS_17bad_function_callEED1Ev @ 507
;	boost::wrapexcept<boost::math::rounding_error>::~wrapexcept()
	_ZN5boost10wrapexceptINS_4math14rounding_errorEED0Ev @ 508
;	boost::wrapexcept<boost::math::rounding_error>::~wrapexcept()
	_ZN5boost10wrapexceptINS_4math14rounding_errorEED1Ev @ 509
;	boost::wrapexcept<boost::math::evaluation_error>::~wrapexcept()
	_ZN5boost10wrapexceptINS_4math16evaluation_errorEED0Ev @ 510
;	boost::wrapexcept<boost::math::evaluation_error>::~wrapexcept()
	_ZN5boost10wrapexceptINS_4math16evaluation_errorEED1Ev @ 511
;	boost::wrapexcept<std::logic_error>::~wrapexcept()
	_ZN5boost10wrapexceptISt11logic_errorED0Ev @ 512
;	boost::wrapexcept<std::logic_error>::~wrapexcept()
	_ZN5boost10wrapexceptISt11logic_errorED1Ev @ 513
;	boost::wrapexcept<std::domain_error>::~wrapexcept()
	_ZN5boost10wrapexceptISt12domain_errorED0Ev @ 514
;	boost::wrapexcept<std::domain_error>::~wrapexcept()
	_ZN5boost10wrapexceptISt12domain_errorED1Ev @ 515
;	boost::wrapexcept<std::runtime_error>::~wrapexcept()
	_ZN5boost10wrapexceptISt13runtime_errorED0Ev @ 516
;	boost::wrapexcept<std::runtime_error>::~wrapexcept()
	_ZN5boost10wrapexceptISt13runtime_errorED1Ev @ 517
;	boost::wrapexcept<std::overflow_error>::~wrapexcept()
	_ZN5boost10wrapexceptISt14overflow_errorED0Ev @ 518
;	boost::wrapexcept<std::overflow_error>::~wrapexcept()
	_ZN5boost10wrapexceptISt14overflow_errorED1Ev @ 519
;	boost::wrapexcept<std::invalid_argument>::~wrapexcept()
	_ZN5boost10wrapexceptISt16invalid_argumentED0Ev @ 520
;	boost::wrapexcept<std::invalid_argument>::~wrapexcept()
	_ZN5boost10wrapexceptISt16invalid_argumentED1Ev @ 521
;	boost::regex_error::~regex_error()
	_ZN5boost11regex_errorD0Ev @ 522
;	boost::regex_error::~regex_error()
	_ZN5boost11regex_errorD1Ev @ 523
;	bool boost::regex_match<__gnu_cxx::__normal_iterator<char const*, std::__cxx11::basic_string<char, std::char_traits<char>, std::allocator<char> > >, std::allocator<boost::sub_match<__gnu_cxx::__normal_iterator<char const*, std::__cxx11::basic_string<char, std::char_traits<char>, std::allocator<char> > > > >, char, boost::regex_traits<char, boost::cpp_regex_traits<char> > >(__gnu_cxx::__normal_iterator<char const*, std::__cxx11::basic_string<char, std::char_traits<char>, std::allocator<char> > >, __gnu_cxx::__normal_iterator<char const*, std::__cxx11::basic_string<char, std::char_traits<char>, std::allocator<char> > >, boost::match_results<__gnu_cxx::__normal_iterator<char const*, std::__cxx11::basic_string<char, std::char_traits<char>, std::allocator<char> > >, std::allocator<boost::sub_match<__gnu_cxx::__normal_iterator<char const*, std::__cxx11::basic_string<char, std::char_traits<char>, std::allocator<char> > > > > >&, boost::basic_regex<char, boost::regex_traits<char, boost::cpp_regex_traits<char> > > const&, boost::regex_constants::_match_flags)
	_ZN5boost11regex_matchIN9__gnu_cxx17__normal_iteratorIPKcNSt7__cxx1112basic_stringIcSt11char_traitsIcESaIcEEEEESaINS_9sub_matchISB_EEEcNS_12regex_traitsIcNS_16cpp_regex_traitsIcEEEEEEbT_SJ_RNS_13match_resultsISJ_T0_EERKNS_11basic_regexIT1_T2_EENS_15regex_constants12_match_flagsE @ 524
;	boost::object_cache<boost::re_detail_500::cpp_regex_traits_base<char>, boost::re_detail_500::cpp_regex_traits_implementation<char> >::do_get(boost::re_detail_500::cpp_regex_traits_base<char> const&, unsigned long long)
	_ZN5boost12object_cacheINS_13re_detail_50021cpp_regex_traits_baseIcEENS1_31cpp_regex_traits_implementationIcEEE6do_getERKS3_y @ 525
;	boost::match_results<__gnu_cxx::__normal_iterator<char const*, std::__cxx11::basic_string<char, std::char_traits<char>, std::allocator<char> > >, std::allocator<boost::sub_match<__gnu_cxx::__normal_iterator<char const*, std::__cxx11::basic_string<char, std::char_traits<char>, std::allocator<char> > > > > >::maybe_assign(boost::match_results<__gnu_cxx::__normal_iterator<char const*, std::__cxx11::basic_string<char, std::char_traits<char>, std::allocator<char> > >, std::allocator<boost::sub_match<__gnu_cxx::__normal_iterator<char const*, std::__cxx11::basic_string<char, std::char_traits<char>, std::allocator<char> > > > > > const&)
	_ZN5boost13match_resultsIN9__gnu_cxx17__normal_iteratorIPKcNSt7__cxx1112basic_stringIcSt11char_traitsIcESaIcEEEEESaINS_9sub_matchISB_EEEE12maybe_assignERKSF_ @ 526
;	boost::match_results<__gnu_cxx::__normal_iterator<char const*, std::__cxx11::basic_string<char, std::char_traits<char>, std::allocator<char> > >, std::allocator<boost::sub_match<__gnu_cxx::__normal_iterator<char const*, std::__cxx11::basic_string<char, std::char_traits<char>, std::allocator<char> > > > > >::raise_logic_error()
	_ZN5boost13match_resultsIN9__gnu_cxx17__normal_iteratorIPKcNSt7__cxx1112basic_stringIcSt11char_traitsIcESaIcEEEEESaINS_9sub_matchISB_EEEE17raise_logic_errorEv @ 527
;	boost::match_results<__gnu_cxx::__normal_iterator<char const*, std::__cxx11::basic_string<char, std::char_traits<char>, std::allocator<char> > >, std::allocator<boost::sub_match<__gnu_cxx::__normal_iterator<char const*, std::__cxx11::basic_string<char, std::char_traits<char>, std::allocator<char> > > > > >::~match_results()
	_ZN5boost13match_resultsIN9__gnu_cxx17__normal_iteratorIPKcNSt7__cxx1112basic_stringIcSt11char_traitsIcESaIcEEEEESaINS_9sub_matchISB_EEEED1Ev @ 528
;	boost::re_detail_500::parser_buf<char, std::char_traits<char> >::setbuf(char*, long long)
	_ZN5boost13re_detail_50010parser_bufIcSt11char_traitsIcEE6setbufEPcx @ 529
;	boost::re_detail_500::parser_buf<char, std::char_traits<char> >::seekoff(long long, std::_Ios_Seekdir, std::_Ios_Openmode)
	_ZN5boost13re_detail_50010parser_bufIcSt11char_traitsIcEE7seekoffExSt12_Ios_SeekdirSt13_Ios_Openmode @ 530
;	boost::re_detail_500::parser_buf<char, std::char_traits<char> >::seekpos(std::fpos<_Mbstatet>, std::_Ios_Openmode)
	_ZN5boost13re_detail_50010parser_bufIcSt11char_traitsIcEE7seekposESt4fposI9_MbstatetESt13_Ios_Openmode @ 531
;	boost::re_detail_500::parser_buf<char, std::char_traits<char> >::~parser_buf()
	_ZN5boost13re_detail_50010parser_bufIcSt11char_traitsIcEED0Ev @ 532
;	boost::re_detail_500::parser_buf<char, std::char_traits<char> >::~parser_buf()
	_ZN5boost13re_detail_50010parser_bufIcSt11char_traitsIcEED1Ev @ 533
;	boost::re_detail_500::regex_data<char, boost::regex_traits<char, boost::cpp_regex_traits<char> > >::~regex_data()
	_ZN5boost13re_detail_50010regex_dataIcNS_12regex_traitsIcNS_16cpp_regex_traitsIcEEEEED2Ev @ 534
;	void boost::re_detail_500::raise_error<boost::regex_traits_wrapper<boost::regex_traits<char, boost::cpp_regex_traits<char> > > >(boost::regex_traits_wrapper<boost::regex_traits<char, boost::cpp_regex_traits<char> > > const&, boost::regex_constants::error_type)
	_ZN5boost13re_detail_50011raise_errorINS_20regex_traits_wrapperINS_12regex_traitsIcNS_16cpp_regex_traitsIcEEEEEEEEvRKT_NS_15regex_constants10error_typeE @ 535
;	boost::re_detail_500::perl_matcher<__gnu_cxx::__normal_iterator<char const*, std::__cxx11::basic_string<char, std::char_traits<char>, std::allocator<char> > >, std::allocator<boost::sub_match<__gnu_cxx::__normal_iterator<char const*, std::__cxx11::basic_string<char, std::char_traits<char>, std::allocator<char> > > > >, boost::regex_traits<char, boost::cpp_regex_traits<char> > >::match_fail()
	_ZN5boost13re_detail_50012perl_matcherIN9__gnu_cxx17__normal_iteratorIPKcNSt7__cxx1112basic_stringIcSt11char_traitsIcESaIcEEEEESaINS_9sub_matchISC_EEENS_12regex_traitsIcNS_16cpp_regex_traitsIcEEEEE10match_failEv @ 536
;	boost::re_detail_500::perl_matcher<__gnu_cxx::__normal_iterator<char const*, std::__cxx11::basic_string<char, std::char_traits<char>, std::allocator<char> > >, std::allocator<boost::sub_match<__gnu_cxx::__normal_iterator<char const*, std::__cxx11::basic_string<char, std::char_traits<char>, std::allocator<char> > > > >, boost::regex_traits<char, boost::cpp_regex_traits<char> > >::match_jump()
	_ZN5boost13re_detail_50012perl_matcherIN9__gnu_cxx17__normal_iteratorIPKcNSt7__cxx1112basic_stringIcSt11char_traitsIcESaIcEEEEESaINS_9sub_matchISC_EEENS_12regex_traitsIcNS_16cpp_regex_traitsIcEEEEE10match_jumpEv @ 537
;	boost::re_detail_500::perl_matcher<__gnu_cxx::__normal_iterator<char const*, std::__cxx11::basic_string<char, std::char_traits<char>, std::allocator<char> > >, std::allocator<boost::sub_match<__gnu_cxx::__normal_iterator<char const*, std::__cxx11::basic_string<char, std::char_traits<char>, std::allocator<char> > > > >, boost::regex_traits<char, boost::cpp_regex_traits<char> > >::match_then()
	_ZN5boost13re_detail_50012perl_matcherIN9__gnu_cxx17__normal_iteratorIPKcNSt7__cxx1112basic_stringIcSt11char_traitsIcESaIcEEEEESaINS_9sub_matchISC_EEENS_12regex_traitsIcNS_16cpp_regex_traitsIcEEEEE10match_thenEv @ 538
;	boost::re_detail_500::perl_matcher<__gnu_cxx::__normal_iterator<char const*, std::__cxx11::basic_string<char, std::char_traits<char>, std::allocator<char> > >, std::allocator<boost::sub_match<__gnu_cxx::__normal_iterator<char const*, std::__cxx11::basic_string<char, std::char_traits<char>, std::allocator<char> > > > >, boost::regex_traits<char, boost::cpp_regex_traits<char> > >::match_wild()
	_ZN5boost13re_detail_50012perl_matcherIN9__gnu_cxx17__normal_iteratorIPKcNSt7__cxx1112basic_stringIcSt11char_traitsIcESaIcEEEEESaINS_9sub_matchISC_EEENS_12regex_traitsIcNS_16cpp_regex_traitsIcEEEEE10match_wildEv @ 539
;	boost::re_detail_500::perl_matcher<__gnu_cxx::__normal_iterator<char const*, std::__cxx11::basic_string<char, std::char_traits<char>, std::allocator<char> > >, std::allocator<boost::sub_match<__gnu_cxx::__normal_iterator<char const*, std::__cxx11::basic_string<char, std::char_traits<char>, std::allocator<char> > > > >, boost::regex_traits<char, boost::cpp_regex_traits<char> > >::unwind_alt(bool)
	_ZN5boost13re_detail_50012perl_matcherIN9__gnu_cxx17__normal_iteratorIPKcNSt7__cxx1112basic_stringIcSt11char_traitsIcESaIcEEEEESaINS_9sub_matchISC_EEENS_12regex_traitsIcNS_16cpp_regex_traitsIcEEEEE10unwind_altEb @ 540
;	boost::re_detail_500::perl_matcher<__gnu_cxx::__normal_iterator<char const*, std::__cxx11::basic_string<char, std::char_traits<char>, std::allocator<char> > >, std::allocator<boost::sub_match<__gnu_cxx::__normal_iterator<char const*, std::__cxx11::basic_string<char, std::char_traits<char>, std::allocator<char> > > > >, boost::regex_traits<char, boost::cpp_regex_traits<char> > >::unwind_end(bool)
	_ZN5boost13re_detail_50012perl_matcherIN9__gnu_cxx17__normal_iteratorIPKcNSt7__cxx1112basic_stringIcSt11char_traitsIcESaIcEEEEESaINS_9sub_matchISC_EEENS_12regex_traitsIcNS_16cpp_regex_traitsIcEEEEE10unwind_endEb @ 541
;	boost::re_detail_500::perl_matcher<__gnu_cxx::__normal_iterator<char const*, std::__cxx11::basic_string<char, std::char_traits<char>, std::allocator<char> > >, std::allocator<boost::sub_match<__gnu_cxx::__normal_iterator<char const*, std::__cxx11::basic_string<char, std::char_traits<char>, std::allocator<char> > > > >, boost::regex_traits<char, boost::cpp_regex_traits<char> > >::match_match()
	_ZN5boost13re_detail_50012perl_matcherIN9__gnu_cxx17__normal_iteratorIPKcNSt7__cxx1112basic_stringIcSt11char_traitsIcESaIcEEEEESaINS_9sub_matchISC_EEENS_12regex_traitsIcNS_16cpp_regex_traitsIcEEEEE11match_matchEv @ 542
;	boost::re_detail_500::perl_matcher<__gnu_cxx::__normal_iterator<char const*, std::__cxx11::basic_string<char, std::char_traits<char>, std::allocator<char> > >, std::allocator<boost::sub_match<__gnu_cxx::__normal_iterator<char const*, std::__cxx11::basic_string<char, std::char_traits<char>, std::allocator<char> > > > >, boost::regex_traits<char, boost::cpp_regex_traits<char> > >::unwind_case(bool)
	_ZN5boost13re_detail_50012perl_matcherIN9__gnu_cxx17__normal_iteratorIPKcNSt7__cxx1112basic_stringIcSt11char_traitsIcESaIcEEEEESaINS_9sub_matchISC_EEENS_12regex_traitsIcNS_16cpp_regex_traitsIcEEEEE11unwind_caseEb @ 543
;	boost::re_detail_500::perl_matcher<__gnu_cxx::__normal_iterator<char const*, std::__cxx11::basic_string<char, std::char_traits<char>, std::allocator<char> > >, std::allocator<boost::sub_match<__gnu_cxx::__normal_iterator<char const*, std::__cxx11::basic_string<char, std::char_traits<char>, std::allocator<char> > > > >, boost::regex_traits<char, boost::cpp_regex_traits<char> > >::unwind_then(bool)
	_ZN5boost13re_detail_50012perl_matcherIN9__gnu_cxx17__normal_iteratorIPKcNSt7__cxx1112basic_stringIcSt11char_traitsIcESaIcEEEEESaINS_9sub_matchISC_EEENS_12regex_traitsIcNS_16cpp_regex_traitsIcEEEEE11unwind_thenEb @ 544
;	boost::re_detail_500::perl_matcher<__gnu_cxx::__normal_iterator<char const*, std::__cxx11::basic_string<char, std::char_traits<char>, std::allocator<char> > >, std::allocator<boost::sub_match<__gnu_cxx::__normal_iterator<char const*, std::__cxx11::basic_string<char, std::char_traits<char>, std::allocator<char> > > > >, boost::regex_traits<char, boost::cpp_regex_traits<char> > >::extend_stack()
	_ZN5boost13re_detail_50012perl_matcherIN9__gnu_cxx17__normal_iteratorIPKcNSt7__cxx1112basic_stringIcSt11char_traitsIcESaIcEEEEESaINS_9sub_matchISC_EEENS_12regex_traitsIcNS_16cpp_regex_traitsIcEEEEE12extend_stackEv @ 545
;	boost::re_detail_500::perl_matcher<__gnu_cxx::__normal_iterator<char const*, std::__cxx11::basic_string<char, std::char_traits<char>, std::allocator<char> > >, std::allocator<boost::sub_match<__gnu_cxx::__normal_iterator<char const*, std::__cxx11::basic_string<char, std::char_traits<char>, std::allocator<char> > > > >, boost::regex_traits<char, boost::cpp_regex_traits<char> > >::match_accept()
	_ZN5boost13re_detail_50012perl_matcherIN9__gnu_cxx17__normal_iteratorIPKcNSt7__cxx1112basic_stringIcSt11char_traitsIcESaIcEEEEESaINS_9sub_matchISC_EEENS_12regex_traitsIcNS_16cpp_regex_traitsIcEEEEE12match_acceptEv @ 546
;	boost::re_detail_500::perl_matcher<__gnu_cxx::__normal_iterator<char const*, std::__cxx11::basic_string<char, std::char_traits<char>, std::allocator<char> > >, std::allocator<boost::sub_match<__gnu_cxx::__normal_iterator<char const*, std::__cxx11::basic_string<char, std::char_traits<char>, std::allocator<char> > > > >, boost::regex_traits<char, boost::cpp_regex_traits<char> > >::match_commit()
	_ZN5boost13re_detail_50012perl_matcherIN9__gnu_cxx17__normal_iteratorIPKcNSt7__cxx1112basic_stringIcSt11char_traitsIcESaIcEEEEESaINS_9sub_matchISC_EEENS_12regex_traitsIcNS_16cpp_regex_traitsIcEEEEE12match_commitEv @ 547
;	boost::re_detail_500::perl_matcher<__gnu_cxx::__normal_iterator<char const*, std::__cxx11::basic_string<char, std::char_traits<char>, std::allocator<char> > >, std::allocator<boost::sub_match<__gnu_cxx::__normal_iterator<char const*, std::__cxx11::basic_string<char, std::char_traits<char>, std::allocator<char> > > > >, boost::regex_traits<char, boost::cpp_regex_traits<char> > >::unwind_paren(bool)
	_ZN5boost13re_detail_50012perl_matcherIN9__gnu_cxx17__normal_iteratorIPKcNSt7__cxx1112basic_stringIcSt11char_traitsIcESaIcEEEEESaINS_9sub_matchISC_EEENS_12regex_traitsIcNS_16cpp_regex_traitsIcEEEEE12unwind_parenEb @ 548
;	boost::re_detail_500::perl_matcher<__gnu_cxx::__normal_iterator<char const*, std::__cxx11::basic_string<char, std::char_traits<char>, std::allocator<char> > >, std::allocator<boost::sub_match<__gnu_cxx::__normal_iterator<char const*, std::__cxx11::basic_string<char, std::char_traits<char>, std::allocator<char> > > > >, boost::regex_traits<char, boost::cpp_regex_traits<char> > >::match_backref()
	_ZN5boost13re_detail_50012perl_matcherIN9__gnu_cxx17__normal_iteratorIPKcNSt7__cxx1112basic_stringIcSt11char_traitsIcESaIcEEEEESaINS_9sub_matchISC_EEENS_12regex_traitsIcNS_16cpp_regex_traitsIcEEEEE13match_backrefEv @ 549
;	boost::re_detail_500::perl_matcher<__gnu_cxx::__normal_iterator<char const*, std::__cxx11::basic_string<char, std::char_traits<char>, std::allocator<char> > >, std::allocator<boost::sub_match<__gnu_cxx::__normal_iterator<char const*, std::__cxx11::basic_string<char, std::char_traits<char>, std::allocator<char> > > > >, boost::regex_traits<char, boost::cpp_regex_traits<char> > >::match_endmark()
	_ZN5boost13re_detail_50012perl_matcherIN9__gnu_cxx17__normal_iteratorIPKcNSt7__cxx1112basic_stringIcSt11char_traitsIcESaIcEEEEESaINS_9sub_matchISC_EEENS_12regex_traitsIcNS_16cpp_regex_traitsIcEEEEE13match_endmarkEv @ 550
;	boost::re_detail_500::perl_matcher<__gnu_cxx::__normal_iterator<char const*, std::__cxx11::basic_string<char, std::char_traits<char>, std::allocator<char> > >, std::allocator<boost::sub_match<__gnu_cxx::__normal_iterator<char const*, std::__cxx11::basic_string<char, std::char_traits<char>, std::allocator<char> > > > >, boost::regex_traits<char, boost::cpp_regex_traits<char> > >::match_literal()
	_ZN5boost13re_detail_50012perl_matcherIN9__gnu_cxx17__normal_iteratorIPKcNSt7__cxx1112basic_stringIcSt11char_traitsIcESaIcEEEEESaINS_9sub_matchISC_EEENS_12regex_traitsIcNS_16cpp_regex_traitsIcEEEEE13match_literalEv @ 551
;	boost::re_detail_500::perl_matcher<__gnu_cxx::__normal_iterator<char const*, std::__cxx11::basic_string<char, std::char_traits<char>, std::allocator<char> > >, std::allocator<boost::sub_match<__gnu_cxx::__normal_iterator<char const*, std::__cxx11::basic_string<char, std::char_traits<char>, std::allocator<char> > > > >, boost::regex_traits<char, boost::cpp_regex_traits<char> > >::unwind_commit(bool)
	_ZN5boost13re_detail_50012perl_matcherIN9__gnu_cxx17__normal_iteratorIPKcNSt7__cxx1112basic_stringIcSt11char_traitsIcESaIcEEEEESaINS_9sub_matchISC_EEENS_12regex_traitsIcNS_16cpp_regex_traitsIcEEEEE13unwind_commitEb @ 552
;	boost::re_detail_500::perl_matcher<__gnu_cxx::__normal_iterator<char const*, std::__cxx11::basic_string<char, std::char_traits<char>, std::allocator<char> > >, std::allocator<boost::sub_match<__gnu_cxx::__normal_iterator<char const*, std::__cxx11::basic_string<char, std::char_traits<char>, std::allocator<char> > > > >, boost::regex_traits<char, boost::cpp_regex_traits<char> > >::construct_init(boost::basic_regex<char, boost::regex_traits<char, boost::cpp_regex_traits<char> > > const&, boost::regex_constants::_match_flags)
	_ZN5boost13re_detail_50012perl_matcherIN9__gnu_cxx17__normal_iteratorIPKcNSt7__cxx1112basic_stringIcSt11char_traitsIcESaIcEEEEESaINS_9sub_matchISC_EEENS_12regex_traitsIcNS_16cpp_regex_traitsIcEEEEE14construct_initERKNS_11basic_regexIcSJ_EENS_15regex_constants12_match_flagsE @ 553
;	boost::re_detail_500::perl_matcher<__gnu_cxx::__normal_iterator<char const*, std::__cxx11::basic_string<char, std::char_traits<char>, std::allocator<char> > >, std::allocator<boost::sub_match<__gnu_cxx::__normal_iterator<char const*, std::__cxx11::basic_string<char, std::char_traits<char>, std::allocator<char> > > > >, boost::regex_traits<char, boost::cpp_regex_traits<char> > >::match_backstep()
	_ZN5boost13re_detail_50012perl_matcherIN9__gnu_cxx17__normal_iteratorIPKcNSt7__cxx1112basic_stringIcSt11char_traitsIcESaIcEEEEESaINS_9sub_matchISC_EEENS_12regex_traitsIcNS_16cpp_regex_traitsIcEEEEE14match_backstepEv @ 554
;	boost::re_detail_500::perl_matcher<__gnu_cxx::__normal_iterator<char const*, std::__cxx11::basic_string<char, std::char_traits<char>, std::allocator<char> > >, std::allocator<boost::sub_match<__gnu_cxx::__normal_iterator<char const*, std::__cxx11::basic_string<char, std::char_traits<char>, std::allocator<char> > > > >, boost::regex_traits<char, boost::cpp_regex_traits<char> > >::match_end_line()
	_ZN5boost13re_detail_50012perl_matcherIN9__gnu_cxx17__normal_iteratorIPKcNSt7__cxx1112basic_stringIcSt11char_traitsIcESaIcEEEEESaINS_9sub_matchISC_EEENS_12regex_traitsIcNS_16cpp_regex_traitsIcEEEEE14match_end_lineEv @ 555
;	boost::re_detail_500::perl_matcher<__gnu_cxx::__normal_iterator<char const*, std::__cxx11::basic_string<char, std::char_traits<char>, std::allocator<char> > >, std::allocator<boost::sub_match<__gnu_cxx::__normal_iterator<char const*, std::__cxx11::basic_string<char, std::char_traits<char>, std::allocator<char> > > > >, boost::regex_traits<char, boost::cpp_regex_traits<char> > >::match_long_set()
	_ZN5boost13re_detail_50012perl_matcherIN9__gnu_cxx17__normal_iteratorIPKcNSt7__cxx1112basic_stringIcSt11char_traitsIcESaIcEEEEESaINS_9sub_matchISC_EEENS_12regex_traitsIcNS_16cpp_regex_traitsIcEEEEE14match_long_setEv @ 556
;	boost::re_detail_500::perl_matcher<__gnu_cxx::__normal_iterator<char const*, std::__cxx11::basic_string<char, std::char_traits<char>, std::allocator<char> > >, std::allocator<boost::sub_match<__gnu_cxx::__normal_iterator<char const*, std::__cxx11::basic_string<char, std::char_traits<char>, std::allocator<char> > > > >, boost::regex_traits<char, boost::cpp_regex_traits<char> > >::match_word_end()
	_ZN5boost13re_detail_50012perl_matcherIN9__gnu_cxx17__normal_iteratorIPKcNSt7__cxx1112basic_stringIcSt11char_traitsIcESaIcEEEEESaINS_9sub_matchISC_EEENS_12regex_traitsIcNS_16cpp_regex_traitsIcEEEEE14match_word_endEv @ 557
;	boost::re_detail_500::perl_matcher<__gnu_cxx::__normal_iterator<char const*, std::__cxx11::basic_string<char, std::char_traits<char>, std::allocator<char> > >, std::allocator<boost::sub_match<__gnu_cxx::__normal_iterator<char const*, std::__cxx11::basic_string<char, std::char_traits<char>, std::allocator<char> > > > >, boost::regex_traits<char, boost::cpp_regex_traits<char> > >::match_combining()
	_ZN5boost13re_detail_50012perl_matcherIN9__gnu_cxx17__normal_iteratorIPKcNSt7__cxx1112basic_stringIcSt11char_traitsIcESaIcEEEEESaINS_9sub_matchISC_EEENS_12regex_traitsIcNS_16cpp_regex_traitsIcEEEEE15match_combiningEv @ 558
;	boost::re_detail_500::perl_matcher<__gnu_cxx::__normal_iterator<char const*, std::__cxx11::basic_string<char, std::char_traits<char>, std::allocator<char> > >, std::allocator<boost::sub_match<__gnu_cxx::__normal_iterator<char const*, std::__cxx11::basic_string<char, std::char_traits<char>, std::allocator<char> > > > >, boost::regex_traits<char, boost::cpp_regex_traits<char> > >::match_recursion()
	_ZN5boost13re_detail_50012perl_matcherIN9__gnu_cxx17__normal_iteratorIPKcNSt7__cxx1112basic_stringIcSt11char_traitsIcESaIcEEEEESaINS_9sub_matchISC_EEENS_12regex_traitsIcNS_16cpp_regex_traitsIcEEEEE15match_recursionEv @ 559
;	boost::re_detail_500::perl_matcher<__gnu_cxx::__normal_iterator<char const*, std::__cxx11::basic_string<char, std::char_traits<char>, std::allocator<char> > >, std::allocator<boost::sub_match<__gnu_cxx::__normal_iterator<char const*, std::__cxx11::basic_string<char, std::char_traits<char>, std::allocator<char> > > > >, boost::regex_traits<char, boost::cpp_regex_traits<char> > >::match_startmark()
	_ZN5boost13re_detail_50012perl_matcherIN9__gnu_cxx17__normal_iteratorIPKcNSt7__cxx1112basic_stringIcSt11char_traitsIcESaIcEEEEESaINS_9sub_matchISC_EEENS_12regex_traitsIcNS_16cpp_regex_traitsIcEEEEE15match_startmarkEv @ 560
;	boost::re_detail_500::perl_matcher<__gnu_cxx::__normal_iterator<char const*, std::__cxx11::basic_string<char, std::char_traits<char>, std::allocator<char> > >, std::allocator<boost::sub_match<__gnu_cxx::__normal_iterator<char const*, std::__cxx11::basic_string<char, std::char_traits<char>, std::allocator<char> > > > >, boost::regex_traits<char, boost::cpp_regex_traits<char> > >::match_all_states()
	_ZN5boost13re_detail_50012perl_matcherIN9__gnu_cxx17__normal_iteratorIPKcNSt7__cxx1112basic_stringIcSt11char_traitsIcESaIcEEEEESaINS_9sub_matchISC_EEENS_12regex_traitsIcNS_16cpp_regex_traitsIcEEEEE16match_all_statesEv @ 561
;	boost::re_detail_500::perl_matcher<__gnu_cxx::__normal_iterator<char const*, std::__cxx11::basic_string<char, std::char_traits<char>, std::allocator<char> > >, std::allocator<boost::sub_match<__gnu_cxx::__normal_iterator<char const*, std::__cxx11::basic_string<char, std::char_traits<char>, std::allocator<char> > > > >, boost::regex_traits<char, boost::cpp_regex_traits<char> > >::match_buffer_end()
	_ZN5boost13re_detail_50012perl_matcherIN9__gnu_cxx17__normal_iteratorIPKcNSt7__cxx1112basic_stringIcSt11char_traitsIcESaIcEEEEESaINS_9sub_matchISC_EEENS_12regex_traitsIcNS_16cpp_regex_traitsIcEEEEE16match_buffer_endEv @ 562
;	boost::re_detail_500::perl_matcher<__gnu_cxx::__normal_iterator<char const*, std::__cxx11::basic_string<char, std::char_traits<char>, std::allocator<char> > >, std::allocator<boost::sub_match<__gnu_cxx::__normal_iterator<char const*, std::__cxx11::basic_string<char, std::char_traits<char>, std::allocator<char> > > > >, boost::regex_traits<char, boost::cpp_regex_traits<char> > >::match_set_repeat()
	_ZN5boost13re_detail_50012perl_matcherIN9__gnu_cxx17__normal_iteratorIPKcNSt7__cxx1112basic_stringIcSt11char_traitsIcESaIcEEEEESaINS_9sub_matchISC_EEENS_12regex_traitsIcNS_16cpp_regex_traitsIcEEEEE16match_set_repeatEv @ 563
;	boost::re_detail_500::perl_matcher<__gnu_cxx::__normal_iterator<char const*, std::__cxx11::basic_string<char, std::char_traits<char>, std::allocator<char> > >, std::allocator<boost::sub_match<__gnu_cxx::__normal_iterator<char const*, std::__cxx11::basic_string<char, std::char_traits<char>, std::allocator<char> > > > >, boost::regex_traits<char, boost::cpp_regex_traits<char> > >::match_start_line()
	_ZN5boost13re_detail_50012perl_matcherIN9__gnu_cxx17__normal_iteratorIPKcNSt7__cxx1112basic_stringIcSt11char_traitsIcESaIcEEEEESaINS_9sub_matchISC_EEENS_12regex_traitsIcNS_16cpp_regex_traitsIcEEEEE16match_start_lineEv @ 564
;	boost::re_detail_500::perl_matcher<__gnu_cxx::__normal_iterator<char const*, std::__cxx11::basic_string<char, std::char_traits<char>, std::allocator<char> > >, std::allocator<boost::sub_match<__gnu_cxx::__normal_iterator<char const*, std::__cxx11::basic_string<char, std::char_traits<char>, std::allocator<char> > > > >, boost::regex_traits<char, boost::cpp_regex_traits<char> > >::match_word_start()
	_ZN5boost13re_detail_50012perl_matcherIN9__gnu_cxx17__normal_iteratorIPKcNSt7__cxx1112basic_stringIcSt11char_traitsIcESaIcEEEEESaINS_9sub_matchISC_EEENS_12regex_traitsIcNS_16cpp_regex_traitsIcEEEEE16match_word_startEv @ 565
;	boost::re_detail_500::perl_matcher<__gnu_cxx::__normal_iterator<char const*, std::__cxx11::basic_string<char, std::char_traits<char>, std::allocator<char> > >, std::allocator<boost::sub_match<__gnu_cxx::__normal_iterator<char const*, std::__cxx11::basic_string<char, std::char_traits<char>, std::allocator<char> > > > >, boost::regex_traits<char, boost::cpp_regex_traits<char> > >::skip_until_paren(int, bool)
	_ZN5boost13re_detail_50012perl_matcherIN9__gnu_cxx17__normal_iteratorIPKcNSt7__cxx1112basic_stringIcSt11char_traitsIcESaIcEEEEESaINS_9sub_matchISC_EEENS_12regex_traitsIcNS_16cpp_regex_traitsIcEEEEE16skip_until_parenEib @ 566
;	boost::re_detail_500::perl_matcher<__gnu_cxx::__normal_iterator<char const*, std::__cxx11::basic_string<char, std::char_traits<char>, std::allocator<char> > >, std::allocator<boost::sub_match<__gnu_cxx::__normal_iterator<char const*, std::__cxx11::basic_string<char, std::char_traits<char>, std::allocator<char> > > > >, boost::regex_traits<char, boost::cpp_regex_traits<char> > >::unwind_assertion(bool)
	_ZN5boost13re_detail_50012perl_matcherIN9__gnu_cxx17__normal_iteratorIPKcNSt7__cxx1112basic_stringIcSt11char_traitsIcESaIcEEEEESaINS_9sub_matchISC_EEENS_12regex_traitsIcNS_16cpp_regex_traitsIcEEEEE16unwind_assertionEb @ 567
;	boost::re_detail_500::perl_matcher<__gnu_cxx::__normal_iterator<char const*, std::__cxx11::basic_string<char, std::char_traits<char>, std::allocator<char> > >, std::allocator<boost::sub_match<__gnu_cxx::__normal_iterator<char const*, std::__cxx11::basic_string<char, std::char_traits<char>, std::allocator<char> > > > >, boost::regex_traits<char, boost::cpp_regex_traits<char> > >::unwind_recursion(bool)
	_ZN5boost13re_detail_50012perl_matcherIN9__gnu_cxx17__normal_iteratorIPKcNSt7__cxx1112basic_stringIcSt11char_traitsIcESaIcEEEEESaINS_9sub_matchISC_EEENS_12regex_traitsIcNS_16cpp_regex_traitsIcEEEEE16unwind_recursionEb @ 568
;	boost::re_detail_500::perl_matcher<__gnu_cxx::__normal_iterator<char const*, std::__cxx11::basic_string<char, std::char_traits<char>, std::allocator<char> > >, std::allocator<boost::sub_match<__gnu_cxx::__normal_iterator<char const*, std::__cxx11::basic_string<char, std::char_traits<char>, std::allocator<char> > > > >, boost::regex_traits<char, boost::cpp_regex_traits<char> > >::match_char_repeat()
	_ZN5boost13re_detail_50012perl_matcherIN9__gnu_cxx17__normal_iteratorIPKcNSt7__cxx1112basic_stringIcSt11char_traitsIcESaIcEEEEESaINS_9sub_matchISC_EEENS_12regex_traitsIcNS_16cpp_regex_traitsIcEEEEE17match_char_repeatEv @ 569
;	boost::re_detail_500::perl_matcher<__gnu_cxx::__normal_iterator<char const*, std::__cxx11::basic_string<char, std::char_traits<char>, std::allocator<char> > >, std::allocator<boost::sub_match<__gnu_cxx::__normal_iterator<char const*, std::__cxx11::basic_string<char, std::char_traits<char>, std::allocator<char> > > > >, boost::regex_traits<char, boost::cpp_regex_traits<char> > >::match_toggle_case()
	_ZN5boost13re_detail_50012perl_matcherIN9__gnu_cxx17__normal_iteratorIPKcNSt7__cxx1112basic_stringIcSt11char_traitsIcESaIcEEEEESaINS_9sub_matchISC_EEENS_12regex_traitsIcNS_16cpp_regex_traitsIcEEEEE17match_toggle_caseEv @ 570
;	boost::re_detail_500::perl_matcher<__gnu_cxx::__normal_iterator<char const*, std::__cxx11::basic_string<char, std::char_traits<char>, std::allocator<char> > >, std::allocator<boost::sub_match<__gnu_cxx::__normal_iterator<char const*, std::__cxx11::basic_string<char, std::char_traits<char>, std::allocator<char> > > > >, boost::regex_traits<char, boost::cpp_regex_traits<char> > >::match_within_word()
	_ZN5boost13re_detail_50012perl_matcherIN9__gnu_cxx17__normal_iteratorIPKcNSt7__cxx1112basic_stringIcSt11char_traitsIcESaIcEEEEESaINS_9sub_matchISC_EEENS_12regex_traitsIcNS_16cpp_regex_traitsIcEEEEE17match_within_wordEv @ 571
;	boost::re_detail_500::perl_matcher<__gnu_cxx::__normal_iterator<char const*, std::__cxx11::basic_string<char, std::char_traits<char>, std::allocator<char> > >, std::allocator<boost::sub_match<__gnu_cxx::__normal_iterator<char const*, std::__cxx11::basic_string<char, std::char_traits<char>, std::allocator<char> > > > >, boost::regex_traits<char, boost::cpp_regex_traits<char> > >::match_buffer_start()
	_ZN5boost13re_detail_50012perl_matcherIN9__gnu_cxx17__normal_iteratorIPKcNSt7__cxx1112basic_stringIcSt11char_traitsIcESaIcEEEEESaINS_9sub_matchISC_EEENS_12regex_traitsIcNS_16cpp_regex_traitsIcEEEEE18match_buffer_startEv @ 572
;	boost::re_detail_500::perl_matcher<__gnu_cxx::__normal_iterator<char const*, std::__cxx11::basic_string<char, std::char_traits<char>, std::allocator<char> > >, std::allocator<boost::sub_match<__gnu_cxx::__normal_iterator<char const*, std::__cxx11::basic_string<char, std::char_traits<char>, std::allocator<char> > > > >, boost::regex_traits<char, boost::cpp_regex_traits<char> > >::unwind_char_repeat(bool)
	_ZN5boost13re_detail_50012perl_matcherIN9__gnu_cxx17__normal_iteratorIPKcNSt7__cxx1112basic_stringIcSt11char_traitsIcESaIcEEEEESaINS_9sub_matchISC_EEENS_12regex_traitsIcNS_16cpp_regex_traitsIcEEEEE18unwind_char_repeatEb @ 573
;	boost::re_detail_500::perl_matcher<__gnu_cxx::__normal_iterator<char const*, std::__cxx11::basic_string<char, std::char_traits<char>, std::allocator<char> > >, std::allocator<boost::sub_match<__gnu_cxx::__normal_iterator<char const*, std::__cxx11::basic_string<char, std::char_traits<char>, std::allocator<char> > > > >, boost::regex_traits<char, boost::cpp_regex_traits<char> > >::unwind_extra_block(bool)
	_ZN5boost13re_detail_50012perl_matcherIN9__gnu_cxx17__normal_iteratorIPKcNSt7__cxx1112basic_stringIcSt11char_traitsIcESaIcEEEEESaINS_9sub_matchISC_EEENS_12regex_traitsIcNS_16cpp_regex_traitsIcEEEEE18unwind_extra_blockEb @ 574
;	boost::re_detail_500::perl_matcher<__gnu_cxx::__normal_iterator<char const*, std::__cxx11::basic_string<char, std::char_traits<char>, std::allocator<char> > >, std::allocator<boost::sub_match<__gnu_cxx::__normal_iterator<char const*, std::__cxx11::basic_string<char, std::char_traits<char>, std::allocator<char> > > > >, boost::regex_traits<char, boost::cpp_regex_traits<char> > >::match_word_boundary()
	_ZN5boost13re_detail_50012perl_matcherIN9__gnu_cxx17__normal_iteratorIPKcNSt7__cxx1112basic_stringIcSt11char_traitsIcESaIcEEEEESaINS_9sub_matchISC_EEENS_12regex_traitsIcNS_16cpp_regex_traitsIcEEEEE19match_word_boundaryEv @ 575
;	boost::re_detail_500::perl_matcher<__gnu_cxx::__normal_iterator<char const*, std::__cxx11::basic_string<char, std::char_traits<char>, std::allocator<char> > >, std::allocator<boost::sub_match<__gnu_cxx::__normal_iterator<char const*, std::__cxx11::basic_string<char, std::char_traits<char>, std::allocator<char> > > > >, boost::regex_traits<char, boost::cpp_regex_traits<char> > >::match_assert_backref()
	_ZN5boost13re_detail_50012perl_matcherIN9__gnu_cxx17__normal_iteratorIPKcNSt7__cxx1112basic_stringIcSt11char_traitsIcESaIcEEEEESaINS_9sub_matchISC_EEENS_12regex_traitsIcNS_16cpp_regex_traitsIcEEEEE20match_assert_backrefEv @ 576
;	boost::re_detail_500::perl_matcher<__gnu_cxx::__normal_iterator<char const*, std::__cxx11::basic_string<char, std::char_traits<char>, std::allocator<char> > >, std::allocator<boost::sub_match<__gnu_cxx::__normal_iterator<char const*, std::__cxx11::basic_string<char, std::char_traits<char>, std::allocator<char> > > > >, boost::regex_traits<char, boost::cpp_regex_traits<char> > >::unwind_recursion_pop(bool)
	_ZN5boost13re_detail_50012perl_matcherIN9__gnu_cxx17__normal_iteratorIPKcNSt7__cxx1112basic_stringIcSt11char_traitsIcESaIcEEEEESaINS_9sub_matchISC_EEENS_12regex_traitsIcNS_16cpp_regex_traitsIcEEEEE20unwind_recursion_popEb @ 577
;	boost::re_detail_500::perl_matcher<__gnu_cxx::__normal_iterator<char const*, std::__cxx11::basic_string<char, std::char_traits<char>, std::allocator<char> > >, std::allocator<boost::sub_match<__gnu_cxx::__normal_iterator<char const*, std::__cxx11::basic_string<char, std::char_traits<char>, std::allocator<char> > > > >, boost::regex_traits<char, boost::cpp_regex_traits<char> > >::match_dot_repeat_slow()
	_ZN5boost13re_detail_50012perl_matcherIN9__gnu_cxx17__normal_iteratorIPKcNSt7__cxx1112basic_stringIcSt11char_traitsIcESaIcEEEEESaINS_9sub_matchISC_EEENS_12regex_traitsIcNS_16cpp_regex_traitsIcEEEEE21match_dot_repeat_slowEv @ 578
;	boost::re_detail_500::perl_matcher<__gnu_cxx::__normal_iterator<char const*, std::__cxx11::basic_string<char, std::char_traits<char>, std::allocator<char> > >, std::allocator<boost::sub_match<__gnu_cxx::__normal_iterator<char const*, std::__cxx11::basic_string<char, std::char_traits<char>, std::allocator<char> > > > >, boost::regex_traits<char, boost::cpp_regex_traits<char> > >::match_long_set_repeat()
	_ZN5boost13re_detail_50012perl_matcherIN9__gnu_cxx17__normal_iteratorIPKcNSt7__cxx1112basic_stringIcSt11char_traitsIcESaIcEEEEESaINS_9sub_matchISC_EEENS_12regex_traitsIcNS_16cpp_regex_traitsIcEEEEE21match_long_set_repeatEv @ 579
;	boost::re_detail_500::perl_matcher<__gnu_cxx::__normal_iterator<char const*, std::__cxx11::basic_string<char, std::char_traits<char>, std::allocator<char> > >, std::allocator<boost::sub_match<__gnu_cxx::__normal_iterator<char const*, std::__cxx11::basic_string<char, std::char_traits<char>, std::allocator<char> > > > >, boost::regex_traits<char, boost::cpp_regex_traits<char> > >::match_soft_buffer_end()
	_ZN5boost13re_detail_50012perl_matcherIN9__gnu_cxx17__normal_iteratorIPKcNSt7__cxx1112basic_stringIcSt11char_traitsIcESaIcEEEEESaINS_9sub_matchISC_EEENS_12regex_traitsIcNS_16cpp_regex_traitsIcEEEEE21match_soft_buffer_endEv @ 580
;	boost::re_detail_500::perl_matcher<__gnu_cxx::__normal_iterator<char const*, std::__cxx11::basic_string<char, std::char_traits<char>, std::allocator<char> > >, std::allocator<boost::sub_match<__gnu_cxx::__normal_iterator<char const*, std::__cxx11::basic_string<char, std::char_traits<char>, std::allocator<char> > > > >, boost::regex_traits<char, boost::cpp_regex_traits<char> > >::match_restart_continue()
	_ZN5boost13re_detail_50012perl_matcherIN9__gnu_cxx17__normal_iteratorIPKcNSt7__cxx1112basic_stringIcSt11char_traitsIcESaIcEEEEESaINS_9sub_matchISC_EEENS_12regex_traitsIcNS_16cpp_regex_traitsIcEEEEE22match_restart_continueEv @ 581
;	boost::re_detail_500::perl_matcher<__gnu_cxx::__normal_iterator<char const*, std::__cxx11::basic_string<char, std::char_traits<char>, std::allocator<char> > >, std::allocator<boost::sub_match<__gnu_cxx::__normal_iterator<char const*, std::__cxx11::basic_string<char, std::char_traits<char>, std::allocator<char> > > > >, boost::regex_traits<char, boost::cpp_regex_traits<char> > >::unwind_fast_dot_repeat(bool)
	_ZN5boost13re_detail_50012perl_matcherIN9__gnu_cxx17__normal_iteratorIPKcNSt7__cxx1112basic_stringIcSt11char_traitsIcESaIcEEEEESaINS_9sub_matchISC_EEENS_12regex_traitsIcNS_16cpp_regex_traitsIcEEEEE22unwind_fast_dot_repeatEb @ 582
;	boost::re_detail_500::perl_matcher<__gnu_cxx::__normal_iterator<char const*, std::__cxx11::basic_string<char, std::char_traits<char>, std::allocator<char> > >, std::allocator<boost::sub_match<__gnu_cxx::__normal_iterator<char const*, std::__cxx11::basic_string<char, std::char_traits<char>, std::allocator<char> > > > >, boost::regex_traits<char, boost::cpp_regex_traits<char> > >::unwind_long_set_repeat(bool)
	_ZN5boost13re_detail_50012perl_matcherIN9__gnu_cxx17__normal_iteratorIPKcNSt7__cxx1112basic_stringIcSt11char_traitsIcESaIcEEEEESaINS_9sub_matchISC_EEENS_12regex_traitsIcNS_16cpp_regex_traitsIcEEEEE22unwind_long_set_repeatEb @ 583
;	boost::re_detail_500::perl_matcher<__gnu_cxx::__normal_iterator<char const*, std::__cxx11::basic_string<char, std::char_traits<char>, std::allocator<char> > >, std::allocator<boost::sub_match<__gnu_cxx::__normal_iterator<char const*, std::__cxx11::basic_string<char, std::char_traits<char>, std::allocator<char> > > > >, boost::regex_traits<char, boost::cpp_regex_traits<char> > >::unwind_slow_dot_repeat(bool)
	_ZN5boost13re_detail_50012perl_matcherIN9__gnu_cxx17__normal_iteratorIPKcNSt7__cxx1112basic_stringIcSt11char_traitsIcESaIcEEEEESaINS_9sub_matchISC_EEENS_12regex_traitsIcNS_16cpp_regex_traitsIcEEEEE22unwind_slow_dot_repeatEb @ 584
;	boost::re_detail_500::perl_matcher<__gnu_cxx::__normal_iterator<char const*, std::__cxx11::basic_string<char, std::char_traits<char>, std::allocator<char> > >, std::allocator<boost::sub_match<__gnu_cxx::__normal_iterator<char const*, std::__cxx11::basic_string<char, std::char_traits<char>, std::allocator<char> > > > >, boost::regex_traits<char, boost::cpp_regex_traits<char> > >::unwind_repeater_counter(bool)
	_ZN5boost13re_detail_50012perl_matcherIN9__gnu_cxx17__normal_iteratorIPKcNSt7__cxx1112basic_stringIcSt11char_traitsIcESaIcEEEEESaINS_9sub_matchISC_EEENS_12regex_traitsIcNS_16cpp_regex_traitsIcEEEEE23unwind_repeater_counterEb @ 585
;	boost::re_detail_500::perl_matcher<__gnu_cxx::__normal_iterator<char const*, std::__cxx11::basic_string<char, std::char_traits<char>, std::allocator<char> > >, std::allocator<boost::sub_match<__gnu_cxx::__normal_iterator<char const*, std::__cxx11::basic_string<char, std::char_traits<char>, std::allocator<char> > > > >, boost::regex_traits<char, boost::cpp_regex_traits<char> > >::unwind_short_set_repeat(bool)
	_ZN5boost13re_detail_50012perl_matcherIN9__gnu_cxx17__normal_iteratorIPKcNSt7__cxx1112basic_stringIcSt11char_traitsIcESaIcEEEEESaINS_9sub_matchISC_EEENS_12regex_traitsIcNS_16cpp_regex_traitsIcEEEEE23unwind_short_set_repeatEb @ 586
;	boost::re_detail_500::perl_matcher<__gnu_cxx::__normal_iterator<char const*, std::__cxx11::basic_string<char, std::char_traits<char>, std::allocator<char> > >, std::allocator<boost::sub_match<__gnu_cxx::__normal_iterator<char const*, std::__cxx11::basic_string<char, std::char_traits<char>, std::allocator<char> > > > >, boost::regex_traits<char, boost::cpp_regex_traits<char> > >::unwind_non_greedy_repeat(bool)
	_ZN5boost13re_detail_50012perl_matcherIN9__gnu_cxx17__normal_iteratorIPKcNSt7__cxx1112basic_stringIcSt11char_traitsIcESaIcEEEEESaINS_9sub_matchISC_EEENS_12regex_traitsIcNS_16cpp_regex_traitsIcEEEEE24unwind_non_greedy_repeatEb @ 587
;	boost::re_detail_500::perl_matcher<__gnu_cxx::__normal_iterator<char const*, std::__cxx11::basic_string<char, std::char_traits<char>, std::allocator<char> > >, std::allocator<boost::sub_match<__gnu_cxx::__normal_iterator<char const*, std::__cxx11::basic_string<char, std::char_traits<char>, std::allocator<char> > > > >, boost::regex_traits<char, boost::cpp_regex_traits<char> > >::unwind_recursion_stopper(bool)
	_ZN5boost13re_detail_50012perl_matcherIN9__gnu_cxx17__normal_iteratorIPKcNSt7__cxx1112basic_stringIcSt11char_traitsIcESaIcEEEEESaINS_9sub_matchISC_EEENS_12regex_traitsIcNS_16cpp_regex_traitsIcEEEEE24unwind_recursion_stopperEb @ 588
;	boost::re_detail_500::perl_matcher<__gnu_cxx::__normal_iterator<char const*, std::__cxx11::basic_string<char, std::char_traits<char>, std::allocator<char> > >, std::allocator<boost::sub_match<__gnu_cxx::__normal_iterator<char const*, std::__cxx11::basic_string<char, std::char_traits<char>, std::allocator<char> > > > >, boost::regex_traits<char, boost::cpp_regex_traits<char> > >::match_dot_repeat_dispatch()
	_ZN5boost13re_detail_50012perl_matcherIN9__gnu_cxx17__normal_iteratorIPKcNSt7__cxx1112basic_stringIcSt11char_traitsIcESaIcEEEEESaINS_9sub_matchISC_EEENS_12regex_traitsIcNS_16cpp_regex_traitsIcEEEEE25match_dot_repeat_dispatchEv @ 589
;	boost::re_detail_500::perl_matcher<__gnu_cxx::__normal_iterator<char const*, std::__cxx11::basic_string<char, std::char_traits<char>, std::allocator<char> > >, std::allocator<boost::sub_match<__gnu_cxx::__normal_iterator<char const*, std::__cxx11::basic_string<char, std::char_traits<char>, std::allocator<char> > > > >, boost::regex_traits<char, boost::cpp_regex_traits<char> > >::unwind_greedy_single_repeat(bool)
	_ZN5boost13re_detail_50012perl_matcherIN9__gnu_cxx17__normal_iteratorIPKcNSt7__cxx1112basic_stringIcSt11char_traitsIcESaIcEEEEESaINS_9sub_matchISC_EEENS_12regex_traitsIcNS_16cpp_regex_traitsIcEEEEE27unwind_greedy_single_repeatEb @ 590
;	boost::re_detail_500::perl_matcher<__gnu_cxx::__normal_iterator<char const*, std::__cxx11::basic_string<char, std::char_traits<char>, std::allocator<char> > >, std::allocator<boost::sub_match<__gnu_cxx::__normal_iterator<char const*, std::__cxx11::basic_string<char, std::char_traits<char>, std::allocator<char> > > > >, boost::regex_traits<char, boost::cpp_regex_traits<char> > >::unwind(bool)
	_ZN5boost13re_detail_50012perl_matcherIN9__gnu_cxx17__normal_iteratorIPKcNSt7__cxx1112basic_stringIcSt11char_traitsIcESaIcEEEEESaINS_9sub_matchISC_EEENS_12regex_traitsIcNS_16cpp_regex_traitsIcEEEEE6unwindEb @ 591
;	boost::re_detail_500::perl_matcher<__gnu_cxx::__normal_iterator<char const*, std::__cxx11::basic_string<char, std::char_traits<char>, std::allocator<char> > >, std::allocator<boost::sub_match<__gnu_cxx::__normal_iterator<char const*, std::__cxx11::basic_string<char, std::char_traits<char>, std::allocator<char> > > > >, boost::regex_traits<char, boost::cpp_regex_traits<char> > >::match_alt()
	_ZN5boost13re_detail_50012perl_matcherIN9__gnu_cxx17__normal_iteratorIPKcNSt7__cxx1112basic_stringIcSt11char_traitsIcESaIcEEEEESaINS_9sub_matchISC_EEENS_12regex_traitsIcNS_16cpp_regex_traitsIcEEEEE9match_altEv @ 592
;	boost::re_detail_500::perl_matcher<__gnu_cxx::__normal_iterator<char const*, std::__cxx11::basic_string<char, std::char_traits<char>, std::allocator<char> > >, std::allocator<boost::sub_match<__gnu_cxx::__normal_iterator<char const*, std::__cxx11::basic_string<char, std::char_traits<char>, std::allocator<char> > > > >, boost::regex_traits<char, boost::cpp_regex_traits<char> > >::match_imp()
	_ZN5boost13re_detail_50012perl_matcherIN9__gnu_cxx17__normal_iteratorIPKcNSt7__cxx1112basic_stringIcSt11char_traitsIcESaIcEEEEESaINS_9sub_matchISC_EEENS_12regex_traitsIcNS_16cpp_regex_traitsIcEEEEE9match_impEv @ 593
;	boost::re_detail_500::perl_matcher<__gnu_cxx::__normal_iterator<char const*, std::__cxx11::basic_string<char, std::char_traits<char>, std::allocator<char> > >, std::allocator<boost::sub_match<__gnu_cxx::__normal_iterator<char const*, std::__cxx11::basic_string<char, std::char_traits<char>, std::allocator<char> > > > >, boost::regex_traits<char, boost::cpp_regex_traits<char> > >::match_rep()
	_ZN5boost13re_detail_50012perl_matcherIN9__gnu_cxx17__normal_iteratorIPKcNSt7__cxx1112basic_stringIcSt11char_traitsIcESaIcEEEEESaINS_9sub_matchISC_EEENS_12regex_traitsIcNS_16cpp_regex_traitsIcEEEEE9match_repEv @ 594
;	boost::re_detail_500::perl_matcher<__gnu_cxx::__normal_iterator<char const*, std::__cxx11::basic_string<char, std::char_traits<char>, std::allocator<char> > >, std::allocator<boost::sub_match<__gnu_cxx::__normal_iterator<char const*, std::__cxx11::basic_string<char, std::char_traits<char>, std::allocator<char> > > > >, boost::regex_traits<char, boost::cpp_regex_traits<char> > >::match_set()
	_ZN5boost13re_detail_50012perl_matcherIN9__gnu_cxx17__normal_iteratorIPKcNSt7__cxx1112basic_stringIcSt11char_traitsIcESaIcEEEEESaINS_9sub_matchISC_EEENS_12regex_traitsIcNS_16cpp_regex_traitsIcEEEEE9match_setEv @ 595
;	boost::re_detail_500::perl_matcher<__gnu_cxx::__normal_iterator<char const*, std::__cxx11::basic_string<char, std::char_traits<char>, std::allocator<char> > >, std::allocator<boost::sub_match<__gnu_cxx::__normal_iterator<char const*, std::__cxx11::basic_string<char, std::char_traits<char>, std::allocator<char> > > > >, boost::regex_traits<char, boost::cpp_regex_traits<char> > >::~perl_matcher()
	_ZN5boost13re_detail_50012perl_matcherIN9__gnu_cxx17__normal_iteratorIPKcNSt7__cxx1112basic_stringIcSt11char_traitsIcESaIcEEEEESaINS_9sub_matchISC_EEENS_12regex_traitsIcNS_16cpp_regex_traitsIcEEEEED1Ev @ 596
;	boost::re_detail_500::basic_char_set<char, boost::regex_traits<char, boost::cpp_regex_traits<char> > >::~basic_char_set()
	_ZN5boost13re_detail_50014basic_char_setIcNS_12regex_traitsIcNS_16cpp_regex_traitsIcEEEEED1Ev @ 597
;	boost::re_detail_500::save_state_init::~save_state_init()
	_ZN5boost13re_detail_50015save_state_initD1Ev @ 598
;	unsigned int boost::re_detail_500::find_sort_syntax<boost::re_detail_500::cpp_regex_traits_implementation<char>, char>(boost::re_detail_500::cpp_regex_traits_implementation<char> const*, char*)
	_ZN5boost13re_detail_50016find_sort_syntaxINS0_31cpp_regex_traits_implementationIcEEcEEjPKT_PT0_ @ 599
;	__gnu_cxx::__normal_iterator<char const*, std::__cxx11::basic_string<char, std::char_traits<char>, std::allocator<char> > > boost::re_detail_500::re_is_set_member<__gnu_cxx::__normal_iterator<char const*, std::__cxx11::basic_string<char, std::char_traits<char>, std::allocator<char> > >, char, boost::regex_traits<char, boost::cpp_regex_traits<char> >, unsigned int>(__gnu_cxx::__normal_iterator<char const*, std::__cxx11::basic_string<char, std::char_traits<char>, std::allocator<char> > >, __gnu_cxx::__normal_iterator<char const*, std::__cxx11::basic_string<char, std::char_traits<char>, std::allocator<char> > >, boost::re_detail_500::re_set_long<unsigned int> const*, boost::re_detail_500::regex_data<char, boost::regex_traits<char, boost::cpp_regex_traits<char> > > const&, bool)
	_ZN5boost13re_detail_50016re_is_set_memberIN9__gnu_cxx17__normal_iteratorIPKcNSt7__cxx1112basic_stringIcSt11char_traitsIcESaIcEEEEEcNS_12regex_traitsIcNS_16cpp_regex_traitsIcEEEEjEET_SH_SH_PKNS0_11re_set_longIT2_EERKNS0_10regex_dataIT0_T1_EEb @ 600
;	char* boost::re_detail_500::re_is_set_member<char*, char, boost::regex_traits<char, boost::cpp_regex_traits<char> >, unsigned int>(char*, char*, boost::re_detail_500::re_set_long<unsigned int> const*, boost::re_detail_500::regex_data<char, boost::regex_traits<char, boost::cpp_regex_traits<char> > > const&, bool)
	_ZN5boost13re_detail_50016re_is_set_memberIPccNS_12regex_traitsIcNS_16cpp_regex_traitsIcEEEEjEET_S7_S7_PKNS0_11re_set_longIT2_EERKNS0_10regex_dataIT0_T1_EEb @ 601
;	boost::re_detail_500::basic_regex_parser<char, boost::regex_traits<char, boost::cpp_regex_traits<char> > >::match_verb(char const*)
	_ZN5boost13re_detail_50018basic_regex_parserIcNS_12regex_traitsIcNS_16cpp_regex_traitsIcEEEEE10match_verbEPKc @ 602
;	boost::re_detail_500::basic_regex_parser<char, boost::regex_traits<char, boost::cpp_regex_traits<char> > >::parse_basic()
	_ZN5boost13re_detail_50018basic_regex_parserIcNS_12regex_traitsIcNS_16cpp_regex_traitsIcEEEEE11parse_basicEv @ 603
;	boost::re_detail_500::basic_regex_parser<char, boost::regex_traits<char, boost::cpp_regex_traits<char> > >::unwind_alts(long long)
	_ZN5boost13re_detail_50018basic_regex_parserIcNS_12regex_traitsIcNS_16cpp_regex_traitsIcEEEEE11unwind_altsEx @ 604
;	boost::re_detail_500::basic_regex_parser<char, boost::regex_traits<char, boost::cpp_regex_traits<char> > >::parse_repeat(unsigned long long, unsigned long long)
	_ZN5boost13re_detail_50018basic_regex_parserIcNS_12regex_traitsIcNS_16cpp_regex_traitsIcEEEEE12parse_repeatEyy @ 605
;	boost::re_detail_500::basic_regex_parser<char, boost::regex_traits<char, boost::cpp_regex_traits<char> > >::parse_backref()
	_ZN5boost13re_detail_50018basic_regex_parserIcNS_12regex_traitsIcNS_16cpp_regex_traitsIcEEEEE13parse_backrefEv @ 606
;	boost::re_detail_500::basic_regex_parser<char, boost::regex_traits<char, boost::cpp_regex_traits<char> > >::parse_literal()
	_ZN5boost13re_detail_50018basic_regex_parserIcNS_12regex_traitsIcNS_16cpp_regex_traitsIcEEEEE13parse_literalEv @ 607
;	boost::re_detail_500::basic_regex_parser<char, boost::regex_traits<char, boost::cpp_regex_traits<char> > >::parse_options()
	_ZN5boost13re_detail_50018basic_regex_parserIcNS_12regex_traitsIcNS_16cpp_regex_traitsIcEEEEE13parse_optionsEv @ 608
;	boost::re_detail_500::basic_regex_parser<char, boost::regex_traits<char, boost::cpp_regex_traits<char> > >::add_emacs_code(bool)
	_ZN5boost13re_detail_50018basic_regex_parserIcNS_12regex_traitsIcNS_16cpp_regex_traitsIcEEEEE14add_emacs_codeEb @ 609
;	boost::re_detail_500::basic_regex_parser<char, boost::regex_traits<char, boost::cpp_regex_traits<char> > >::parse_extended()
	_ZN5boost13re_detail_50018basic_regex_parserIcNS_12regex_traitsIcNS_16cpp_regex_traitsIcEEEEE14parse_extendedEv @ 610
;	boost::re_detail_500::basic_regex_parser<char, boost::regex_traits<char, boost::cpp_regex_traits<char> > >::parse_inner_set(boost::re_detail_500::basic_char_set<char, boost::regex_traits<char, boost::cpp_regex_traits<char> > >&)
	_ZN5boost13re_detail_50018basic_regex_parserIcNS_12regex_traitsIcNS_16cpp_regex_traitsIcEEEEE15parse_inner_setERNS0_14basic_char_setIcS5_EE @ 611
;	boost::re_detail_500::basic_regex_parser<char, boost::regex_traits<char, boost::cpp_regex_traits<char> > >::parse_perl_verb()
	_ZN5boost13re_detail_50018basic_regex_parserIcNS_12regex_traitsIcNS_16cpp_regex_traitsIcEEEEE15parse_perl_verbEv @ 612
;	boost::re_detail_500::basic_regex_parser<char, boost::regex_traits<char, boost::cpp_regex_traits<char> > >::parse_open_paren()
	_ZN5boost13re_detail_50018basic_regex_parserIcNS_12regex_traitsIcNS_16cpp_regex_traitsIcEEEEE16parse_open_parenEv @ 613
;	boost::re_detail_500::basic_regex_parser<char, boost::regex_traits<char, boost::cpp_regex_traits<char> > >::parse_set_literal(boost::re_detail_500::basic_char_set<char, boost::regex_traits<char, boost::cpp_regex_traits<char> > >&)
	_ZN5boost13re_detail_50018basic_regex_parserIcNS_12regex_traitsIcNS_16cpp_regex_traitsIcEEEEE17parse_set_literalERNS0_14basic_char_setIcS5_EE @ 614
;	boost::re_detail_500::basic_regex_parser<char, boost::regex_traits<char, boost::cpp_regex_traits<char> > >::parse_basic_escape()
	_ZN5boost13re_detail_50018basic_regex_parserIcNS_12regex_traitsIcNS_16cpp_regex_traitsIcEEEEE18parse_basic_escapeEv @ 615
;	boost::re_detail_500::basic_regex_parser<char, boost::regex_traits<char, boost::cpp_regex_traits<char> > >::parse_repeat_range(bool)
	_ZN5boost13re_detail_50018basic_regex_parserIcNS_12regex_traitsIcNS_16cpp_regex_traitsIcEEEEE18parse_repeat_rangeEb @ 616
;	boost::re_detail_500::basic_regex_parser<char, boost::regex_traits<char, boost::cpp_regex_traits<char> > >::unescape_character()
	_ZN5boost13re_detail_50018basic_regex_parserIcNS_12regex_traitsIcNS_16cpp_regex_traitsIcEEEEE18unescape_characterEv @ 617
;	boost::re_detail_500::basic_regex_parser<char, boost::regex_traits<char, boost::cpp_regex_traits<char> > >::get_next_set_literal(boost::re_detail_500::basic_char_set<char, boost::regex_traits<char, boost::cpp_regex_traits<char> > >&)
	_ZN5boost13re_detail_50018basic_regex_parserIcNS_12regex_traitsIcNS_16cpp_regex_traitsIcEEEEE20get_next_set_literalERNS0_14basic_char_setIcS5_EE @ 618
;	boost::re_detail_500::basic_regex_parser<char, boost::regex_traits<char, boost::cpp_regex_traits<char> > >::parse_perl_extension()
	_ZN5boost13re_detail_50018basic_regex_parserIcNS_12regex_traitsIcNS_16cpp_regex_traitsIcEEEEE20parse_perl_extensionEv @ 619
;	boost::re_detail_500::basic_regex_parser<char, boost::regex_traits<char, boost::cpp_regex_traits<char> > >::parse_extended_escape()
	_ZN5boost13re_detail_50018basic_regex_parserIcNS_12regex_traitsIcNS_16cpp_regex_traitsIcEEEEE21parse_extended_escapeEv @ 620
;	boost::re_detail_500::basic_regex_parser<char, boost::regex_traits<char, boost::cpp_regex_traits<char> > >::fail(boost::regex_constants::error_type, long long)
	_ZN5boost13re_detail_50018basic_regex_parserIcNS_12regex_traitsIcNS_16cpp_regex_traitsIcEEEEE4failENS_15regex_constants10error_typeEx @ 621
;	boost::re_detail_500::basic_regex_parser<char, boost::regex_traits<char, boost::cpp_regex_traits<char> > >::fail(boost::regex_constants::error_type, long long, std::__cxx11::basic_string<char, std::char_traits<char>, std::allocator<char> >, long long)
	_ZN5boost13re_detail_50018basic_regex_parserIcNS_12regex_traitsIcNS_16cpp_regex_traitsIcEEEEE4failENS_15regex_constants10error_typeExNSt7__cxx1112basic_stringIcSt11char_traitsIcESaIcEEEx @ 622
;	boost::re_detail_500::basic_regex_parser<char, boost::regex_traits<char, boost::cpp_regex_traits<char> > >::parse_QE()
	_ZN5boost13re_detail_50018basic_regex_parserIcNS_12regex_traitsIcNS_16cpp_regex_traitsIcEEEEE8parse_QEEv @ 623
;	boost::re_detail_500::basic_regex_parser<char, boost::regex_traits<char, boost::cpp_regex_traits<char> > >::parse_all()
	_ZN5boost13re_detail_50018basic_regex_parserIcNS_12regex_traitsIcNS_16cpp_regex_traitsIcEEEEE9parse_allEv @ 624
;	boost::re_detail_500::basic_regex_parser<char, boost::regex_traits<char, boost::cpp_regex_traits<char> > >::parse_alt()
	_ZN5boost13re_detail_50018basic_regex_parserIcNS_12regex_traitsIcNS_16cpp_regex_traitsIcEEEEE9parse_altEv @ 625
;	boost::re_detail_500::basic_regex_parser<char, boost::regex_traits<char, boost::cpp_regex_traits<char> > >::parse_set()
	_ZN5boost13re_detail_50018basic_regex_parserIcNS_12regex_traitsIcNS_16cpp_regex_traitsIcEEEEE9parse_setEv @ 626
;	boost::re_detail_500::basic_regex_creator<char, boost::regex_traits<char, boost::cpp_regex_traits<char> > >::append_state(boost::re_detail_500::syntax_element_type, unsigned long long)
	_ZN5boost13re_detail_50019basic_regex_creatorIcNS_12regex_traitsIcNS_16cpp_regex_traitsIcEEEEE12append_stateENS0_19syntax_element_typeEy @ 627
;	boost::re_detail_500::basic_regex_creator<char, boost::regex_traits<char, boost::cpp_regex_traits<char> > >::insert_state(long long, boost::re_detail_500::syntax_element_type, unsigned long long)
	_ZN5boost13re_detail_50019basic_regex_creatorIcNS_12regex_traitsIcNS_16cpp_regex_traitsIcEEEEE12insert_stateExNS0_19syntax_element_typeEy @ 628
;	boost::re_detail_500::basic_regex_creator<char, boost::regex_traits<char, boost::cpp_regex_traits<char> > >::fixup_pointers(boost::re_detail_500::re_syntax_base*)
	_ZN5boost13re_detail_50019basic_regex_creatorIcNS_12regex_traitsIcNS_16cpp_regex_traitsIcEEEEE14fixup_pointersEPNS0_14re_syntax_baseE @ 629
;	boost::re_detail_500::basic_regex_creator<char, boost::regex_traits<char, boost::cpp_regex_traits<char> > >::create_startmap(boost::re_detail_500::re_syntax_base*, unsigned char*, unsigned int*, unsigned char)
	_ZN5boost13re_detail_50019basic_regex_creatorIcNS_12regex_traitsIcNS_16cpp_regex_traitsIcEEEEE15create_startmapEPNS0_14re_syntax_baseEPhPjh @ 630
;	boost::re_detail_500::basic_regex_creator<char, boost::regex_traits<char, boost::cpp_regex_traits<char> > >::create_startmaps(boost::re_detail_500::re_syntax_base*)
	_ZN5boost13re_detail_50019basic_regex_creatorIcNS_12regex_traitsIcNS_16cpp_regex_traitsIcEEEEE16create_startmapsEPNS0_14re_syntax_baseE @ 631
;	boost::re_detail_500::basic_regex_creator<char, boost::regex_traits<char, boost::cpp_regex_traits<char> > >::fixup_recursions(boost::re_detail_500::re_syntax_base*)
	_ZN5boost13re_detail_50019basic_regex_creatorIcNS_12regex_traitsIcNS_16cpp_regex_traitsIcEEEEE16fixup_recursionsEPNS0_14re_syntax_baseE @ 632
;	boost::re_detail_500::basic_regex_creator<char, boost::regex_traits<char, boost::cpp_regex_traits<char> > >::probe_leading_repeat(boost::re_detail_500::re_syntax_base*)
	_ZN5boost13re_detail_50019basic_regex_creatorIcNS_12regex_traitsIcNS_16cpp_regex_traitsIcEEEEE20probe_leading_repeatEPNS0_14re_syntax_baseE @ 633
;	boost::re_detail_500::basic_regex_creator<char, boost::regex_traits<char, boost::cpp_regex_traits<char> > >::finalize(char const*, char const*)
	_ZN5boost13re_detail_50019basic_regex_creatorIcNS_12regex_traitsIcNS_16cpp_regex_traitsIcEEEEE8finalizeEPKcS8_ @ 634
;	int boost::re_detail_500::get_default_class_id<char>(char const*, char const*)
	_ZN5boost13re_detail_50020get_default_class_idIcEEiPKT_S4_ @ 635
;	boost::re_detail_500::cpp_regex_traits_char_layer<char>::init()
	_ZN5boost13re_detail_50027cpp_regex_traits_char_layerIcE4initEv @ 636
;	boost::re_detail_500::cpp_regex_traits_implementation<char>::init()
	_ZN5boost13re_detail_50031cpp_regex_traits_implementationIcE4initEv @ 637
;	boost::re_detail_500::cpp_regex_traits_implementation<char>::~cpp_regex_traits_implementation()
	_ZN5boost13re_detail_50031cpp_regex_traits_implementationIcED1Ev @ 638
;	void boost::throw_exception<boost::regex_error>(boost::regex_error const&)
	_ZN5boost15throw_exceptionINS_11regex_errorEEEvRKT_ @ 639
;	void boost::throw_exception<boost::bad_function_call>(boost::bad_function_call const&)
	_ZN5boost15throw_exceptionINS_17bad_function_callEEEvRKT_ @ 640
;	void boost::throw_exception<boost::math::rounding_error>(boost::math::rounding_error const&)
	_ZN5boost15throw_exceptionINS_4math14rounding_errorEEEvRKT_ @ 641
;	void boost::throw_exception<std::logic_error>(std::logic_error const&)
	_ZN5boost15throw_exceptionISt11logic_errorEEvRKT_ @ 642
;	void boost::throw_exception<std::runtime_error>(std::runtime_error const&)
	_ZN5boost15throw_exceptionISt13runtime_errorEEvRKT_ @ 643
;	void boost::throw_exception<std::overflow_error>(std::overflow_error const&)
	_ZN5boost15throw_exceptionISt14overflow_errorEEvRKT_ @ 644
;	boost::cpp_regex_traits<char>::get_catalog_name[abi:cxx11]()
	_ZN5boost16cpp_regex_traitsIcE16get_catalog_nameB5cxx11Ev @ 645
;	boost::exception_detail::copy_boost_exception(boost::exception*, boost::exception const*)
	_ZN5boost16exception_detail20copy_boost_exceptionEPNS_9exceptionEPKS1_ @ 646
;	boost::bad_function_call::~bad_function_call()
	_ZN5boost17bad_function_callD0Ev @ 647
;	boost::bad_function_call::~bad_function_call()
	_ZN5boost17bad_function_callD1Ev @ 648
;	boost::math::rounding_error::~rounding_error()
	_ZN5boost4math14rounding_errorD0Ev @ 649
;	boost::math::rounding_error::~rounding_error()
	_ZN5boost4math14rounding_errorD1Ev @ 650
;	boost::math::evaluation_error::~evaluation_error()
	_ZN5boost4math16evaluation_errorD0Ev @ 651
;	boost::math::evaluation_error::~evaluation_error()
	_ZN5boost4math16evaluation_errorD1Ev @ 652
;	boost::math::unchecked_factorial_data<double, true>::factorials
	_ZN5boost4math24unchecked_factorial_dataIdLb1EE10factorialsE @ 653 DATA
;	boost::math::unchecked_factorial_data<long double, true>::factorials
	_ZN5boost4math24unchecked_factorial_dataIeLb1EE10factorialsE @ 654 DATA
;	boost::math::detail::erf_inv_initializer<double, boost::math::policies::policy<boost::math::policies::pole_error<(boost::math::policies::error_policy_type)1>, boost::math::policies::overflow_error<(boost::math::policies::error_policy_type)1>, boost::math::policies::promote_float<false>, boost::math::policies::promote_double<false>, boost::math::policies::default_policy, boost::math::policies::default_policy, boost::math::policies::default_policy, boost::math::policies::default_policy, boost::math::policies::default_policy, boost::math::policies::default_policy, boost::math::policies::default_policy, boost::math::policies::default_policy, boost::math::policies::default_policy> >::init::do_init()
	_ZN5boost4math6detail19erf_inv_initializerIdNS0_8policies6policyINS3_10pole_errorILNS3_17error_policy_typeE1EEENS3_14overflow_errorILS6_1EEENS3_13promote_floatILb0EEENS3_14promote_doubleILb0EEENS3_14default_policyESE_SE_SE_SE_SE_SE_SE_SE_EEE4init7do_initEv @ 655
;	boost::math::detail::erf_inv_initializer<long double, boost::math::policies::policy<boost::math::policies::promote_float<false>, boost::math::policies::promote_double<false>, boost::math::policies::default_policy, boost::math::policies::default_policy, boost::math::policies::default_policy, boost::math::policies::default_policy, boost::math::policies::default_policy, boost::math::policies::default_policy, boost::math::policies::default_policy, boost::math::policies::default_policy, boost::math::policies::default_policy, boost::math::policies::default_policy, boost::math::policies::default_policy> >::init::do_init()
	_ZN5boost4math6detail19erf_inv_initializerIeNS0_8policies6policyINS3_13promote_floatILb0EEENS3_14promote_doubleILb0EEENS3_14default_policyES9_S9_S9_S9_S9_S9_S9_S9_S9_S9_EEE4init7do_initEv @ 656
;	long double boost::math::detail::bessel_j0<long double>(long double)
	_ZN5boost4math6detail9bessel_j0IeEET_S3_ @ 657
;	long double boost::math::detail::bessel_j1<long double>(long double)
	_ZN5boost4math6detail9bessel_j1IeEET_S3_ @ 658
;	std::__cxx11::basic_string<char, std::char_traits<char>, std::allocator<char> > boost::math::policies::detail::prec_format<double>(double const&)
	_ZN5boost4math8policies6detail11prec_formatIdEENSt7__cxx1112basic_stringIcSt11char_traitsIcESaIcEEERKT_ @ 659
;	std::__cxx11::basic_string<char, std::char_traits<char>, std::allocator<char> > boost::math::policies::detail::prec_format<long double>(long double const&)
	_ZN5boost4math8policies6detail11prec_formatIeEENSt7__cxx1112basic_stringIcSt11char_traitsIcESaIcEEERKT_ @ 660
;	void boost::math::policies::detail::raise_error<boost::math::rounding_error, double>(char const*, char const*, double const&)
	_ZN5boost4math8policies6detail11raise_errorINS0_14rounding_errorEdEEvPKcS6_RKT0_ @ 661
;	void boost::math::policies::detail::raise_error<boost::math::rounding_error, long double>(char const*, char const*, long double const&)
	_ZN5boost4math8policies6detail11raise_errorINS0_14rounding_errorEeEEvPKcS6_RKT0_ @ 662
;	void boost::math::policies::detail::raise_error<boost::math::evaluation_error, long double>(char const*, char const*, long double const&)
	_ZN5boost4math8policies6detail11raise_errorINS0_16evaluation_errorEeEEvPKcS6_RKT0_ @ 663
;	void boost::math::policies::detail::raise_error<std::domain_error, long double>(char const*, char const*, long double const&)
	_ZN5boost4math8policies6detail11raise_errorISt12domain_erroreEEvPKcS6_RKT0_ @ 664
;	void boost::math::policies::detail::raise_error<std::overflow_error, long double>(char const*, char const*)
	_ZN5boost4math8policies6detail11raise_errorISt14overflow_erroreEEvPKcS6_ @ 665
;	boost::math::policies::detail::replace_all_in_string(std::__cxx11::basic_string<char, std::char_traits<char>, std::allocator<char> >&, char const*, char const*)
	_ZN5boost4math8policies6detail21replace_all_in_stringERNSt7__cxx1112basic_stringIcSt11char_traitsIcESaIcEEEPKcSB_ @ 666
;	boost::detail::function::functor_manager<boost::algorithm::detail::token_finderF<boost::algorithm::detail::is_any_ofF<char> > >::manage(boost::detail::function::function_buffer const&, boost::detail::function::function_buffer&, boost::detail::function::functor_manager_operation_type)
	_ZN5boost6detail8function15functor_managerINS_9algorithm6detail13token_finderFINS4_10is_any_ofFIcEEEEE6manageERKNS1_15function_bufferERSA_NS1_30functor_manager_operation_typeE @ 667
;	boost::detail::function::function_obj_invoker2<boost::algorithm::detail::token_finderF<boost::algorithm::detail::is_any_ofF<char> >, boost::iterator_range<__gnu_cxx::__normal_iterator<char const*, std::__cxx11::basic_string<char, std::char_traits<char>, std::allocator<char> > > >, __gnu_cxx::__normal_iterator<char const*, std::__cxx11::basic_string<char, std::char_traits<char>, std::allocator<char> > >, __gnu_cxx::__normal_iterator<char const*, std::__cxx11::basic_string<char, std::char_traits<char>, std::allocator<char> > > >::invoke(boost::detail::function::function_buffer&, __gnu_cxx::__normal_iterator<char const*, std::__cxx11::basic_string<char, std::char_traits<char>, std::allocator<char> > >, __gnu_cxx::__normal_iterator<char const*, std::__cxx11::basic_string<char, std::char_traits<char>, std::allocator<char> > >)
	_ZN5boost6detail8function21function_obj_invoker2INS_9algorithm6detail13token_finderFINS4_10is_any_ofFIcEEEENS_14iterator_rangeIN9__gnu_cxx17__normal_iteratorIPKcNSt7__cxx1112basic_stringIcSt11char_traitsIcESaIcEEEEEEESK_SK_E6invokeERNS1_15function_bufferESK_SK_ @ 668
;	boost::range_value<std::vector<std::__cxx11::basic_string<char, std::char_traits<char>, std::allocator<char> >, std::allocator<std::__cxx11::basic_string<char, std::char_traits<char>, std::allocator<char> > > > >::type boost::algorithm::join<std::vector<std::__cxx11::basic_string<char, std::char_traits<char>, std::allocator<char> >, std::allocator<std::__cxx11::basic_string<char, std::char_traits<char>, std::allocator<char> > > >, char [2]>(std::vector<std::__cxx11::basic_string<char, std::char_traits<char>, std::allocator<char> >, std::allocator<std::__cxx11::basic_string<char, std::char_traits<char>, std::allocator<char> > > > const&, char const (&) [2])
	_ZN5boost9algorithm4joinISt6vectorINSt7__cxx1112basic_stringIcSt11char_traitsIcESaIcEEESaIS8_EEA2_cEENS_11range_valueIT_E4typeERKSD_RKT0_ @ 669
;	bs_model::bs_model(char const*, unsigned int)
	_ZN8bs_modelC1EPKcj @ 670
;	bs_model::bs_model(char const*, unsigned int)
	_ZN8bs_modelC2EPKcj @ 671
;	bs_model::~bs_model()
	_ZN8bs_modelD1Ev @ 672
;	bs_model::~bs_model()
	_ZN8bs_modelD2Ev @ 673
;	std::__cxx11::basic_string<char, std::char_traits<char>, std::allocator<char> > __gnu_cxx::__to_xstring<std::__cxx11::basic_string<char, std::char_traits<char>, std::allocator<char> >, char>(int (*)(char*, unsigned long long, char const*, char*), unsigned long long, char const*, ...)
	_ZN9__gnu_cxx12__to_xstringINSt7__cxx1112basic_stringIcSt11char_traitsIcESaIcEEEcEET_PFiPT0_yPKS8_PcEySB_z @ 674
;	__gnu_cxx::__scoped_lock::~__scoped_lock()
	_ZN9__gnu_cxx13__scoped_lockD1Ev @ 675
;	__gnu_cxx::stdio_filebuf<char, std::char_traits<char> >::fd()
	_ZN9__gnu_cxx13stdio_filebufIcSt11char_traitsIcEE2fdEv @ 676
;	__gnu_cxx::stdio_filebuf<char, std::char_traits<char> >::file()
	_ZN9__gnu_cxx13stdio_filebufIcSt11char_traitsIcEE4fileEv @ 677
;	__gnu_cxx::stdio_filebuf<char, std::char_traits<char> >::swap(__gnu_cxx::stdio_filebuf<char, std::char_traits<char> >&)
	_ZN9__gnu_cxx13stdio_filebufIcSt11char_traitsIcEE4swapERS3_ @ 678
;	__gnu_cxx::stdio_filebuf<char, std::char_traits<char> >::stdio_filebuf(_iobuf*, std::_Ios_Openmode, unsigned long long)
	_ZN9__gnu_cxx13stdio_filebufIcSt11char_traitsIcEEC1EP6_iobufSt13_Ios_Openmodey @ 679
;	__gnu_cxx::stdio_filebuf<char, std::char_traits<char> >::stdio_filebuf(int, std::_Ios_Openmode, unsigned long long)
	_ZN9__gnu_cxx13stdio_filebufIcSt11char_traitsIcEEC1EiSt13_Ios_Openmodey @ 680
;	__gnu_cxx::stdio_filebuf<char, std::char_traits<char> >::stdio_filebuf()
	_ZN9__gnu_cxx13stdio_filebufIcSt11char_traitsIcEEC1Ev @ 681
;	__gnu_cxx::stdio_filebuf<char, std::char_traits<char> >::stdio_filebuf(_iobuf*, std::_Ios_Openmode, unsigned long long)
	_ZN9__gnu_cxx13stdio_filebufIcSt11char_traitsIcEEC2EP6_iobufSt13_Ios_Openmodey @ 682
;	__gnu_cxx::stdio_filebuf<char, std::char_traits<char> >::stdio_filebuf(int, std::_Ios_Openmode, unsigned long long)
	_ZN9__gnu_cxx13stdio_filebufIcSt11char_traitsIcEEC2EiSt13_Ios_Openmodey @ 683
;	__gnu_cxx::stdio_filebuf<char, std::char_traits<char> >::stdio_filebuf()
	_ZN9__gnu_cxx13stdio_filebufIcSt11char_traitsIcEEC2Ev @ 684
;	__gnu_cxx::stdio_filebuf<char, std::char_traits<char> >::~stdio_filebuf()
	_ZN9__gnu_cxx13stdio_filebufIcSt11char_traitsIcEED0Ev @ 685
;	__gnu_cxx::stdio_filebuf<char, std::char_traits<char> >::~stdio_filebuf()
	_ZN9__gnu_cxx13stdio_filebufIcSt11char_traitsIcEED1Ev @ 686
;	__gnu_cxx::stdio_filebuf<char, std::char_traits<char> >::~stdio_filebuf()
	_ZN9__gnu_cxx13stdio_filebufIcSt11char_traitsIcEED2Ev @ 687
;	__gnu_cxx::stdio_filebuf<wchar_t, std::char_traits<wchar_t> >::fd()
	_ZN9__gnu_cxx13stdio_filebufIwSt11char_traitsIwEE2fdEv @ 688
;	__gnu_cxx::stdio_filebuf<wchar_t, std::char_traits<wchar_t> >::file()
	_ZN9__gnu_cxx13stdio_filebufIwSt11char_traitsIwEE4fileEv @ 689
;	__gnu_cxx::stdio_filebuf<wchar_t, std::char_traits<wchar_t> >::swap(__gnu_cxx::stdio_filebuf<wchar_t, std::char_traits<wchar_t> >&)
	_ZN9__gnu_cxx13stdio_filebufIwSt11char_traitsIwEE4swapERS3_ @ 690
;	__gnu_cxx::stdio_filebuf<wchar_t, std::char_traits<wchar_t> >::stdio_filebuf(_iobuf*, std::_Ios_Openmode, unsigned long long)
	_ZN9__gnu_cxx13stdio_filebufIwSt11char_traitsIwEEC1EP6_iobufSt13_Ios_Openmodey @ 691
;	__gnu_cxx::stdio_filebuf<wchar_t, std::char_traits<wchar_t> >::stdio_filebuf(int, std::_Ios_Openmode, unsigned long long)
	_ZN9__gnu_cxx13stdio_filebufIwSt11char_traitsIwEEC1EiSt13_Ios_Openmodey @ 692
;	__gnu_cxx::stdio_filebuf<wchar_t, std::char_traits<wchar_t> >::stdio_filebuf()
	_ZN9__gnu_cxx13stdio_filebufIwSt11char_traitsIwEEC1Ev @ 693
;	__gnu_cxx::stdio_filebuf<wchar_t, std::char_traits<wchar_t> >::stdio_filebuf(_iobuf*, std::_Ios_Openmode, unsigned long long)
	_ZN9__gnu_cxx13stdio_filebufIwSt11char_traitsIwEEC2EP6_iobufSt13_Ios_Openmodey @ 694
;	__gnu_cxx::stdio_filebuf<wchar_t, std::char_traits<wchar_t> >::stdio_filebuf(int, std::_Ios_Openmode, unsigned long long)
	_ZN9__gnu_cxx13stdio_filebufIwSt11char_traitsIwEEC2EiSt13_Ios_Openmodey @ 695
;	__gnu_cxx::stdio_filebuf<wchar_t, std::char_traits<wchar_t> >::stdio_filebuf()
	_ZN9__gnu_cxx13stdio_filebufIwSt11char_traitsIwEEC2Ev @ 696
;	__gnu_cxx::stdio_filebuf<wchar_t, std::char_traits<wchar_t> >::~stdio_filebuf()
	_ZN9__gnu_cxx13stdio_filebufIwSt11char_traitsIwEED0Ev @ 697
;	__gnu_cxx::stdio_filebuf<wchar_t, std::char_traits<wchar_t> >::~stdio_filebuf()
	_ZN9__gnu_cxx13stdio_filebufIwSt11char_traitsIwEED1Ev @ 698
;	__gnu_cxx::stdio_filebuf<wchar_t, std::char_traits<wchar_t> >::~stdio_filebuf()
	_ZN9__gnu_cxx13stdio_filebufIwSt11char_traitsIwEED2Ev @ 699
;	__gnu_cxx::__concat_size_t(char*, unsigned long long, unsigned long long)
	_ZN9__gnu_cxx15__concat_size_tEPcyy @ 700
;	__gnu_cxx::__snprintf_lite(char*, unsigned long long, char const*, char*)
	_ZN9__gnu_cxx15__snprintf_liteEPcyPKcS0_ @ 701
;	__gnu_cxx::stdio_sync_filebuf<char, std::char_traits<char> >::file()
	_ZN9__gnu_cxx18stdio_sync_filebufIcSt11char_traitsIcEE4fileEv @ 702
;	__gnu_cxx::stdio_sync_filebuf<char, std::char_traits<char> >::swap(__gnu_cxx::stdio_sync_filebuf<char, std::char_traits<char> >&)
	_ZN9__gnu_cxx18stdio_sync_filebufIcSt11char_traitsIcEE4swapERS3_ @ 703
;	__gnu_cxx::stdio_sync_filebuf<char, std::char_traits<char> >::sync()
	_ZN9__gnu_cxx18stdio_sync_filebufIcSt11char_traitsIcEE4syncEv @ 704
;	__gnu_cxx::stdio_sync_filebuf<char, std::char_traits<char> >::uflow()
	_ZN9__gnu_cxx18stdio_sync_filebufIcSt11char_traitsIcEE5uflowEv @ 705
;	__gnu_cxx::stdio_sync_filebuf<char, std::char_traits<char> >::xsgetn(char*, long long)
	_ZN9__gnu_cxx18stdio_sync_filebufIcSt11char_traitsIcEE6xsgetnEPcx @ 706
;	__gnu_cxx::stdio_sync_filebuf<char, std::char_traits<char> >::xsputn(char const*, long long)
	_ZN9__gnu_cxx18stdio_sync_filebufIcSt11char_traitsIcEE6xsputnEPKcx @ 707
;	__gnu_cxx::stdio_sync_filebuf<char, std::char_traits<char> >::seekoff(long long, std::_Ios_Seekdir, std::_Ios_Openmode)
	_ZN9__gnu_cxx18stdio_sync_filebufIcSt11char_traitsIcEE7seekoffExSt12_Ios_SeekdirSt13_Ios_Openmode @ 708
;	__gnu_cxx::stdio_sync_filebuf<char, std::char_traits<char> >::seekpos(std::fpos<_Mbstatet>, std::_Ios_Openmode)
	_ZN9__gnu_cxx18stdio_sync_filebufIcSt11char_traitsIcEE7seekposESt4fposI9_MbstatetESt13_Ios_Openmode @ 709
;	__gnu_cxx::stdio_sync_filebuf<char, std::char_traits<char> >::overflow(int)
	_ZN9__gnu_cxx18stdio_sync_filebufIcSt11char_traitsIcEE8overflowEi @ 710
;	__gnu_cxx::stdio_sync_filebuf<char, std::char_traits<char> >::pbackfail(int)
	_ZN9__gnu_cxx18stdio_sync_filebufIcSt11char_traitsIcEE9pbackfailEi @ 711
;	__gnu_cxx::stdio_sync_filebuf<char, std::char_traits<char> >::underflow()
	_ZN9__gnu_cxx18stdio_sync_filebufIcSt11char_traitsIcEE9underflowEv @ 712
;	__gnu_cxx::stdio_sync_filebuf<char, std::char_traits<char> >::stdio_sync_filebuf(__gnu_cxx::stdio_sync_filebuf<char, std::char_traits<char> >&&)
	_ZN9__gnu_cxx18stdio_sync_filebufIcSt11char_traitsIcEEC1EOS3_ @ 713
;	__gnu_cxx::stdio_sync_filebuf<char, std::char_traits<char> >::stdio_sync_filebuf(_iobuf*)
	_ZN9__gnu_cxx18stdio_sync_filebufIcSt11char_traitsIcEEC1EP6_iobuf @ 714
;	__gnu_cxx::stdio_sync_filebuf<char, std::char_traits<char> >::stdio_sync_filebuf(__gnu_cxx::stdio_sync_filebuf<char, std::char_traits<char> >&&)
	_ZN9__gnu_cxx18stdio_sync_filebufIcSt11char_traitsIcEEC2EOS3_ @ 715
;	__gnu_cxx::stdio_sync_filebuf<char, std::char_traits<char> >::stdio_sync_filebuf(_iobuf*)
	_ZN9__gnu_cxx18stdio_sync_filebufIcSt11char_traitsIcEEC2EP6_iobuf @ 716
;	__gnu_cxx::stdio_sync_filebuf<char, std::char_traits<char> >::~stdio_sync_filebuf()
	_ZN9__gnu_cxx18stdio_sync_filebufIcSt11char_traitsIcEED0Ev @ 717
;	__gnu_cxx::stdio_sync_filebuf<char, std::char_traits<char> >::~stdio_sync_filebuf()
	_ZN9__gnu_cxx18stdio_sync_filebufIcSt11char_traitsIcEED1Ev @ 718
;	__gnu_cxx::stdio_sync_filebuf<char, std::char_traits<char> >::operator=(__gnu_cxx::stdio_sync_filebuf<char, std::char_traits<char> >&&)
	_ZN9__gnu_cxx18stdio_sync_filebufIcSt11char_traitsIcEEaSEOS3_ @ 719
;	__gnu_cxx::stdio_sync_filebuf<wchar_t, std::char_traits<wchar_t> >::file()
	_ZN9__gnu_cxx18stdio_sync_filebufIwSt11char_traitsIwEE4fileEv @ 720
;	__gnu_cxx::stdio_sync_filebuf<wchar_t, std::char_traits<wchar_t> >::swap(__gnu_cxx::stdio_sync_filebuf<wchar_t, std::char_traits<wchar_t> >&)
	_ZN9__gnu_cxx18stdio_sync_filebufIwSt11char_traitsIwEE4swapERS3_ @ 721
;	__gnu_cxx::stdio_sync_filebuf<wchar_t, std::char_traits<wchar_t> >::sync()
	_ZN9__gnu_cxx18stdio_sync_filebufIwSt11char_traitsIwEE4syncEv @ 722
;	__gnu_cxx::stdio_sync_filebuf<wchar_t, std::char_traits<wchar_t> >::uflow()
	_ZN9__gnu_cxx18stdio_sync_filebufIwSt11char_traitsIwEE5uflowEv @ 723
;	__gnu_cxx::stdio_sync_filebuf<wchar_t, std::char_traits<wchar_t> >::xsgetn(wchar_t*, long long)
	_ZN9__gnu_cxx18stdio_sync_filebufIwSt11char_traitsIwEE6xsgetnEPwx @ 724
;	__gnu_cxx::stdio_sync_filebuf<wchar_t, std::char_traits<wchar_t> >::xsputn(wchar_t const*, long long)
	_ZN9__gnu_cxx18stdio_sync_filebufIwSt11char_traitsIwEE6xsputnEPKwx @ 725
;	__gnu_cxx::stdio_sync_filebuf<wchar_t, std::char_traits<wchar_t> >::seekoff(long long, std::_Ios_Seekdir, std::_Ios_Openmode)
	_ZN9__gnu_cxx18stdio_sync_filebufIwSt11char_traitsIwEE7seekoffExSt12_Ios_SeekdirSt13_Ios_Openmode @ 726
;	__gnu_cxx::stdio_sync_filebuf<wchar_t, std::char_traits<wchar_t> >::seekpos(std::fpos<_Mbstatet>, std::_Ios_Openmode)
	_ZN9__gnu_cxx18stdio_sync_filebufIwSt11char_traitsIwEE7seekposESt4fposI9_MbstatetESt13_Ios_Openmode @ 727
;	__gnu_cxx::stdio_sync_filebuf<wchar_t, std::char_traits<wchar_t> >::overflow(unsigned short)
	_ZN9__gnu_cxx18stdio_sync_filebufIwSt11char_traitsIwEE8overflowEt @ 728
;	__gnu_cxx::stdio_sync_filebuf<wchar_t, std::char_traits<wchar_t> >::pbackfail(unsigned short)
	_ZN9__gnu_cxx18stdio_sync_filebufIwSt11char_traitsIwEE9pbackfailEt @ 729
;	__gnu_cxx::stdio_sync_filebuf<wchar_t, std::char_traits<wchar_t> >::underflow()
	_ZN9__gnu_cxx18stdio_sync_filebufIwSt11char_traitsIwEE9underflowEv @ 730
;	__gnu_cxx::stdio_sync_filebuf<wchar_t, std::char_traits<wchar_t> >::stdio_sync_filebuf(__gnu_cxx::stdio_sync_filebuf<wchar_t, std::char_traits<wchar_t> >&&)
	_ZN9__gnu_cxx18stdio_sync_filebufIwSt11char_traitsIwEEC1EOS3_ @ 731
;	__gnu_cxx::stdio_sync_filebuf<wchar_t, std::char_traits<wchar_t> >::stdio_sync_filebuf(_iobuf*)
	_ZN9__gnu_cxx18stdio_sync_filebufIwSt11char_traitsIwEEC1EP6_iobuf @ 732
;	__gnu_cxx::stdio_sync_filebuf<wchar_t, std::char_traits<wchar_t> >::stdio_sync_filebuf(__gnu_cxx::stdio_sync_filebuf<wchar_t, std::char_traits<wchar_t> >&&)
	_ZN9__gnu_cxx18stdio_sync_filebufIwSt11char_traitsIwEEC2EOS3_ @ 733
;	__gnu_cxx::stdio_sync_filebuf<wchar_t, std::char_traits<wchar_t> >::stdio_sync_filebuf(_iobuf*)
	_ZN9__gnu_cxx18stdio_sync_filebufIwSt11char_traitsIwEEC2EP6_iobuf @ 734
;	__gnu_cxx::stdio_sync_filebuf<wchar_t, std::char_traits<wchar_t> >::~stdio_sync_filebuf()
	_ZN9__gnu_cxx18stdio_sync_filebufIwSt11char_traitsIwEED0Ev @ 735
;	__gnu_cxx::stdio_sync_filebuf<wchar_t, std::char_traits<wchar_t> >::~stdio_sync_filebuf()
	_ZN9__gnu_cxx18stdio_sync_filebufIwSt11char_traitsIwEED1Ev @ 736
;	__gnu_cxx::stdio_sync_filebuf<wchar_t, std::char_traits<wchar_t> >::operator=(__gnu_cxx::stdio_sync_filebuf<wchar_t, std::char_traits<wchar_t> >&&)
	_ZN9__gnu_cxx18stdio_sync_filebufIwSt11char_traitsIwEEaSEOS3_ @ 737
;	__gnu_cxx::__concurrence_lock_error::~__concurrence_lock_error()
	_ZN9__gnu_cxx24__concurrence_lock_errorD0Ev @ 738
;	__gnu_cxx::__concurrence_lock_error::~__concurrence_lock_error()
	_ZN9__gnu_cxx24__concurrence_lock_errorD1Ev @ 739
;	__gnu_cxx::__concurrence_wait_error::~__concurrence_wait_error()
	_ZN9__gnu_cxx24__concurrence_wait_errorD0Ev @ 740
;	__gnu_cxx::__concurrence_wait_error::~__concurrence_wait_error()
	_ZN9__gnu_cxx24__concurrence_wait_errorD1Ev @ 741
;	__gnu_cxx::__concurrence_unlock_error::~__concurrence_unlock_error()
	_ZN9__gnu_cxx26__concurrence_unlock_errorD0Ev @ 742
;	__gnu_cxx::__concurrence_unlock_error::~__concurrence_unlock_error()
	_ZN9__gnu_cxx26__concurrence_unlock_errorD1Ev @ 743
;	__gnu_cxx::__throw_insufficient_space(char const*, char const*)
	_ZN9__gnu_cxx26__throw_insufficient_spaceEPKcS1_ @ 744
;	__gnu_cxx::__verbose_terminate_handler()
	_ZN9__gnu_cxx27__verbose_terminate_handlerEv @ 745
;	__gnu_cxx::__concurrence_broadcast_error::~__concurrence_broadcast_error()
	_ZN9__gnu_cxx29__concurrence_broadcast_errorD0Ev @ 746
;	__gnu_cxx::__concurrence_broadcast_error::~__concurrence_broadcast_error()
	_ZN9__gnu_cxx29__concurrence_broadcast_errorD1Ev @ 747
;	__gnu_cxx::__throw_concurrence_lock_error()
	_ZN9__gnu_cxx30__throw_concurrence_lock_errorEv @ 748
;	__gnu_cxx::__throw_concurrence_unlock_error()
	_ZN9__gnu_cxx32__throw_concurrence_unlock_errorEv @ 749
;	__gnu_cxx::__throw_concurrence_broadcast_error()
	_ZN9__gnu_cxx35__throw_concurrence_broadcast_errorEv @ 750
;	__gnu_cxx::__freeres()
	_ZN9__gnu_cxx9__freeresEv @ 751
;	bool __gnu_cxx::operator==<char const*, std::__cxx11::basic_string<char, std::char_traits<char>, std::allocator<char> > >(__gnu_cxx::__normal_iterator<char const*, std::__cxx11::basic_string<char, std::char_traits<char>, std::allocator<char> > > const&, __gnu_cxx::__normal_iterator<char const*, std::__cxx11::basic_string<char, std::char_traits<char>, std::allocator<char> > > const&)
	_ZN9__gnu_cxxeqIPKcNSt7__cxx1112basic_stringIcSt11char_traitsIcESaIcEEEEEbRKNS_17__normal_iteratorIT_T0_EESE_ @ 752
;	bool __gnu_cxx::operator==<char const*, std::string>(__gnu_cxx::__normal_iterator<char const*, std::string> const&, __gnu_cxx::__normal_iterator<char const*, std::string> const&)
	_ZN9__gnu_cxxeqIPKcSsEEbRKNS_17__normal_iteratorIT_T0_EES8_ @ 753
;	bool __gnu_cxx::operator==<wchar_t const*, std::__cxx11::basic_string<wchar_t, std::char_traits<wchar_t>, std::allocator<wchar_t> > >(__gnu_cxx::__normal_iterator<wchar_t const*, std::__cxx11::basic_string<wchar_t, std::char_traits<wchar_t>, std::allocator<wchar_t> > > const&, __gnu_cxx::__normal_iterator<wchar_t const*, std::__cxx11::basic_string<wchar_t, std::char_traits<wchar_t>, std::allocator<wchar_t> > > const&)
	_ZN9__gnu_cxxeqIPKwNSt7__cxx1112basic_stringIwSt11char_traitsIwESaIwEEEEEbRKNS_17__normal_iteratorIT_T0_EESE_ @ 754
;	bool __gnu_cxx::operator==<wchar_t const*, std::basic_string<wchar_t, std::char_traits<wchar_t>, std::allocator<wchar_t> > >(__gnu_cxx::__normal_iterator<wchar_t const*, std::basic_string<wchar_t, std::char_traits<wchar_t>, std::allocator<wchar_t> > > const&, __gnu_cxx::__normal_iterator<wchar_t const*, std::basic_string<wchar_t, std::char_traits<wchar_t>, std::allocator<wchar_t> > > const&)
	_ZN9__gnu_cxxeqIPKwSbIwSt11char_traitsIwESaIwEEEEbRKNS_17__normal_iteratorIT_T0_EESC_ @ 755
;	bool __gnu_cxx::operator==<char*, std::__cxx11::basic_string<char, std::char_traits<char>, std::allocator<char> > >(__gnu_cxx::__normal_iterator<char*, std::__cxx11::basic_string<char, std::char_traits<char>, std::allocator<char> > > const&, __gnu_cxx::__normal_iterator<char*, std::__cxx11::basic_string<char, std::char_traits<char>, std::allocator<char> > > const&)
	_ZN9__gnu_cxxeqIPcNSt7__cxx1112basic_stringIcSt11char_traitsIcESaIcEEEEEbRKNS_17__normal_iteratorIT_T0_EESD_ @ 756
;	bool __gnu_cxx::operator==<char*, std::string>(__gnu_cxx::__normal_iterator<char*, std::string> const&, __gnu_cxx::__normal_iterator<char*, std::string> const&)
	_ZN9__gnu_cxxeqIPcSsEEbRKNS_17__normal_iteratorIT_T0_EES7_ @ 757
;	bool __gnu_cxx::operator==<wchar_t*, std::__cxx11::basic_string<wchar_t, std::char_traits<wchar_t>, std::allocator<wchar_t> > >(__gnu_cxx::__normal_iterator<wchar_t*, std::__cxx11::basic_string<wchar_t, std::char_traits<wchar_t>, std::allocator<wchar_t> > > const&, __gnu_cxx::__normal_iterator<wchar_t*, std::__cxx11::basic_string<wchar_t, std::char_traits<wchar_t>, std::allocator<wchar_t> > > const&)
	_ZN9__gnu_cxxeqIPwNSt7__cxx1112basic_stringIwSt11char_traitsIwESaIwEEEEEbRKNS_17__normal_iteratorIT_T0_EESD_ @ 758
;	bool __gnu_cxx::operator==<wchar_t*, std::basic_string<wchar_t, std::char_traits<wchar_t>, std::allocator<wchar_t> > >(__gnu_cxx::__normal_iterator<wchar_t*, std::basic_string<wchar_t, std::char_traits<wchar_t>, std::allocator<wchar_t> > > const&, __gnu_cxx::__normal_iterator<wchar_t*, std::basic_string<wchar_t, std::char_traits<wchar_t>, std::allocator<wchar_t> > > const&)
	_ZN9__gnu_cxxeqIPwSbIwSt11char_traitsIwESaIwEEEEbRKNS_17__normal_iteratorIT_T0_EESB_ @ 759
;	void rapidjson::GenericReader<rapidjson::UTF8<char>, rapidjson::UTF8<char>, rapidjson::CrtAllocator>::ParseValue<274u, rapidjson::BasicIStreamWrapper<std::istream>, stan::json::RapidJSONHandler<stan::json::json_data_handler> >(rapidjson::BasicIStreamWrapper<std::istream>&, stan::json::RapidJSONHandler<stan::json::json_data_handler>&)
	_ZN9rapidjson13GenericReaderINS_4UTF8IcEES2_NS_12CrtAllocatorEE10ParseValueILj274ENS_19BasicIStreamWrapperISiEEN4stan4json16RapidJSONHandlerINS9_17json_data_handlerEEEEEvRT0_RT1_ @ 760
;	void rapidjson::GenericReader<rapidjson::UTF8<char>, rapidjson::UTF8<char>, rapidjson::CrtAllocator>::ParseNumber<274u, rapidjson::BasicIStreamWrapper<std::istream>, stan::json::RapidJSONHandler<stan::json::json_data_handler> >(rapidjson::BasicIStreamWrapper<std::istream>&, stan::json::RapidJSONHandler<stan::json::json_data_handler>&)
	_ZN9rapidjson13GenericReaderINS_4UTF8IcEES2_NS_12CrtAllocatorEE11ParseNumberILj274ENS_19BasicIStreamWrapperISiEEN4stan4json16RapidJSONHandlerINS9_17json_data_handlerEEEEEvRT0_RT1_ @ 761
;	void rapidjson::GenericReader<rapidjson::UTF8<char>, rapidjson::UTF8<char>, rapidjson::CrtAllocator>::ParseString<274u, rapidjson::BasicIStreamWrapper<std::istream>, stan::json::RapidJSONHandler<stan::json::json_data_handler> >(rapidjson::BasicIStreamWrapper<std::istream>&, stan::json::RapidJSONHandler<stan::json::json_data_handler>&, bool)
	_ZN9rapidjson13GenericReaderINS_4UTF8IcEES2_NS_12CrtAllocatorEE11ParseStringILj274ENS_19BasicIStreamWrapperISiEEN4stan4json16RapidJSONHandlerINS9_17json_data_handlerEEEEEvRT0_RT1_b @ 762
;	rapidjson::GenericReader<rapidjson::UTF8<char>, rapidjson::UTF8<char>, rapidjson::CrtAllocator>::NumberStream<rapidjson::BasicIStreamWrapper<std::istream>, true, false>::TakePush()
	_ZN9rapidjson13GenericReaderINS_4UTF8IcEES2_NS_12CrtAllocatorEE12NumberStreamINS_19BasicIStreamWrapperISiEELb1ELb0EE8TakePushEv @ 763
;	unsigned int rapidjson::GenericReader<rapidjson::UTF8<char>, rapidjson::UTF8<char>, rapidjson::CrtAllocator>::ParseHex4<rapidjson::BasicIStreamWrapper<std::istream> >(rapidjson::BasicIStreamWrapper<std::istream>&, unsigned long long)
	_ZN9rapidjson13GenericReaderINS_4UTF8IcEES2_NS_12CrtAllocatorEE9ParseHex4INS_19BasicIStreamWrapperISiEEEEjRT_y @ 764
;	void rapidjson::SkipWhitespace<rapidjson::BasicIStreamWrapper<std::istream> >(rapidjson::BasicIStreamWrapper<std::istream>&)
	_ZN9rapidjson14SkipWhitespaceINS_19BasicIStreamWrapperISiEEEEvRT_ @ 765
;	rapidjson::BasicIStreamWrapper<std::istream>::Read()
	_ZN9rapidjson19BasicIStreamWrapperISiE4ReadEv @ 766
;	bool rapidjson::UTF8<char>::Validate<rapidjson::BasicIStreamWrapper<std::istream>, rapidjson::GenericReader<rapidjson::UTF8<char>, rapidjson::UTF8<char>, rapidjson::CrtAllocator>::StackStream<char> >(rapidjson::BasicIStreamWrapper<std::istream>&, rapidjson::GenericReader<rapidjson::UTF8<char>, rapidjson::UTF8<char>, rapidjson::CrtAllocator>::StackStream<char>&)
	_ZN9rapidjson4UTF8IcE8ValidateINS_19BasicIStreamWrapperISiEENS_13GenericReaderIS1_S1_NS_12CrtAllocatorEE11StackStreamIcEEEEbRT_RT0_ @ 767
;	rapidjson::internal::BigInteger::operator<<=(unsigned long long)
	_ZN9rapidjson8internal10BigIntegerlSEy @ 768
;	rapidjson::internal::StrtodDiyFp(char const*, int, int, double*)
	_ZN9rapidjson8internal11StrtodDiyFpEPKciiPd @ 769
;	rapidjson::internal::StrtodBigInteger(double, char const*, int, int)
	_ZN9rapidjson8internal16StrtodBigIntegerEdPKcii @ 770
;	__cxxabiv1::__class_type_info::__do_catch(std::type_info const*, void**, unsigned int) const
	_ZNK10__cxxabiv117__class_type_info10__do_catchEPKSt9type_infoPPvj @ 771
;	__cxxabiv1::__class_type_info::__do_upcast(__cxxabiv1::__class_type_info const*, void const*, __cxxabiv1::__class_type_info::__upcast_result&) const
	_ZNK10__cxxabiv117__class_type_info11__do_upcastEPKS0_PKvRNS0_15__upcast_resultE @ 772
;	__cxxabiv1::__class_type_info::__do_upcast(__cxxabiv1::__class_type_info const*, void**) const
	_ZNK10__cxxabiv117__class_type_info11__do_upcastEPKS0_PPv @ 773
;	__cxxabiv1::__class_type_info::__do_dyncast(long long, __cxxabiv1::__class_type_info::__sub_kind, __cxxabiv1::__class_type_info const*, void const*, __cxxabiv1::__class_type_info const*, void const*, __cxxabiv1::__class_type_info::__dyncast_result&) const
	_ZNK10__cxxabiv117__class_type_info12__do_dyncastExNS0_10__sub_kindEPKS0_PKvS3_S5_RNS0_16__dyncast_resultE @ 774
;	__cxxabiv1::__class_type_info::__do_find_public_src(long long, void const*, __cxxabiv1::__class_type_info const*, void const*) const
	_ZNK10__cxxabiv117__class_type_info20__do_find_public_srcExPKvPKS0_S2_ @ 775
;	__cxxabiv1::__si_class_type_info::__do_upcast(__cxxabiv1::__class_type_info const*, void const*, __cxxabiv1::__class_type_info::__upcast_result&) const
	_ZNK10__cxxabiv120__si_class_type_info11__do_upcastEPKNS_17__class_type_infoEPKvRNS1_15__upcast_resultE @ 776
;	__cxxabiv1::__si_class_type_info::__do_dyncast(long long, __cxxabiv1::__class_type_info::__sub_kind, __cxxabiv1::__class_type_info const*, void const*, __cxxabiv1::__class_type_info const*, void const*, __cxxabiv1::__class_type_info::__dyncast_result&) const
	_ZNK10__cxxabiv120__si_class_type_info12__do_dyncastExNS_17__class_type_info10__sub_kindEPKS1_PKvS4_S6_RNS1_16__dyncast_resultE @ 777
;	__cxxabiv1::__si_class_type_info::__do_find_public_src(long long, void const*, __cxxabiv1::__class_type_info const*, void const*) const
	_ZNK10__cxxabiv120__si_class_type_info20__do_find_public_srcExPKvPKNS_17__class_type_infoES2_ @ 778
;	__cxxabiv1::__vmi_class_type_info::__do_upcast(__cxxabiv1::__class_type_info const*, void const*, __cxxabiv1::__class_type_info::__upcast_result&) const
	_ZNK10__cxxabiv121__vmi_class_type_info11__do_upcastEPKNS_17__class_type_infoEPKvRNS1_15__upcast_resultE @ 779
;	__cxxabiv1::__vmi_class_type_info::__do_dyncast(long long, __cxxabiv1::__class_type_info::__sub_kind, __cxxabiv1::__class_type_info const*, void const*, __cxxabiv1::__class_type_info const*, void const*, __cxxabiv1::__class_type_info::__dyncast_result&) const
	_ZNK10__cxxabiv121__vmi_class_type_info12__do_dyncastExNS_17__class_type_info10__sub_kindEPKS1_PKvS4_S6_RNS1_16__dyncast_resultE @ 780
;	__cxxabiv1::__vmi_class_type_info::__do_find_public_src(long long, void const*, __cxxabiv1::__class_type_info const*, void const*) const
	_ZNK10__cxxabiv121__vmi_class_type_info20__do_find_public_srcExPKvPKNS_17__class_type_infoES2_ @ 781
;	dummy_stan_model_win_model_namespace::dummy_stan_model_win_model::model_name[abi:cxx11]() const
	_ZNK36dummy_stan_model_win_model_namespace26dummy_stan_model_win_model10model_nameB5cxx11Ev @ 782
;	dummy_stan_model_win_model_namespace::dummy_stan_model_win_model::get_param_names(std::vector<std::__cxx11::basic_string<char, std::char_traits<char>, std::allocator<char> >, std::allocator<std::__cxx11::basic_string<char, std::char_traits<char>, std::allocator<char> > > >&, bool, bool) const
	_ZNK36dummy_stan_model_win_model_namespace26dummy_stan_model_win_model15get_param_namesERSt6vectorINSt7__cxx1112basic_stringIcSt11char_traitsIcESaIcEEESaIS7_EEbb @ 783
;	dummy_stan_model_win_model_namespace::dummy_stan_model_win_model::transform_inits(stan::io::var_context const&, Eigen::Matrix<double, -1, 1, 0, -1, 1>&, std::ostream*) const
	_ZNK36dummy_stan_model_win_model_namespace26dummy_stan_model_win_model15transform_initsERKN4stan2io11var_contextERN5Eigen6MatrixIdLin1ELi1ELi0ELin1ELi1EEEPSo @ 784
;	dummy_stan_model_win_model_namespace::dummy_stan_model_win_model::transform_inits(stan::io::var_context const&, std::vector<int, std::allocator<int> >&, std::vector<double, std::allocator<double> >&, std::ostream*) const
	_ZNK36dummy_stan_model_win_model_namespace26dummy_stan_model_win_model15transform_initsERKN4stan2io11var_contextERSt6vectorIiSaIiEERS6_IdSaIdEEPSo @ 785
;	dummy_stan_model_win_model_namespace::dummy_stan_model_win_model::unconstrain_array(Eigen::Matrix<double, -1, 1, 0, -1, 1> const&, Eigen::Matrix<double, -1, 1, 0, -1, 1>&, std::ostream*) const
	_ZNK36dummy_stan_model_win_model_namespace26dummy_stan_model_win_model17unconstrain_arrayERKN5Eigen6MatrixIdLin1ELi1ELi0ELin1ELi1EEERS3_PSo @ 786
;	dummy_stan_model_win_model_namespace::dummy_stan_model_win_model::unconstrain_array(std::vector<double, std::allocator<double> > const&, std::vector<double, std::allocator<double> >&, std::ostream*) const
	_ZNK36dummy_stan_model_win_model_namespace26dummy_stan_model_win_model17unconstrain_arrayERKSt6vectorIdSaIdEERS3_PSo @ 787
;	dummy_stan_model_win_model_namespace::dummy_stan_model_win_model::model_compile_info[abi:cxx11]() const
	_ZNK36dummy_stan_model_win_model_namespace26dummy_stan_model_win_model18model_compile_infoB5cxx11Ev @ 788
;	dummy_stan_model_win_model_namespace::dummy_stan_model_win_model::constrained_param_names(std::vector<std::__cxx11::basic_string<char, std::char_traits<char>, std::allocator<char> >, std::allocator<std::__cxx11::basic_string<char, std::char_traits<char>, std::allocator<char> > > >&, bool, bool) const
	_ZNK36dummy_stan_model_win_model_namespace26dummy_stan_model_win_model23constrained_param_namesERSt6vectorINSt7__cxx1112basic_stringIcSt11char_traitsIcESaIcEEESaIS7_EEbb @ 789
;	dummy_stan_model_win_model_namespace::dummy_stan_model_win_model::unconstrained_param_names(std::vector<std::__cxx11::basic_string<char, std::char_traits<char>, std::allocator<char> >, std::allocator<std::__cxx11::basic_string<char, std::char_traits<char>, std::allocator<char> > > >&, bool, bool) const
	_ZNK36dummy_stan_model_win_model_namespace26dummy_stan_model_win_model25unconstrained_param_namesERSt6vectorINSt7__cxx1112basic_stringIcSt11char_traitsIcESaIcEEESaIS7_EEbb @ 790
;	dummy_stan_model_win_model_namespace::dummy_stan_model_win_model::get_dims(std::vector<std::vector<unsigned long long, std::allocator<unsigned long long> >, std::allocator<std::vector<unsigned long long, std::allocator<unsigned long long> > > >&, bool, bool) const
	_ZNK36dummy_stan_model_win_model_namespace26dummy_stan_model_win_model8get_dimsERSt6vectorIS1_IySaIyEESaIS3_EEbb @ 791
;	stan::io::empty_var_context::contains_i(std::__cxx11::basic_string<char, std::char_traits<char>, std::allocator<char> > const&) const
	_ZNK4stan2io17empty_var_context10contains_iERKNSt7__cxx1112basic_stringIcSt11char_traitsIcESaIcEEE @ 792
;	stan::io::empty_var_context::contains_r(std::__cxx11::basic_string<char, std::char_traits<char>, std::allocator<char> > const&) const
	_ZNK4stan2io17empty_var_context10contains_rERKNSt7__cxx1112basic_stringIcSt11char_traitsIcESaIcEEE @ 793
;	stan::io::empty_var_context::validate_dims(std::__cxx11::basic_string<char, std::char_traits<char>, std::allocator<char> > const&, std::__cxx11::basic_string<char, std::char_traits<char>, std::allocator<char> > const&, std::__cxx11::basic_string<char, std::char_traits<char>, std::allocator<char> > const&, std::vector<unsigned long long, std::allocator<unsigned long long> > const&) const
	_ZNK4stan2io17empty_var_context13validate_dimsERKNSt7__cxx1112basic_stringIcSt11char_traitsIcESaIcEEES9_S9_RKSt6vectorIySaIyEE @ 794
;	stan::io::empty_var_context::dims_i(std::__cxx11::basic_string<char, std::char_traits<char>, std::allocator<char> > const&) const
	_ZNK4stan2io17empty_var_context6dims_iERKNSt7__cxx1112basic_stringIcSt11char_traitsIcESaIcEEE @ 795
;	stan::io::empty_var_context::dims_r(std::__cxx11::basic_string<char, std::char_traits<char>, std::allocator<char> > const&) const
	_ZNK4stan2io17empty_var_context6dims_rERKNSt7__cxx1112basic_stringIcSt11char_traitsIcESaIcEEE @ 796
;	stan::io::empty_var_context::vals_c(std::__cxx11::basic_string<char, std::char_traits<char>, std::allocator<char> > const&) const
	_ZNK4stan2io17empty_var_context6vals_cERKNSt7__cxx1112basic_stringIcSt11char_traitsIcESaIcEEE @ 797
;	stan::io::empty_var_context::vals_i(std::__cxx11::basic_string<char, std::char_traits<char>, std::allocator<char> > const&) const
	_ZNK4stan2io17empty_var_context6vals_iERKNSt7__cxx1112basic_stringIcSt11char_traitsIcESaIcEEE @ 798
;	stan::io::empty_var_context::vals_r(std::__cxx11::basic_string<char, std::char_traits<char>, std::allocator<char> > const&) const
	_ZNK4stan2io17empty_var_context6vals_rERKNSt7__cxx1112basic_stringIcSt11char_traitsIcESaIcEEE @ 799
;	stan::io::empty_var_context::names_i(std::vector<std::__cxx11::basic_string<char, std::char_traits<char>, std::allocator<char> >, std::allocator<std::__cxx11::basic_string<char, std::char_traits<char>, std::allocator<char> > > >&) const
	_ZNK4stan2io17empty_var_context7names_iERSt6vectorINSt7__cxx1112basic_stringIcSt11char_traitsIcESaIcEEESaIS8_EE @ 800
;	stan::io::empty_var_context::names_r(std::vector<std::__cxx11::basic_string<char, std::char_traits<char>, std::allocator<char> >, std::allocator<std::__cxx11::basic_string<char, std::char_traits<char>, std::allocator<char> > > >&) const
	_ZNK4stan2io17empty_var_context7names_rERSt6vectorINSt7__cxx1112basic_stringIcSt11char_traitsIcESaIcEEESaIS8_EE @ 801
;	stan::json::json_data::contains_i(std::__cxx11::basic_string<char, std::char_traits<char>, std::allocator<char> > const&) const
	_ZNK4stan4json9json_data10contains_iERKNSt7__cxx1112basic_stringIcSt11char_traitsIcESaIcEEE @ 802
;	stan::json::json_data::contains_r(std::__cxx11::basic_string<char, std::char_traits<char>, std::allocator<char> > const&) const
	_ZNK4stan4json9json_data10contains_rERKNSt7__cxx1112basic_stringIcSt11char_traitsIcESaIcEEE @ 803
;	stan::json::json_data::validate_dims(std::__cxx11::basic_string<char, std::char_traits<char>, std::allocator<char> > const&, std::__cxx11::basic_string<char, std::char_traits<char>, std::allocator<char> > const&, std::__cxx11::basic_string<char, std::char_traits<char>, std::allocator<char> > const&, std::vector<unsigned long long, std::allocator<unsigned long long> > const&) const
	_ZNK4stan4json9json_data13validate_dimsERKNSt7__cxx1112basic_stringIcSt11char_traitsIcESaIcEEES9_S9_RKSt6vectorIySaIyEE @ 804
;	stan::json::json_data::dims_i(std::__cxx11::basic_string<char, std::char_traits<char>, std::allocator<char> > const&) const
	_ZNK4stan4json9json_data6dims_iERKNSt7__cxx1112basic_stringIcSt11char_traitsIcESaIcEEE @ 805
;	stan::json::json_data::dims_r(std::__cxx11::basic_string<char, std::char_traits<char>, std::allocator<char> > const&) const
	_ZNK4stan4json9json_data6dims_rERKNSt7__cxx1112basic_stringIcSt11char_traitsIcESaIcEEE @ 806
;	stan::json::json_data::vals_c(std::__cxx11::basic_string<char, std::char_traits<char>, std::allocator<char> > const&) const
	_ZNK4stan4json9json_data6vals_cERKNSt7__cxx1112basic_stringIcSt11char_traitsIcESaIcEEE @ 807
;	stan::json::json_data::vals_i(std::__cxx11::basic_string<char, std::char_traits<char>, std::allocator<char> > const&) const
	_ZNK4stan4json9json_data6vals_iERKNSt7__cxx1112basic_stringIcSt11char_traitsIcESaIcEEE @ 808
;	stan::json::json_data::vals_r(std::__cxx11::basic_string<char, std::char_traits<char>, std::allocator<char> > const&) const
	_ZNK4stan4json9json_data6vals_rERKNSt7__cxx1112basic_stringIcSt11char_traitsIcESaIcEEE @ 809
;	stan::json::json_data::names_i(std::vector<std::__cxx11::basic_string<char, std::char_traits<char>, std::allocator<char> >, std::allocator<std::__cxx11::basic_string<char, std::char_traits<char>, std::allocator<char> > > >&) const
	_ZNK4stan4json9json_data7names_iERSt6vectorINSt7__cxx1112basic_stringIcSt11char_traitsIcESaIcEEESaIS8_EE @ 810
;	stan::json::json_data::names_r(std::vector<std::__cxx11::basic_string<char, std::char_traits<char>, std::allocator<char> >, std::allocator<std::__cxx11::basic_string<char, std::char_traits<char>, std::allocator<char> > > >&) const
	_ZNK4stan4json9json_data7names_rERSt6vectorINSt7__cxx1112basic_stringIcSt11char_traitsIcESaIcEEESaIS8_EE @ 811
;	stan::lang::located_exception<std::bad_typeid>::what() const
	_ZNK4stan4lang17located_exceptionISt10bad_typeidE4whatEv @ 812
;	stan::lang::located_exception<std::bad_exception>::what() const
	_ZNK4stan4lang17located_exceptionISt13bad_exceptionE4whatEv @ 813
;	stan::lang::located_exception<std::bad_cast>::what() const
	_ZNK4stan4lang17located_exceptionISt8bad_castE4whatEv @ 814
;	stan::lang::located_exception<std::bad_alloc>::what() const
	_ZNK4stan4lang17located_exceptionISt9bad_allocE4whatEv @ 815
;	stan::lang::located_exception<std::exception>::what() const
	_ZNK4stan4lang17located_exceptionISt9exceptionE4whatEv @ 816
;	stan::model::model_base_crtp<dummy_stan_model_win_model_namespace::dummy_stan_model_win_model>::write_array(boost::random::mixmax_engine<17, 36u, 0ll>&, Eigen::Matrix<double, -1, 1, 0, -1, 1>&, Eigen::Matrix<double, -1, 1, 0, -1, 1>&, bool, bool, std::ostream*) const
	_ZNK4stan5model15model_base_crtpIN36dummy_stan_model_win_model_namespace26dummy_stan_model_win_modelEE11write_arrayERN5boost6random13mixmax_engineILi17ELj36ELx0EEERN5Eigen6MatrixIdLin1ELi1ELi0ELin1ELi1EEESD_bbPSo @ 817
;	stan::model::model_base_crtp<dummy_stan_model_win_model_namespace::dummy_stan_model_win_model>::write_array(boost::random::mixmax_engine<17, 36u, 0ll>&, std::vector<double, std::allocator<double> >&, std::vector<int, std::allocator<int> >&, std::vector<double, std::allocator<double> >&, bool, bool, std::ostream*) const
	_ZNK4stan5model15model_base_crtpIN36dummy_stan_model_win_model_namespace26dummy_stan_model_win_modelEE11write_arrayERN5boost6random13mixmax_engineILi17ELj36ELx0EEERSt6vectorIdSaIdEERSA_IiSaIiEESD_bbPSo @ 818
;	stan::model::model_base_crtp<dummy_stan_model_win_model_namespace::dummy_stan_model_win_model>::log_prob_propto(Eigen::Matrix<stan::math::var_value<double, void>, -1, 1, 0, -1, 1>&, std::ostream*) const
	_ZNK4stan5model15model_base_crtpIN36dummy_stan_model_win_model_namespace26dummy_stan_model_win_modelEE15log_prob_proptoERN5Eigen6MatrixINS_4math9var_valueIdvEELin1ELi1ELi0ELin1ELi1EEEPSo @ 819
;	stan::model::model_base_crtp<dummy_stan_model_win_model_namespace::dummy_stan_model_win_model>::log_prob_propto(Eigen::Matrix<double, -1, 1, 0, -1, 1>&, std::ostream*) const
	_ZNK4stan5model15model_base_crtpIN36dummy_stan_model_win_model_namespace26dummy_stan_model_win_modelEE15log_prob_proptoERN5Eigen6MatrixIdLin1ELi1ELi0ELin1ELi1EEEPSo @ 820
;	stan::model::model_base_crtp<dummy_stan_model_win_model_namespace::dummy_stan_model_win_model>::log_prob_propto(std::vector<stan::math::var_value<double, void>, std::allocator<stan::math::var_value<double, void> > >&, std::vector<int, std::allocator<int> >&, std::ostream*) const
	_ZNK4stan5model15model_base_crtpIN36dummy_stan_model_win_model_namespace26dummy_stan_model_win_modelEE15log_prob_proptoERSt6vectorINS_4math9var_valueIdvEESaIS8_EERS5_IiSaIiEEPSo @ 821
;	stan::model::model_base_crtp<dummy_stan_model_win_model_namespace::dummy_stan_model_win_model>::log_prob_propto(std::vector<double, std::allocator<double> >&, std::vector<int, std::allocator<int> >&, std::ostream*) const
	_ZNK4stan5model15model_base_crtpIN36dummy_stan_model_win_model_namespace26dummy_stan_model_win_modelEE15log_prob_proptoERSt6vectorIdSaIdEERS5_IiSaIiEEPSo @ 822
;	stan::model::model_base_crtp<dummy_stan_model_win_model_namespace::dummy_stan_model_win_model>::log_prob_jacobian(Eigen::Matrix<stan::math::var_value<double, void>, -1, 1, 0, -1, 1>&, std::ostream*) const
	_ZNK4stan5model15model_base_crtpIN36dummy_stan_model_win_model_namespace26dummy_stan_model_win_modelEE17log_prob_jacobianERN5Eigen6MatrixINS_4math9var_valueIdvEELin1ELi1ELi0ELin1ELi1EEEPSo @ 823
;	stan::model::model_base_crtp<dummy_stan_model_win_model_namespace::dummy_stan_model_win_model>::log_prob_jacobian(Eigen::Matrix<double, -1, 1, 0, -1, 1>&, std::ostream*) const
	_ZNK4stan5model15model_base_crtpIN36dummy_stan_model_win_model_namespace26dummy_stan_model_win_modelEE17log_prob_jacobianERN5Eigen6MatrixIdLin1ELi1ELi0ELin1ELi1EEEPSo @ 824
;	stan::model::model_base_crtp<dummy_stan_model_win_model_namespace::dummy_stan_model_win_model>::log_prob_jacobian(std::vector<stan::math::var_value<double, void>, std::allocator<stan::math::var_value<double, void> > >&, std::vector<int, std::allocator<int> >&, std::ostream*) const
	_ZNK4stan5model15model_base_crtpIN36dummy_stan_model_win_model_namespace26dummy_stan_model_win_modelEE17log_prob_jacobianERSt6vectorINS_4math9var_valueIdvEESaIS8_EERS5_IiSaIiEEPSo @ 825
;	stan::model::model_base_crtp<dummy_stan_model_win_model_namespace::dummy_stan_model_win_model>::log_prob_jacobian(std::vector<double, std::allocator<double> >&, std::vector<int, std::allocator<int> >&, std::ostream*) const
	_ZNK4stan5model15model_base_crtpIN36dummy_stan_model_win_model_namespace26dummy_stan_model_win_modelEE17log_prob_jacobianERSt6vectorIdSaIdEERS5_IiSaIiEEPSo @ 826
;	stan::model::model_base_crtp<dummy_stan_model_win_model_namespace::dummy_stan_model_win_model>::log_prob_propto_jacobian(Eigen::Matrix<stan::math::var_value<double, void>, -1, 1, 0, -1, 1>&, std::ostream*) const
	_ZNK4stan5model15model_base_crtpIN36dummy_stan_model_win_model_namespace26dummy_stan_model_win_modelEE24log_prob_propto_jacobianERN5Eigen6MatrixINS_4math9var_valueIdvEELin1ELi1ELi0ELin1ELi1EEEPSo @ 827
;	stan::model::model_base_crtp<dummy_stan_model_win_model_namespace::dummy_stan_model_win_model>::log_prob_propto_jacobian(Eigen::Matrix<double, -1, 1, 0, -1, 1>&, std::ostream*) const
	_ZNK4stan5model15model_base_crtpIN36dummy_stan_model_win_model_namespace26dummy_stan_model_win_modelEE24log_prob_propto_jacobianERN5Eigen6MatrixIdLin1ELi1ELi0ELin1ELi1EEEPSo @ 828
;	stan::model::model_base_crtp<dummy_stan_model_win_model_namespace::dummy_stan_model_win_model>::log_prob_propto_jacobian(std::vector<stan::math::var_value<double, void>, std::allocator<stan::math::var_value<double, void> > >&, std::vector<int, std::allocator<int> >&, std::ostream*) const
	_ZNK4stan5model15model_base_crtpIN36dummy_stan_model_win_model_namespace26dummy_stan_model_win_modelEE24log_prob_propto_jacobianERSt6vectorINS_4math9var_valueIdvEESaIS8_EERS5_IiSaIiEEPSo @ 829
;	stan::model::model_base_crtp<dummy_stan_model_win_model_namespace::dummy_stan_model_win_model>::log_prob_propto_jacobian(std::vector<double, std::allocator<double> >&, std::vector<int, std::allocator<int> >&, std::ostream*) const
	_ZNK4stan5model15model_base_crtpIN36dummy_stan_model_win_model_namespace26dummy_stan_model_win_modelEE24log_prob_propto_jacobianERSt6vectorIdSaIdEERS5_IiSaIiEEPSo @ 830
;	stan::model::model_base_crtp<dummy_stan_model_win_model_namespace::dummy_stan_model_win_model>::log_prob(Eigen::Matrix<stan::math::var_value<double, void>, -1, 1, 0, -1, 1>&, std::ostream*) const
	_ZNK4stan5model15model_base_crtpIN36dummy_stan_model_win_model_namespace26dummy_stan_model_win_modelEE8log_probERN5Eigen6MatrixINS_4math9var_valueIdvEELin1ELi1ELi0ELin1ELi1EEEPSo @ 831
;	stan::model::model_base_crtp<dummy_stan_model_win_model_namespace::dummy_stan_model_win_model>::log_prob(Eigen::Matrix<double, -1, 1, 0, -1, 1>&, std::ostream*) const
	_ZNK4stan5model15model_base_crtpIN36dummy_stan_model_win_model_namespace26dummy_stan_model_win_modelEE8log_probERN5Eigen6MatrixIdLin1ELi1ELi0ELin1ELi1EEEPSo @ 832
;	stan::model::model_base_crtp<dummy_stan_model_win_model_namespace::dummy_stan_model_win_model>::log_prob(std::vector<stan::math::var_value<double, void>, std::allocator<stan::math::var_value<double, void> > >&, std::vector<int, std::allocator<int> >&, std::ostream*) const
	_ZNK4stan5model15model_base_crtpIN36dummy_stan_model_win_model_namespace26dummy_stan_model_win_modelEE8log_probERSt6vectorINS_4math9var_valueIdvEESaIS8_EERS5_IiSaIiEEPSo @ 833
;	stan::model::model_base_crtp<dummy_stan_model_win_model_namespace::dummy_stan_model_win_model>::log_prob(std::vector<double, std::allocator<double> >&, std::vector<int, std::allocator<int> >&, std::ostream*) const
	_ZNK4stan5model15model_base_crtpIN36dummy_stan_model_win_model_namespace26dummy_stan_model_win_modelEE8log_probERSt6vectorIdSaIdEERS5_IiSaIiEEPSo @ 834
;	boost::wrapexcept<boost::regex_error>::clone() const
	_ZNK5boost10wrapexceptINS_11regex_errorEE5cloneEv @ 835
;	boost::wrapexcept<boost::regex_error>::rethrow() const
	_ZNK5boost10wrapexceptINS_11regex_errorEE7rethrowEv @ 836
;	boost::wrapexcept<boost::bad_function_call>::clone() const
	_ZNK5boost10wrapexceptINS_17bad_function_callEE5cloneEv @ 837
;	boost::wrapexcept<boost::bad_function_call>::rethrow() const
	_ZNK5boost10wrapexceptINS_17bad_function_callEE7rethrowEv @ 838
;	boost::wrapexcept<boost::math::rounding_error>::clone() const
	_ZNK5boost10wrapexceptINS_4math14rounding_errorEE5cloneEv @ 839
;	boost::wrapexcept<boost::math::rounding_error>::rethrow() const
	_ZNK5boost10wrapexceptINS_4math14rounding_errorEE7rethrowEv @ 840
;	boost::wrapexcept<boost::math::evaluation_error>::clone() const
	_ZNK5boost10wrapexceptINS_4math16evaluation_errorEE5cloneEv @ 841
;	boost::wrapexcept<boost::math::evaluation_error>::rethrow() const
	_ZNK5boost10wrapexceptINS_4math16evaluation_errorEE7rethrowEv @ 842
;	boost::wrapexcept<std::logic_error>::clone() const
	_ZNK5boost10wrapexceptISt11logic_errorE5cloneEv @ 843
;	boost::wrapexcept<std::logic_error>::rethrow() const
	_ZNK5boost10wrapexceptISt11logic_errorE7rethrowEv @ 844
;	boost::wrapexcept<std::domain_error>::clone() const
	_ZNK5boost10wrapexceptISt12domain_errorE5cloneEv @ 845
;	boost::wrapexcept<std::domain_error>::rethrow() const
	_ZNK5boost10wrapexceptISt12domain_errorE7rethrowEv @ 846
;	boost::wrapexcept<std::runtime_error>::clone() const
	_ZNK5boost10wrapexceptISt13runtime_errorE5cloneEv @ 847
;	boost::wrapexcept<std::runtime_error>::rethrow() const
	_ZNK5boost10wrapexceptISt13runtime_errorE7rethrowEv @ 848
;	boost::wrapexcept<std::overflow_error>::clone() const
	_ZNK5boost10wrapexceptISt14overflow_errorE5cloneEv @ 849
;	boost::wrapexcept<std::overflow_error>::rethrow() const
	_ZNK5boost10wrapexceptISt14overflow_errorE7rethrowEv @ 850
;	boost::wrapexcept<std::invalid_argument>::clone() const
	_ZNK5boost10wrapexceptISt16invalid_argumentE5cloneEv @ 851
;	boost::wrapexcept<std::invalid_argument>::rethrow() const
	_ZNK5boost10wrapexceptISt16invalid_argumentE7rethrowEv @ 852
;	boost::re_detail_500::named_subexpressions::get_id(int) const
	_ZNK5boost13re_detail_50020named_subexpressions6get_idEi @ 853
;	boost::re_detail_500::cpp_regex_traits_implementation<char>::error_string[abi:cxx11](boost::regex_constants::error_type) const
	_ZNK5boost13re_detail_50031cpp_regex_traits_implementationIcE12error_stringB5cxx11ENS_15regex_constants10error_typeE @ 854
;	boost::re_detail_500::cpp_regex_traits_implementation<char>::lookup_classname(char const*, char const*) const
	_ZNK5boost13re_detail_50031cpp_regex_traits_implementationIcE16lookup_classnameEPKcS4_ @ 855
;	boost::re_detail_500::cpp_regex_traits_implementation<char>::transform_primary[abi:cxx11](char const*, char const*) const
	_ZNK5boost13re_detail_50031cpp_regex_traits_implementationIcE17transform_primaryB5cxx11EPKcS4_ @ 856
;	boost::re_detail_500::cpp_regex_traits_implementation<char>::lookup_collatename[abi:cxx11](char const*, char const*) const
	_ZNK5boost13re_detail_50031cpp_regex_traits_implementationIcE18lookup_collatenameB5cxx11EPKcS4_ @ 857
;	boost::re_detail_500::cpp_regex_traits_implementation<char>::lookup_classname_imp(char const*, char const*) const
	_ZNK5boost13re_detail_50031cpp_regex_traits_implementationIcE20lookup_classname_impEPKcS4_ @ 858
;	boost::re_detail_500::cpp_regex_traits_implementation<char>::transform[abi:cxx11](char const*, char const*) const
	_ZNK5boost13re_detail_50031cpp_regex_traits_implementationIcE9transformB5cxx11EPKcS4_ @ 859
;	boost::cpp_regex_traits<char>::isctype(char, unsigned int) const
	_ZNK5boost16cpp_regex_traitsIcE7isctypeEcj @ 860
;	bool boost::algorithm::detail::is_any_ofF<char>::operator()<char>(char) const
	_ZNK5boost9algorithm6detail10is_any_ofFIcEclIcEEbT_ @ 861
;	bs_model::model_info() const
	_ZNK8bs_model10model_infoEv @ 862
;	bs_model::log_density(bool, bool, double const*, double*) const
	_ZNK8bs_model11log_densityEbbPKdPd @ 863
;	bs_model::param_names(bool, bool) const
	_ZNK8bs_model11param_namesEbb @ 864
;	bs_model::param_unc_num() const
	_ZNK8bs_model13param_unc_numEv @ 865
;	bs_model::param_constrain(bool, bool, double const*, double*, boost::random::mixmax_engine<17, 36u, 0ll>&) const
	_ZNK8bs_model15param_constrainEbbPKdPdRN5boost6random13mixmax_engineILi17ELj36ELx0EEE @ 866
;	bs_model::param_unc_names() const
	_ZNK8bs_model15param_unc_namesEv @ 867
;	bs_model::make_model_lambda(bool, bool) const
	_ZNK8bs_model17make_model_lambdaEbb @ 868
;	bs_model::param_unconstrain(double const*, double*) const
	_ZNK8bs_model17param_unconstrainEPKdPd @ 869
;	bs_model::log_density_hessian(bool, bool, double const*, double*, double*, double*) const
	_ZNK8bs_model19log_density_hessianEbbPKdPdS2_S2_ @ 870
;	bs_model::log_density_gradient(bool, bool, double const*, double*, double*) const
	_ZNK8bs_model20log_density_gradientEbbPKdPdS2_ @ 871
;	bs_model::param_unconstrain_json(char const*, double*) const
	_ZNK8bs_model22param_unconstrain_jsonEPKcPd @ 872
;	bs_model::log_density_hessian_vector_product(bool, bool, double const*, double const*, double*, double*) const
	_ZNK8bs_model34log_density_hessian_vector_productEbbPKdS1_PdS2_ @ 873
;	bs_model::name() const
	_ZNK8bs_model4nameEv @ 874
;	bs_model::param_num(bool, bool) const
	_ZNK8bs_model9param_numEbb @ 875
;	__gnu_cxx::__concurrence_lock_error::what() const
	_ZNK9__gnu_cxx24__concurrence_lock_error4whatEv @ 876
;	__gnu_cxx::__concurrence_wait_error::what() const
	_ZNK9__gnu_cxx24__concurrence_wait_error4whatEv @ 877
;	__gnu_cxx::__concurrence_unlock_error::what() const
	_ZNK9__gnu_cxx26__concurrence_unlock_error4whatEv @ 878
;	__gnu_cxx::__concurrence_broadcast_error::what() const
	_ZNK9__gnu_cxx29__concurrence_broadcast_error4whatEv @ 879
;	rapidjson::ParseResult::IsError() const
	_ZNK9rapidjson11ParseResult7IsErrorEv @ 880
;	std::basic_string<wchar_t, std::char_traits<wchar_t>, std::allocator<wchar_t> >::_M_disjunct(wchar_t const*) const
	_ZNKSbIwSt11char_traitsIwESaIwEE11_M_disjunctEPKw @ 881
;	std::basic_string<wchar_t, std::char_traits<wchar_t>, std::allocator<wchar_t> >::find_last_of(wchar_t const*, unsigned long long) const
	_ZNKSbIwSt11char_traitsIwESaIwEE12find_last_ofEPKwy @ 882
;	std::basic_string<wchar_t, std::char_traits<wchar_t>, std::allocator<wchar_t> >::find_last_of(wchar_t const*, unsigned long long, unsigned long long) const
	_ZNKSbIwSt11char_traitsIwESaIwEE12find_last_ofEPKwyy @ 883
;	std::basic_string<wchar_t, std::char_traits<wchar_t>, std::allocator<wchar_t> >::find_last_of(std::basic_string<wchar_t, std::char_traits<wchar_t>, std::allocator<wchar_t> > const&, unsigned long long) const
	_ZNKSbIwSt11char_traitsIwESaIwEE12find_last_ofERKS2_y @ 884
;	std::basic_string<wchar_t, std::char_traits<wchar_t>, std::allocator<wchar_t> >::find_last_of(wchar_t, unsigned long long) const
	_ZNKSbIwSt11char_traitsIwESaIwEE12find_last_ofEwy @ 885
;	std::basic_string<wchar_t, std::char_traits<wchar_t>, std::allocator<wchar_t> >::find_first_of(wchar_t const*, unsigned long long) const
	_ZNKSbIwSt11char_traitsIwESaIwEE13find_first_ofEPKwy @ 886
;	std::basic_string<wchar_t, std::char_traits<wchar_t>, std::allocator<wchar_t> >::find_first_of(wchar_t const*, unsigned long long, unsigned long long) const
	_ZNKSbIwSt11char_traitsIwESaIwEE13find_first_ofEPKwyy @ 887
;	std::basic_string<wchar_t, std::char_traits<wchar_t>, std::allocator<wchar_t> >::find_first_of(std::basic_string<wchar_t, std::char_traits<wchar_t>, std::allocator<wchar_t> > const&, unsigned long long) const
	_ZNKSbIwSt11char_traitsIwESaIwEE13find_first_ofERKS2_y @ 888
;	std::basic_string<wchar_t, std::char_traits<wchar_t>, std::allocator<wchar_t> >::find_first_of(wchar_t, unsigned long long) const
	_ZNKSbIwSt11char_traitsIwESaIwEE13find_first_ofEwy @ 889
;	std::basic_string<wchar_t, std::char_traits<wchar_t>, std::allocator<wchar_t> >::get_allocator() const
	_ZNKSbIwSt11char_traitsIwESaIwEE13get_allocatorEv @ 890
;	std::basic_string<wchar_t, std::char_traits<wchar_t>, std::allocator<wchar_t> >::_M_check_length(unsigned long long, unsigned long long, char const*) const
	_ZNKSbIwSt11char_traitsIwESaIwEE15_M_check_lengthEyyPKc @ 891
;	std::basic_string<wchar_t, std::char_traits<wchar_t>, std::allocator<wchar_t> >::find_last_not_of(wchar_t const*, unsigned long long) const
	_ZNKSbIwSt11char_traitsIwESaIwEE16find_last_not_ofEPKwy @ 892
;	std::basic_string<wchar_t, std::char_traits<wchar_t>, std::allocator<wchar_t> >::find_last_not_of(wchar_t const*, unsigned long long, unsigned long long) const
	_ZNKSbIwSt11char_traitsIwESaIwEE16find_last_not_ofEPKwyy @ 893
;	std::basic_string<wchar_t, std::char_traits<wchar_t>, std::allocator<wchar_t> >::find_last_not_of(std::basic_string<wchar_t, std::char_traits<wchar_t>, std::allocator<wchar_t> > const&, unsigned long long) const
	_ZNKSbIwSt11char_traitsIwESaIwEE16find_last_not_ofERKS2_y @ 894
;	std::basic_string<wchar_t, std::char_traits<wchar_t>, std::allocator<wchar_t> >::find_last_not_of(wchar_t, unsigned long long) const
	_ZNKSbIwSt11char_traitsIwESaIwEE16find_last_not_ofEwy @ 895
;	std::basic_string<wchar_t, std::char_traits<wchar_t>, std::allocator<wchar_t> >::find_first_not_of(wchar_t const*, unsigned long long) const
	_ZNKSbIwSt11char_traitsIwESaIwEE17find_first_not_ofEPKwy @ 896
;	std::basic_string<wchar_t, std::char_traits<wchar_t>, std::allocator<wchar_t> >::find_first_not_of(wchar_t const*, unsigned long long, unsigned long long) const
	_ZNKSbIwSt11char_traitsIwESaIwEE17find_first_not_ofEPKwyy @ 897
;	std::basic_string<wchar_t, std::char_traits<wchar_t>, std::allocator<wchar_t> >::find_first_not_of(std::basic_string<wchar_t, std::char_traits<wchar_t>, std::allocator<wchar_t> > const&, unsigned long long) const
	_ZNKSbIwSt11char_traitsIwESaIwEE17find_first_not_ofERKS2_y @ 898
;	std::basic_string<wchar_t, std::char_traits<wchar_t>, std::allocator<wchar_t> >::find_first_not_of(wchar_t, unsigned long long) const
	_ZNKSbIwSt11char_traitsIwESaIwEE17find_first_not_ofEwy @ 899
;	std::basic_string<wchar_t, std::char_traits<wchar_t>, std::allocator<wchar_t> >::at(unsigned long long) const
	_ZNKSbIwSt11char_traitsIwESaIwEE2atEy @ 900
;	std::basic_string<wchar_t, std::char_traits<wchar_t>, std::allocator<wchar_t> >::end() const
	_ZNKSbIwSt11char_traitsIwESaIwEE3endEv @ 901
;	std::basic_string<wchar_t, std::char_traits<wchar_t>, std::allocator<wchar_t> >::_Rep::_M_is_leaked() const
	_ZNKSbIwSt11char_traitsIwESaIwEE4_Rep12_M_is_leakedEv @ 902
;	std::basic_string<wchar_t, std::char_traits<wchar_t>, std::allocator<wchar_t> >::_Rep::_M_is_shared() const
	_ZNKSbIwSt11char_traitsIwESaIwEE4_Rep12_M_is_sharedEv @ 903
;	std::basic_string<wchar_t, std::char_traits<wchar_t>, std::allocator<wchar_t> >::back() const
	_ZNKSbIwSt11char_traitsIwESaIwEE4backEv @ 904
;	std::basic_string<wchar_t, std::char_traits<wchar_t>, std::allocator<wchar_t> >::cend() const
	_ZNKSbIwSt11char_traitsIwESaIwEE4cendEv @ 905
;	std::basic_string<wchar_t, std::char_traits<wchar_t>, std::allocator<wchar_t> >::copy(wchar_t*, unsigned long long, unsigned long long) const
	_ZNKSbIwSt11char_traitsIwESaIwEE4copyEPwyy @ 906
;	std::basic_string<wchar_t, std::char_traits<wchar_t>, std::allocator<wchar_t> >::data() const
	_ZNKSbIwSt11char_traitsIwESaIwEE4dataEv @ 907
;	std::basic_string<wchar_t, std::char_traits<wchar_t>, std::allocator<wchar_t> >::find(wchar_t const*, unsigned long long) const
	_ZNKSbIwSt11char_traitsIwESaIwEE4findEPKwy @ 908
;	std::basic_string<wchar_t, std::char_traits<wchar_t>, std::allocator<wchar_t> >::find(wchar_t const*, unsigned long long, unsigned long long) const
	_ZNKSbIwSt11char_traitsIwESaIwEE4findEPKwyy @ 909
;	std::basic_string<wchar_t, std::char_traits<wchar_t>, std::allocator<wchar_t> >::find(std::basic_string<wchar_t, std::char_traits<wchar_t>, std::allocator<wchar_t> > const&, unsigned long long) const
	_ZNKSbIwSt11char_traitsIwESaIwEE4findERKS2_y @ 910
;	std::basic_string<wchar_t, std::char_traits<wchar_t>, std::allocator<wchar_t> >::find(wchar_t, unsigned long long) const
	_ZNKSbIwSt11char_traitsIwESaIwEE4findEwy @ 911
;	std::basic_string<wchar_t, std::char_traits<wchar_t>, std::allocator<wchar_t> >::rend() const
	_ZNKSbIwSt11char_traitsIwESaIwEE4rendEv @ 912
;	std::basic_string<wchar_t, std::char_traits<wchar_t>, std::allocator<wchar_t> >::size() const
	_ZNKSbIwSt11char_traitsIwESaIwEE4sizeEv @ 913
;	std::basic_string<wchar_t, std::char_traits<wchar_t>, std::allocator<wchar_t> >::begin() const
	_ZNKSbIwSt11char_traitsIwESaIwEE5beginEv @ 914
;	std::basic_string<wchar_t, std::char_traits<wchar_t>, std::allocator<wchar_t> >::c_str() const
	_ZNKSbIwSt11char_traitsIwESaIwEE5c_strEv @ 915
;	std::basic_string<wchar_t, std::char_traits<wchar_t>, std::allocator<wchar_t> >::crend() const
	_ZNKSbIwSt11char_traitsIwESaIwEE5crendEv @ 916
;	std::basic_string<wchar_t, std::char_traits<wchar_t>, std::allocator<wchar_t> >::empty() const
	_ZNKSbIwSt11char_traitsIwESaIwEE5emptyEv @ 917
;	std::basic_string<wchar_t, std::char_traits<wchar_t>, std::allocator<wchar_t> >::front() const
	_ZNKSbIwSt11char_traitsIwESaIwEE5frontEv @ 918
;	std::basic_string<wchar_t, std::char_traits<wchar_t>, std::allocator<wchar_t> >::rfind(wchar_t const*, unsigned long long) const
	_ZNKSbIwSt11char_traitsIwESaIwEE5rfindEPKwy @ 919
;	std::basic_string<wchar_t, std::char_traits<wchar_t>, std::allocator<wchar_t> >::rfind(wchar_t const*, unsigned long long, unsigned long long) const
	_ZNKSbIwSt11char_traitsIwESaIwEE5rfindEPKwyy @ 920
;	std::basic_string<wchar_t, std::char_traits<wchar_t>, std::allocator<wchar_t> >::rfind(std::basic_string<wchar_t, std::char_traits<wchar_t>, std::allocator<wchar_t> > const&, unsigned long long) const
	_ZNKSbIwSt11char_traitsIwESaIwEE5rfindERKS2_y @ 921
;	std::basic_string<wchar_t, std::char_traits<wchar_t>, std::allocator<wchar_t> >::rfind(wchar_t, unsigned long long) const
	_ZNKSbIwSt11char_traitsIwESaIwEE5rfindEwy @ 922
;	std::basic_string<wchar_t, std::char_traits<wchar_t>, std::allocator<wchar_t> >::_M_rep() const
	_ZNKSbIwSt11char_traitsIwESaIwEE6_M_repEv @ 923
;	std::basic_string<wchar_t, std::char_traits<wchar_t>, std::allocator<wchar_t> >::cbegin() const
	_ZNKSbIwSt11char_traitsIwESaIwEE6cbeginEv @ 924
;	std::basic_string<wchar_t, std::char_traits<wchar_t>, std::allocator<wchar_t> >::length() const
	_ZNKSbIwSt11char_traitsIwESaIwEE6lengthEv @ 925
;	std::basic_string<wchar_t, std::char_traits<wchar_t>, std::allocator<wchar_t> >::rbegin() const
	_ZNKSbIwSt11char_traitsIwESaIwEE6rbeginEv @ 926
;	std::basic_string<wchar_t, std::char_traits<wchar_t>, std::allocator<wchar_t> >::substr(unsigned long long, unsigned long long) const
	_ZNKSbIwSt11char_traitsIwESaIwEE6substrEyy @ 927
;	std::basic_string<wchar_t, std::char_traits<wchar_t>, std::allocator<wchar_t> >::_M_data() const
	_ZNKSbIwSt11char_traitsIwESaIwEE7_M_dataEv @ 928
;	std::basic_string<wchar_t, std::char_traits<wchar_t>, std::allocator<wchar_t> >::_M_iend() const
	_ZNKSbIwSt11char_traitsIwESaIwEE7_M_iendEv @ 929
;	std::basic_string<wchar_t, std::char_traits<wchar_t>, std::allocator<wchar_t> >::compare(wchar_t const*) const
	_ZNKSbIwSt11char_traitsIwESaIwEE7compareEPKw @ 930
;	std::basic_string<wchar_t, std::char_traits<wchar_t>, std::allocator<wchar_t> >::compare(std::basic_string<wchar_t, std::char_traits<wchar_t>, std::allocator<wchar_t> > const&) const
	_ZNKSbIwSt11char_traitsIwESaIwEE7compareERKS2_ @ 931
;	std::basic_string<wchar_t, std::char_traits<wchar_t>, std::allocator<wchar_t> >::compare(unsigned long long, unsigned long long, wchar_t const*) const
	_ZNKSbIwSt11char_traitsIwESaIwEE7compareEyyPKw @ 932
;	std::basic_string<wchar_t, std::char_traits<wchar_t>, std::allocator<wchar_t> >::compare(unsigned long long, unsigned long long, wchar_t const*, unsigned long long) const
	_ZNKSbIwSt11char_traitsIwESaIwEE7compareEyyPKwy @ 933
;	std::basic_string<wchar_t, std::char_traits<wchar_t>, std::allocator<wchar_t> >::compare(unsigned long long, unsigned long long, std::basic_string<wchar_t, std::char_traits<wchar_t>, std::allocator<wchar_t> > const&) const
	_ZNKSbIwSt11char_traitsIwESaIwEE7compareEyyRKS2_ @ 934
;	std::basic_string<wchar_t, std::char_traits<wchar_t>, std::allocator<wchar_t> >::compare(unsigned long long, unsigned long long, std::basic_string<wchar_t, std::char_traits<wchar_t>, std::allocator<wchar_t> > const&, unsigned long long, unsigned long long) const
	_ZNKSbIwSt11char_traitsIwESaIwEE7compareEyyRKS2_yy @ 935
;	std::basic_string<wchar_t, std::char_traits<wchar_t>, std::allocator<wchar_t> >::crbegin() const
	_ZNKSbIwSt11char_traitsIwESaIwEE7crbeginEv @ 936
;	std::basic_string<wchar_t, std::char_traits<wchar_t>, std::allocator<wchar_t> >::_M_check(unsigned long long, char const*) const
	_ZNKSbIwSt11char_traitsIwESaIwEE8_M_checkEyPKc @ 937
;	std::basic_string<wchar_t, std::char_traits<wchar_t>, std::allocator<wchar_t> >::_M_limit(unsigned long long, unsigned long long) const
	_ZNKSbIwSt11char_traitsIwESaIwEE8_M_limitEyy @ 938
;	std::basic_string<wchar_t, std::char_traits<wchar_t>, std::allocator<wchar_t> >::capacity() const
	_ZNKSbIwSt11char_traitsIwESaIwEE8capacityEv @ 939
;	std::basic_string<wchar_t, std::char_traits<wchar_t>, std::allocator<wchar_t> >::max_size() const
	_ZNKSbIwSt11char_traitsIwESaIwEE8max_sizeEv @ 940
;	std::basic_string<wchar_t, std::char_traits<wchar_t>, std::allocator<wchar_t> >::_M_ibegin() const
	_ZNKSbIwSt11char_traitsIwESaIwEE9_M_ibeginEv @ 941
;	std::basic_string<wchar_t, std::char_traits<wchar_t>, std::allocator<wchar_t> >::operator[](unsigned long long) const
	_ZNKSbIwSt11char_traitsIwESaIwEEixEy @ 942
;	std::istream::gcount() const
	_ZNKSi6gcountEv @ 943
;	std::istream::sentry::operator bool() const
	_ZNKSi6sentrycvbEv @ 944
;	std::ostream::sentry::operator bool() const
	_ZNKSo6sentrycvbEv @ 945
;	std::string::_M_disjunct(char const*) const
	_ZNKSs11_M_disjunctEPKc @ 946
;	std::string::find_last_of(char const*, unsigned long long) const
	_ZNKSs12find_last_ofEPKcy @ 947
;	std::string::find_last_of(char const*, unsigned long long, unsigned long long) const
	_ZNKSs12find_last_ofEPKcyy @ 948
;	std::string::find_last_of(std::string const&, unsigned long long) const
	_ZNKSs12find_last_ofERKSsy @ 949
;	std::string::find_last_of(char, unsigned long long) const
	_ZNKSs12find_last_ofEcy @ 950
;	std::string::find_first_of(char const*, unsigned long long) const
	_ZNKSs13find_first_ofEPKcy @ 951
;	std::string::find_first_of(char const*, unsigned long long, unsigned long long) const
	_ZNKSs13find_first_ofEPKcyy @ 952
;	std::string::find_first_of(std::string const&, unsigned long long) const
	_ZNKSs13find_first_ofERKSsy @ 953
;	std::string::find_first_of(char, unsigned long long) const
	_ZNKSs13find_first_ofEcy @ 954
;	std::string::get_allocator() const
	_ZNKSs13get_allocatorEv @ 955
;	std::string::_M_check_length(unsigned long long, unsigned long long, char const*) const
	_ZNKSs15_M_check_lengthEyyPKc @ 956
;	std::string::find_last_not_of(char const*, unsigned long long) const
	_ZNKSs16find_last_not_ofEPKcy @ 957
;	std::string::find_last_not_of(char const*, unsigned long long, unsigned long long) const
	_ZNKSs16find_last_not_ofEPKcyy @ 958
;	std::string::find_last_not_of(std::string const&, unsigned long long) const
	_ZNKSs16find_last_not_ofERKSsy @ 959
;	std::string::find_last_not_of(char, unsigned long long) const
	_ZNKSs16find_last_not_ofEcy @ 960
;	std::string::find_first_not_of(char const*, unsigned long long) const
	_ZNKSs17find_first_not_ofEPKcy @ 961
;	std::string::find_first_not_of(char const*, unsigned long long, unsigned long long) const
	_ZNKSs17find_first_not_ofEPKcyy @ 962
;	std::string::find_first_not_of(std::string const&, unsigned long long) const
	_ZNKSs17find_first_not_ofERKSsy @ 963
;	std::string::find_first_not_of(char, unsigned long long) const
	_ZNKSs17find_first_not_ofEcy @ 964
;	std::string::at(unsigned long long) const
	_ZNKSs2atEy @ 965
;	std::string::end() const
	_ZNKSs3endEv @ 966
;	std::string::_Rep::_M_is_leaked() const
	_ZNKSs4_Rep12_M_is_leakedEv @ 967
;	std::string::_Rep::_M_is_shared() const
	_ZNKSs4_Rep12_M_is_sharedEv @ 968
;	std::string::back() const
	_ZNKSs4backEv @ 969
;	std::string::cend() const
	_ZNKSs4cendEv @ 970
;	std::string::copy(char*, unsigned long long, unsigned long long) const
	_ZNKSs4copyEPcyy @ 971
;	std::string::data() const
	_ZNKSs4dataEv @ 972
;	std::string::find(char const*, unsigned long long) const
	_ZNKSs4findEPKcy @ 973
;	std::string::find(char const*, unsigned long long, unsigned long long) const
	_ZNKSs4findEPKcyy @ 974
;	std::string::find(std::string const&, unsigned long long) const
	_ZNKSs4findERKSsy @ 975
;	std::string::find(char, unsigned long long) const
	_ZNKSs4findEcy @ 976
;	std::string::rend() const
	_ZNKSs4rendEv @ 977
;	std::string::size() const
	_ZNKSs4sizeEv @ 978
;	std::string::begin() const
	_ZNKSs5beginEv @ 979
;	std::string::c_str() const
	_ZNKSs5c_strEv @ 980
;	std::string::crend() const
	_ZNKSs5crendEv @ 981
;	std::string::empty() const
	_ZNKSs5emptyEv @ 982
;	std::string::front() const
	_ZNKSs5frontEv @ 983
;	std::string::rfind(char const*, unsigned long long) const
	_ZNKSs5rfindEPKcy @ 984
;	std::string::rfind(char const*, unsigned long long, unsigned long long) const
	_ZNKSs5rfindEPKcyy @ 985
;	std::string::rfind(std::string const&, unsigned long long) const
	_ZNKSs5rfindERKSsy @ 986
;	std::string::rfind(char, unsigned long long) const
	_ZNKSs5rfindEcy @ 987
;	std::string::_M_rep() const
	_ZNKSs6_M_repEv @ 988
;	std::string::cbegin() const
	_ZNKSs6cbeginEv @ 989
;	std::string::length() const
	_ZNKSs6lengthEv @ 990
;	std::string::rbegin() const
	_ZNKSs6rbeginEv @ 991
;	std::string::substr(unsigned long long, unsigned long long) const
	_ZNKSs6substrEyy @ 992
;	std::string::_M_data() const
	_ZNKSs7_M_dataEv @ 993
;	std::string::_M_iend() const
	_ZNKSs7_M_iendEv @ 994
;	std::string::compare(char const*) const
	_ZNKSs7compareEPKc @ 995
;	std::string::compare(std::string const&) const
	_ZNKSs7compareERKSs @ 996
;	std::string::compare(unsigned long long, unsigned long long, char const*) const
	_ZNKSs7compareEyyPKc @ 997
;	std::string::compare(unsigned long long, unsigned long long, char const*, unsigned long long) const
	_ZNKSs7compareEyyPKcy @ 998
;	std::string::compare(unsigned long long, unsigned long long, std::string const&) const
	_ZNKSs7compareEyyRKSs @ 999
;	std::string::compare(unsigned long long, unsigned long long, std::string const&, unsigned long long, unsigned long long) const
	_ZNKSs7compareEyyRKSsyy @ 1000
;	std::string::crbegin() const
	_ZNKSs7crbeginEv @ 1001
;	std::string::_M_check(unsigned long long, char const*) const
	_ZNKSs8_M_checkEyPKc @ 1002
;	std::string::_M_limit(unsigned long long, unsigned long long) const
	_ZNKSs8_M_limitEyy @ 1003
;	std::string::capacity() const
	_ZNKSs8capacityEv @ 1004
;	std::string::max_size() const
	_ZNKSs8max_sizeEv @ 1005
;	std::string::_M_ibegin() const
	_ZNKSs9_M_ibeginEv @ 1006
;	std::string::operator[](unsigned long long) const
	_ZNKSsixEy @ 1007
;	std::bad_typeid::what() const
	_ZNKSt10bad_typeid4whatEv @ 1008
;	std::error_code::default_error_condition() const
	_ZNKSt10error_code23default_error_conditionEv @ 1009
;	std::moneypunct<char, false>::neg_format() const
	_ZNKSt10moneypunctIcLb0EE10neg_formatEv @ 1010
;	std::moneypunct<char, false>::pos_format() const
	_ZNKSt10moneypunctIcLb0EE10pos_formatEv @ 1011
;	std::moneypunct<char, false>::curr_symbol() const
	_ZNKSt10moneypunctIcLb0EE11curr_symbolEv @ 1012
;	std::moneypunct<char, false>::do_grouping() const
	_ZNKSt10moneypunctIcLb0EE11do_groupingEv @ 1013
;	std::moneypunct<char, false>::frac_digits() const
	_ZNKSt10moneypunctIcLb0EE11frac_digitsEv @ 1014
;	std::moneypunct<char, false>::decimal_point() const
	_ZNKSt10moneypunctIcLb0EE13decimal_pointEv @ 1015
;	std::moneypunct<char, false>::do_neg_format() const
	_ZNKSt10moneypunctIcLb0EE13do_neg_formatEv @ 1016
;	std::moneypunct<char, false>::do_pos_format() const
	_ZNKSt10moneypunctIcLb0EE13do_pos_formatEv @ 1017
;	std::moneypunct<char, false>::negative_sign() const
	_ZNKSt10moneypunctIcLb0EE13negative_signEv @ 1018
;	std::moneypunct<char, false>::positive_sign() const
	_ZNKSt10moneypunctIcLb0EE13positive_signEv @ 1019
;	std::moneypunct<char, false>::thousands_sep() const
	_ZNKSt10moneypunctIcLb0EE13thousands_sepEv @ 1020
;	std::moneypunct<char, false>::do_curr_symbol() const
	_ZNKSt10moneypunctIcLb0EE14do_curr_symbolEv @ 1021
;	std::moneypunct<char, false>::do_frac_digits() const
	_ZNKSt10moneypunctIcLb0EE14do_frac_digitsEv @ 1022
;	std::moneypunct<char, false>::do_decimal_point() const
	_ZNKSt10moneypunctIcLb0EE16do_decimal_pointEv @ 1023
;	std::moneypunct<char, false>::do_negative_sign() const
	_ZNKSt10moneypunctIcLb0EE16do_negative_signEv @ 1024
;	std::moneypunct<char, false>::do_positive_sign() const
	_ZNKSt10moneypunctIcLb0EE16do_positive_signEv @ 1025
;	std::moneypunct<char, false>::do_thousands_sep() const
	_ZNKSt10moneypunctIcLb0EE16do_thousands_sepEv @ 1026
;	std::moneypunct<char, false>::grouping() const
	_ZNKSt10moneypunctIcLb0EE8groupingEv @ 1027
;	std::moneypunct<char, true>::neg_format() const
	_ZNKSt10moneypunctIcLb1EE10neg_formatEv @ 1028
;	std::moneypunct<char, true>::pos_format() const
	_ZNKSt10moneypunctIcLb1EE10pos_formatEv @ 1029
;	std::moneypunct<char, true>::curr_symbol() const
	_ZNKSt10moneypunctIcLb1EE11curr_symbolEv @ 1030
;	std::moneypunct<char, true>::do_grouping() const
	_ZNKSt10moneypunctIcLb1EE11do_groupingEv @ 1031
;	std::moneypunct<char, true>::frac_digits() const
	_ZNKSt10moneypunctIcLb1EE11frac_digitsEv @ 1032
;	std::moneypunct<char, true>::decimal_point() const
	_ZNKSt10moneypunctIcLb1EE13decimal_pointEv @ 1033
;	std::moneypunct<char, true>::do_neg_format() const
	_ZNKSt10moneypunctIcLb1EE13do_neg_formatEv @ 1034
;	std::moneypunct<char, true>::do_pos_format() const
	_ZNKSt10moneypunctIcLb1EE13do_pos_formatEv @ 1035
;	std::moneypunct<char, true>::negative_sign() const
	_ZNKSt10moneypunctIcLb1EE13negative_signEv @ 1036
;	std::moneypunct<char, true>::positive_sign() const
	_ZNKSt10moneypunctIcLb1EE13positive_signEv @ 1037
;	std::moneypunct<char, true>::thousands_sep() const
	_ZNKSt10moneypunctIcLb1EE13thousands_sepEv @ 1038
;	std::moneypunct<char, true>::do_curr_symbol() const
	_ZNKSt10moneypunctIcLb1EE14do_curr_symbolEv @ 1039
;	std::moneypunct<char, true>::do_frac_digits() const
	_ZNKSt10moneypunctIcLb1EE14do_frac_digitsEv @ 1040
;	std::moneypunct<char, true>::do_decimal_point() const
	_ZNKSt10moneypunctIcLb1EE16do_decimal_pointEv @ 1041
;	std::moneypunct<char, true>::do_negative_sign() const
	_ZNKSt10moneypunctIcLb1EE16do_negative_signEv @ 1042
;	std::moneypunct<char, true>::do_positive_sign() const
	_ZNKSt10moneypunctIcLb1EE16do_positive_signEv @ 1043
;	std::moneypunct<char, true>::do_thousands_sep() const
	_ZNKSt10moneypunctIcLb1EE16do_thousands_sepEv @ 1044
;	std::moneypunct<char, true>::grouping() const
	_ZNKSt10moneypunctIcLb1EE8groupingEv @ 1045
;	std::moneypunct<wchar_t, false>::neg_format() const
	_ZNKSt10moneypunctIwLb0EE10neg_formatEv @ 1046
;	std::moneypunct<wchar_t, false>::pos_format() const
	_ZNKSt10moneypunctIwLb0EE10pos_formatEv @ 1047
;	std::moneypunct<wchar_t, false>::curr_symbol() const
	_ZNKSt10moneypunctIwLb0EE11curr_symbolEv @ 1048
;	std::moneypunct<wchar_t, false>::do_grouping() const
	_ZNKSt10moneypunctIwLb0EE11do_groupingEv @ 1049
;	std::moneypunct<wchar_t, false>::frac_digits() const
	_ZNKSt10moneypunctIwLb0EE11frac_digitsEv @ 1050
;	std::moneypunct<wchar_t, false>::decimal_point() const
	_ZNKSt10moneypunctIwLb0EE13decimal_pointEv @ 1051
;	std::moneypunct<wchar_t, false>::do_neg_format() const
	_ZNKSt10moneypunctIwLb0EE13do_neg_formatEv @ 1052
;	std::moneypunct<wchar_t, false>::do_pos_format() const
	_ZNKSt10moneypunctIwLb0EE13do_pos_formatEv @ 1053
;	std::moneypunct<wchar_t, false>::negative_sign() const
	_ZNKSt10moneypunctIwLb0EE13negative_signEv @ 1054
;	std::moneypunct<wchar_t, false>::positive_sign() const
	_ZNKSt10moneypunctIwLb0EE13positive_signEv @ 1055
;	std::moneypunct<wchar_t, false>::thousands_sep() const
	_ZNKSt10moneypunctIwLb0EE13thousands_sepEv @ 1056
;	std::moneypunct<wchar_t, false>::do_curr_symbol() const
	_ZNKSt10moneypunctIwLb0EE14do_curr_symbolEv @ 1057
;	std::moneypunct<wchar_t, false>::do_frac_digits() const
	_ZNKSt10moneypunctIwLb0EE14do_frac_digitsEv @ 1058
;	std::moneypunct<wchar_t, false>::do_decimal_point() const
	_ZNKSt10moneypunctIwLb0EE16do_decimal_pointEv @ 1059
;	std::moneypunct<wchar_t, false>::do_negative_sign() const
	_ZNKSt10moneypunctIwLb0EE16do_negative_signEv @ 1060
;	std::moneypunct<wchar_t, false>::do_positive_sign() const
	_ZNKSt10moneypunctIwLb0EE16do_positive_signEv @ 1061
;	std::moneypunct<wchar_t, false>::do_thousands_sep() const
	_ZNKSt10moneypunctIwLb0EE16do_thousands_sepEv @ 1062
;	std::moneypunct<wchar_t, false>::grouping() const
	_ZNKSt10moneypunctIwLb0EE8groupingEv @ 1063
;	std::moneypunct<wchar_t, true>::neg_format() const
	_ZNKSt10moneypunctIwLb1EE10neg_formatEv @ 1064
;	std::moneypunct<wchar_t, true>::pos_format() const
	_ZNKSt10moneypunctIwLb1EE10pos_formatEv @ 1065
;	std::moneypunct<wchar_t, true>::curr_symbol() const
	_ZNKSt10moneypunctIwLb1EE11curr_symbolEv @ 1066
;	std::moneypunct<wchar_t, true>::do_grouping() const
	_ZNKSt10moneypunctIwLb1EE11do_groupingEv @ 1067
;	std::moneypunct<wchar_t, true>::frac_digits() const
	_ZNKSt10moneypunctIwLb1EE11frac_digitsEv @ 1068
;	std::moneypunct<wchar_t, true>::decimal_point() const
	_ZNKSt10moneypunctIwLb1EE13decimal_pointEv @ 1069
;	std::moneypunct<wchar_t, true>::do_neg_format() const
	_ZNKSt10moneypunctIwLb1EE13do_neg_formatEv @ 1070
;	std::moneypunct<wchar_t, true>::do_pos_format() const
	_ZNKSt10moneypunctIwLb1EE13do_pos_formatEv @ 1071
;	std::moneypunct<wchar_t, true>::negative_sign() const
	_ZNKSt10moneypunctIwLb1EE13negative_signEv @ 1072
;	std::moneypunct<wchar_t, true>::positive_sign() const
	_ZNKSt10moneypunctIwLb1EE13positive_signEv @ 1073
;	std::moneypunct<wchar_t, true>::thousands_sep() const
	_ZNKSt10moneypunctIwLb1EE13thousands_sepEv @ 1074
;	std::moneypunct<wchar_t, true>::do_curr_symbol() const
	_ZNKSt10moneypunctIwLb1EE14do_curr_symbolEv @ 1075
;	std::moneypunct<wchar_t, true>::do_frac_digits() const
	_ZNKSt10moneypunctIwLb1EE14do_frac_digitsEv @ 1076
;	std::moneypunct<wchar_t, true>::do_decimal_point() const
	_ZNKSt10moneypunctIwLb1EE16do_decimal_pointEv @ 1077
;	std::moneypunct<wchar_t, true>::do_negative_sign() const
	_ZNKSt10moneypunctIwLb1EE16do_negative_signEv @ 1078
;	std::moneypunct<wchar_t, true>::do_positive_sign() const
	_ZNKSt10moneypunctIwLb1EE16do_positive_signEv @ 1079
;	std::moneypunct<wchar_t, true>::do_thousands_sep() const
	_ZNKSt10moneypunctIwLb1EE16do_thousands_sepEv @ 1080
;	std::moneypunct<wchar_t, true>::grouping() const
	_ZNKSt10moneypunctIwLb1EE8groupingEv @ 1081
;	std::__timepunct<char>::_M_am_pm_format(char const*) const
	_ZNKSt11__timepunctIcE15_M_am_pm_formatEPKc @ 1082
;	std::__timepunct<char>::_M_am_pm_format(char const**) const
	_ZNKSt11__timepunctIcE15_M_am_pm_formatEPPKc @ 1083
;	std::__timepunct<char>::_M_date_formats(char const**) const
	_ZNKSt11__timepunctIcE15_M_date_formatsEPPKc @ 1084
;	std::__timepunct<char>::_M_time_formats(char const**) const
	_ZNKSt11__timepunctIcE15_M_time_formatsEPPKc @ 1085
;	std::__timepunct<char>::_M_days_abbreviated(char const**) const
	_ZNKSt11__timepunctIcE19_M_days_abbreviatedEPPKc @ 1086
;	std::__timepunct<char>::_M_date_time_formats(char const**) const
	_ZNKSt11__timepunctIcE20_M_date_time_formatsEPPKc @ 1087
;	std::__timepunct<char>::_M_months_abbreviated(char const**) const
	_ZNKSt11__timepunctIcE21_M_months_abbreviatedEPPKc @ 1088
;	std::__timepunct<char>::_M_put(char*, unsigned long long, char const*, tm const*) const
	_ZNKSt11__timepunctIcE6_M_putEPcyPKcPK2tm @ 1089
;	std::__timepunct<char>::_M_days(char const**) const
	_ZNKSt11__timepunctIcE7_M_daysEPPKc @ 1090
;	std::__timepunct<char>::_M_am_pm(char const**) const
	_ZNKSt11__timepunctIcE8_M_am_pmEPPKc @ 1091
;	std::__timepunct<char>::_M_months(char const**) const
	_ZNKSt11__timepunctIcE9_M_monthsEPPKc @ 1092
;	std::__timepunct<wchar_t>::_M_am_pm_format(wchar_t const*) const
	_ZNKSt11__timepunctIwE15_M_am_pm_formatEPKw @ 1093
;	std::__timepunct<wchar_t>::_M_am_pm_format(wchar_t const**) const
	_ZNKSt11__timepunctIwE15_M_am_pm_formatEPPKw @ 1094
;	std::__timepunct<wchar_t>::_M_date_formats(wchar_t const**) const
	_ZNKSt11__timepunctIwE15_M_date_formatsEPPKw @ 1095
;	std::__timepunct<wchar_t>::_M_time_formats(wchar_t const**) const
	_ZNKSt11__timepunctIwE15_M_time_formatsEPPKw @ 1096
;	std::__timepunct<wchar_t>::_M_days_abbreviated(wchar_t const**) const
	_ZNKSt11__timepunctIwE19_M_days_abbreviatedEPPKw @ 1097
;	std::__timepunct<wchar_t>::_M_date_time_formats(wchar_t const**) const
	_ZNKSt11__timepunctIwE20_M_date_time_formatsEPPKw @ 1098
;	std::__timepunct<wchar_t>::_M_months_abbreviated(wchar_t const**) const
	_ZNKSt11__timepunctIwE21_M_months_abbreviatedEPPKw @ 1099
;	std::__timepunct<wchar_t>::_M_put(wchar_t*, unsigned long long, wchar_t const*, tm const*) const
	_ZNKSt11__timepunctIwE6_M_putEPwyPKwPK2tm @ 1100
;	std::__timepunct<wchar_t>::_M_days(wchar_t const**) const
	_ZNKSt11__timepunctIwE7_M_daysEPPKw @ 1101
;	std::__timepunct<wchar_t>::_M_am_pm(wchar_t const**) const
	_ZNKSt11__timepunctIwE8_M_am_pmEPPKw @ 1102
;	std::__timepunct<wchar_t>::_M_months(wchar_t const**) const
	_ZNKSt11__timepunctIwE9_M_monthsEPPKw @ 1103
;	std::logic_error::what() const
	_ZNKSt11logic_error4whatEv @ 1104
;	std::__basic_file<char>::is_open() const
	_ZNKSt12__basic_fileIcE7is_openEv @ 1105
;	std::bad_exception::what() const
	_ZNKSt13bad_exception4whatEv @ 1106
;	std::basic_filebuf<char, std::char_traits<char> >::is_open() const
	_ZNKSt13basic_filebufIcSt11char_traitsIcEE7is_openEv @ 1107
;	std::basic_filebuf<wchar_t, std::char_traits<wchar_t> >::is_open() const
	_ZNKSt13basic_filebufIwSt11char_traitsIwEE7is_openEv @ 1108
;	std::basic_fstream<char, std::char_traits<char> >::rdbuf() const
	_ZNKSt13basic_fstreamIcSt11char_traitsIcEE5rdbufEv @ 1109
;	std::basic_fstream<char, std::char_traits<char> >::is_open() const
	_ZNKSt13basic_fstreamIcSt11char_traitsIcEE7is_openEv @ 1110
;	std::basic_fstream<wchar_t, std::char_traits<wchar_t> >::rdbuf() const
	_ZNKSt13basic_fstreamIwSt11char_traitsIwEE5rdbufEv @ 1111
;	std::basic_fstream<wchar_t, std::char_traits<wchar_t> >::is_open() const
	_ZNKSt13basic_fstreamIwSt11char_traitsIwEE7is_openEv @ 1112
;	std::basic_istream<wchar_t, std::char_traits<wchar_t> >::gcount() const
	_ZNKSt13basic_istreamIwSt11char_traitsIwEE6gcountEv @ 1113
;	std::basic_istream<wchar_t, std::char_traits<wchar_t> >::sentry::operator bool() const
	_ZNKSt13basic_istreamIwSt11char_traitsIwEE6sentrycvbEv @ 1114
;	std::basic_ostream<wchar_t, std::char_traits<wchar_t> >::sentry::operator bool() const
	_ZNKSt13basic_ostreamIwSt11char_traitsIwEE6sentrycvbEv @ 1115
;	std::random_device::_M_getentropy() const
	_ZNKSt13random_device13_M_getentropyEv @ 1116
;	std::runtime_error::what() const
	_ZNKSt13runtime_error4whatEv @ 1117
;	std::basic_ifstream<char, std::char_traits<char> >::rdbuf() const
	_ZNKSt14basic_ifstreamIcSt11char_traitsIcEE5rdbufEv @ 1118
;	std::basic_ifstream<char, std::char_traits<char> >::is_open() const
	_ZNKSt14basic_ifstreamIcSt11char_traitsIcEE7is_openEv @ 1119
;	std::basic_ifstream<wchar_t, std::char_traits<wchar_t> >::rdbuf() const
	_ZNKSt14basic_ifstreamIwSt11char_traitsIwEE5rdbufEv @ 1120
;	std::basic_ifstream<wchar_t, std::char_traits<wchar_t> >::is_open() const
	_ZNKSt14basic_ifstreamIwSt11char_traitsIwEE7is_openEv @ 1121
;	std::basic_ofstream<char, std::char_traits<char> >::rdbuf() const
	_ZNKSt14basic_ofstreamIcSt11char_traitsIcEE5rdbufEv @ 1122
;	std::basic_ofstream<char, std::char_traits<char> >::is_open() const
	_ZNKSt14basic_ofstreamIcSt11char_traitsIcEE7is_openEv @ 1123
;	std::basic_ofstream<wchar_t, std::char_traits<wchar_t> >::rdbuf() const
	_ZNKSt14basic_ofstreamIwSt11char_traitsIwEE5rdbufEv @ 1124
;	std::basic_ofstream<wchar_t, std::char_traits<wchar_t> >::is_open() const
	_ZNKSt14basic_ofstreamIwSt11char_traitsIwEE7is_openEv @ 1125
;	std::basic_streambuf<char, std::char_traits<char> >::gptr() const
	_ZNKSt15basic_streambufIcSt11char_traitsIcEE4gptrEv @ 1126
;	std::basic_streambuf<char, std::char_traits<char> >::pptr() const
	_ZNKSt15basic_streambufIcSt11char_traitsIcEE4pptrEv @ 1127
;	std::basic_streambuf<char, std::char_traits<char> >::eback() const
	_ZNKSt15basic_streambufIcSt11char_traitsIcEE5ebackEv @ 1128
;	std::basic_streambuf<char, std::char_traits<char> >::egptr() const
	_ZNKSt15basic_streambufIcSt11char_traitsIcEE5egptrEv @ 1129
;	std::basic_streambuf<char, std::char_traits<char> >::epptr() const
	_ZNKSt15basic_streambufIcSt11char_traitsIcEE5epptrEv @ 1130
;	std::basic_streambuf<char, std::char_traits<char> >::pbase() const
	_ZNKSt15basic_streambufIcSt11char_traitsIcEE5pbaseEv @ 1131
;	std::basic_streambuf<char, std::char_traits<char> >::getloc() const
	_ZNKSt15basic_streambufIcSt11char_traitsIcEE6getlocEv @ 1132
;	std::basic_streambuf<wchar_t, std::char_traits<wchar_t> >::gptr() const
	_ZNKSt15basic_streambufIwSt11char_traitsIwEE4gptrEv @ 1133
;	std::basic_streambuf<wchar_t, std::char_traits<wchar_t> >::pptr() const
	_ZNKSt15basic_streambufIwSt11char_traitsIwEE4pptrEv @ 1134
;	std::basic_streambuf<wchar_t, std::char_traits<wchar_t> >::eback() const
	_ZNKSt15basic_streambufIwSt11char_traitsIwEE5ebackEv @ 1135
;	std::basic_streambuf<wchar_t, std::char_traits<wchar_t> >::egptr() const
	_ZNKSt15basic_streambufIwSt11char_traitsIwEE5egptrEv @ 1136
;	std::basic_streambuf<wchar_t, std::char_traits<wchar_t> >::epptr() const
	_ZNKSt15basic_streambufIwSt11char_traitsIwEE5epptrEv @ 1137
;	std::basic_streambuf<wchar_t, std::char_traits<wchar_t> >::pbase() const
	_ZNKSt15basic_streambufIwSt11char_traitsIwEE5pbaseEv @ 1138
;	std::basic_streambuf<wchar_t, std::char_traits<wchar_t> >::getloc() const
	_ZNKSt15basic_streambufIwSt11char_traitsIwEE6getlocEv @ 1139
;	std::__codecvt_utf8_base<char32_t>::do_unshift(_Mbstatet&, char*, char*, char*&) const
	_ZNKSt19__codecvt_utf8_baseIDiE10do_unshiftER9_MbstatetPcS3_RS3_ @ 1140
;	std::__codecvt_utf8_base<char32_t>::do_encoding() const
	_ZNKSt19__codecvt_utf8_baseIDiE11do_encodingEv @ 1141
;	std::__codecvt_utf8_base<char32_t>::do_max_length() const
	_ZNKSt19__codecvt_utf8_baseIDiE13do_max_lengthEv @ 1142
;	std::__codecvt_utf8_base<char32_t>::do_always_noconv() const
	_ZNKSt19__codecvt_utf8_baseIDiE16do_always_noconvEv @ 1143
;	std::__codecvt_utf8_base<char32_t>::do_in(_Mbstatet&, char const*, char const*, char const*&, char32_t*, char32_t*, char32_t*&) const
	_ZNKSt19__codecvt_utf8_baseIDiE5do_inER9_MbstatetPKcS4_RS4_PDiS6_RS6_ @ 1144
;	std::__codecvt_utf8_base<char32_t>::do_out(_Mbstatet&, char32_t const*, char32_t const*, char32_t const*&, char*, char*, char*&) const
	_ZNKSt19__codecvt_utf8_baseIDiE6do_outER9_MbstatetPKDiS4_RS4_PcS6_RS6_ @ 1145
;	std::__codecvt_utf8_base<char32_t>::do_length(_Mbstatet&, char const*, char const*, unsigned long long) const
	_ZNKSt19__codecvt_utf8_baseIDiE9do_lengthER9_MbstatetPKcS4_y @ 1146
;	std::__codecvt_utf8_base<char16_t>::do_unshift(_Mbstatet&, char*, char*, char*&) const
	_ZNKSt19__codecvt_utf8_baseIDsE10do_unshiftER9_MbstatetPcS3_RS3_ @ 1147
;	std::__codecvt_utf8_base<char16_t>::do_encoding() const
	_ZNKSt19__codecvt_utf8_baseIDsE11do_encodingEv @ 1148
;	std::__codecvt_utf8_base<char16_t>::do_max_length() const
	_ZNKSt19__codecvt_utf8_baseIDsE13do_max_lengthEv @ 1149
;	std::__codecvt_utf8_base<char16_t>::do_always_noconv() const
	_ZNKSt19__codecvt_utf8_baseIDsE16do_always_noconvEv @ 1150
;	std::__codecvt_utf8_base<char16_t>::do_in(_Mbstatet&, char const*, char const*, char const*&, char16_t*, char16_t*, char16_t*&) const
	_ZNKSt19__codecvt_utf8_baseIDsE5do_inER9_MbstatetPKcS4_RS4_PDsS6_RS6_ @ 1151
;	std::__codecvt_utf8_base<char16_t>::do_out(_Mbstatet&, char16_t const*, char16_t const*, char16_t const*&, char*, char*, char*&) const
	_ZNKSt19__codecvt_utf8_baseIDsE6do_outER9_MbstatetPKDsS4_RS4_PcS6_RS6_ @ 1152
;	std::__codecvt_utf8_base<char16_t>::do_length(_Mbstatet&, char const*, char const*, unsigned long long) const
	_ZNKSt19__codecvt_utf8_baseIDsE9do_lengthER9_MbstatetPKcS4_y @ 1153
;	std::__codecvt_utf8_base<wchar_t>::do_unshift(_Mbstatet&, char*, char*, char*&) const
	_ZNKSt19__codecvt_utf8_baseIwE10do_unshiftER9_MbstatetPcS3_RS3_ @ 1154
;	std::__codecvt_utf8_base<wchar_t>::do_encoding() const
	_ZNKSt19__codecvt_utf8_baseIwE11do_encodingEv @ 1155
;	std::__codecvt_utf8_base<wchar_t>::do_max_length() const
	_ZNKSt19__codecvt_utf8_baseIwE13do_max_lengthEv @ 1156
;	std::__codecvt_utf8_base<wchar_t>::do_always_noconv() const
	_ZNKSt19__codecvt_utf8_baseIwE16do_always_noconvEv @ 1157
;	std::__codecvt_utf8_base<wchar_t>::do_in(_Mbstatet&, char const*, char const*, char const*&, wchar_t*, wchar_t*, wchar_t*&) const
	_ZNKSt19__codecvt_utf8_baseIwE5do_inER9_MbstatetPKcS4_RS4_PwS6_RS6_ @ 1158
;	std::__codecvt_utf8_base<wchar_t>::do_out(_Mbstatet&, wchar_t const*, wchar_t const*, wchar_t const*&, char*, char*, char*&) const
	_ZNKSt19__codecvt_utf8_baseIwE6do_outER9_MbstatetPKwS4_RS4_PcS6_RS6_ @ 1159
;	std::__codecvt_utf8_base<wchar_t>::do_length(_Mbstatet&, char const*, char const*, unsigned long long) const
	_ZNKSt19__codecvt_utf8_baseIwE9do_lengthER9_MbstatetPKcS4_y @ 1160
;	std::__iosfail_type_info::__do_upcast(__cxxabiv1::__class_type_info const*, void**) const
	_ZNKSt19__iosfail_type_info11__do_upcastEPKN10__cxxabiv117__class_type_infoEPPv @ 1161
;	std::istreambuf_iterator<char, std::char_traits<char> >::equal(std::istreambuf_iterator<char, std::char_traits<char> > const&) const
	_ZNKSt19istreambuf_iteratorIcSt11char_traitsIcEE5equalERKS2_ @ 1162
;	std::istreambuf_iterator<char, std::char_traits<char> >::_M_get() const
	_ZNKSt19istreambuf_iteratorIcSt11char_traitsIcEE6_M_getEv @ 1163
;	std::istreambuf_iterator<wchar_t, std::char_traits<wchar_t> >::equal(std::istreambuf_iterator<wchar_t, std::char_traits<wchar_t> > const&) const
	_ZNKSt19istreambuf_iteratorIwSt11char_traitsIwEE5equalERKS2_ @ 1164
;	std::istreambuf_iterator<wchar_t, std::char_traits<wchar_t> >::_M_get() const
	_ZNKSt19istreambuf_iteratorIwSt11char_traitsIwEE6_M_getEv @ 1165
;	std::__codecvt_utf16_base<char32_t>::do_unshift(_Mbstatet&, char*, char*, char*&) const
	_ZNKSt20__codecvt_utf16_baseIDiE10do_unshiftER9_MbstatetPcS3_RS3_ @ 1166
;	std::__codecvt_utf16_base<char32_t>::do_encoding() const
	_ZNKSt20__codecvt_utf16_baseIDiE11do_encodingEv @ 1167
;	std::__codecvt_utf16_base<char32_t>::do_max_length() const
	_ZNKSt20__codecvt_utf16_baseIDiE13do_max_lengthEv @ 1168
;	std::__codecvt_utf16_base<char32_t>::do_always_noconv() const
	_ZNKSt20__codecvt_utf16_baseIDiE16do_always_noconvEv @ 1169
;	std::__codecvt_utf16_base<char32_t>::do_in(_Mbstatet&, char const*, char const*, char const*&, char32_t*, char32_t*, char32_t*&) const
	_ZNKSt20__codecvt_utf16_baseIDiE5do_inER9_MbstatetPKcS4_RS4_PDiS6_RS6_ @ 1170
;	std::__codecvt_utf16_base<char32_t>::do_out(_Mbstatet&, char32_t const*, char32_t const*, char32_t const*&, char*, char*, char*&) const
	_ZNKSt20__codecvt_utf16_baseIDiE6do_outER9_MbstatetPKDiS4_RS4_PcS6_RS6_ @ 1171
;	std::__codecvt_utf16_base<char32_t>::do_length(_Mbstatet&, char const*, char const*, unsigned long long) const
	_ZNKSt20__codecvt_utf16_baseIDiE9do_lengthER9_MbstatetPKcS4_y @ 1172
;	std::__codecvt_utf16_base<char16_t>::do_unshift(_Mbstatet&, char*, char*, char*&) const
	_ZNKSt20__codecvt_utf16_baseIDsE10do_unshiftER9_MbstatetPcS3_RS3_ @ 1173
;	std::__codecvt_utf16_base<char16_t>::do_encoding() const
	_ZNKSt20__codecvt_utf16_baseIDsE11do_encodingEv @ 1174
;	std::__codecvt_utf16_base<char16_t>::do_max_length() const
	_ZNKSt20__codecvt_utf16_baseIDsE13do_max_lengthEv @ 1175
;	std::__codecvt_utf16_base<char16_t>::do_always_noconv() const
	_ZNKSt20__codecvt_utf16_baseIDsE16do_always_noconvEv @ 1176
;	std::__codecvt_utf16_base<char16_t>::do_in(_Mbstatet&, char const*, char const*, char const*&, char16_t*, char16_t*, char16_t*&) const
	_ZNKSt20__codecvt_utf16_baseIDsE5do_inER9_MbstatetPKcS4_RS4_PDsS6_RS6_ @ 1177
;	std::__codecvt_utf16_base<char16_t>::do_out(_Mbstatet&, char16_t const*, char16_t const*, char16_t const*&, char*, char*, char*&) const
	_ZNKSt20__codecvt_utf16_baseIDsE6do_outER9_MbstatetPKDsS4_RS4_PcS6_RS6_ @ 1178
;	std::__codecvt_utf16_base<char16_t>::do_length(_Mbstatet&, char const*, char const*, unsigned long long) const
	_ZNKSt20__codecvt_utf16_baseIDsE9do_lengthER9_MbstatetPKcS4_y @ 1179
;	std::__codecvt_utf16_base<wchar_t>::do_unshift(_Mbstatet&, char*, char*, char*&) const
	_ZNKSt20__codecvt_utf16_baseIwE10do_unshiftER9_MbstatetPcS3_RS3_ @ 1180
;	std::__codecvt_utf16_base<wchar_t>::do_encoding() const
	_ZNKSt20__codecvt_utf16_baseIwE11do_encodingEv @ 1181
;	std::__codecvt_utf16_base<wchar_t>::do_max_length() const
	_ZNKSt20__codecvt_utf16_baseIwE13do_max_lengthEv @ 1182
;	std::__codecvt_utf16_base<wchar_t>::do_always_noconv() const
	_ZNKSt20__codecvt_utf16_baseIwE16do_always_noconvEv @ 1183
;	std::__codecvt_utf16_base<wchar_t>::do_in(_Mbstatet&, char const*, char const*, char const*&, wchar_t*, wchar_t*, wchar_t*&) const
	_ZNKSt20__codecvt_utf16_baseIwE5do_inER9_MbstatetPKcS4_RS4_PwS6_RS6_ @ 1184
;	std::__codecvt_utf16_base<wchar_t>::do_out(_Mbstatet&, wchar_t const*, wchar_t const*, wchar_t const*&, char*, char*, char*&) const
	_ZNKSt20__codecvt_utf16_baseIwE6do_outER9_MbstatetPKwS4_RS4_PcS6_RS6_ @ 1185
;	std::__codecvt_utf16_base<wchar_t>::do_length(_Mbstatet&, char const*, char const*, unsigned long long) const
	_ZNKSt20__codecvt_utf16_baseIwE9do_lengthER9_MbstatetPKcS4_y @ 1186
;	std::bad_array_new_length::what() const
	_ZNKSt20bad_array_new_length4whatEv @ 1187
;	std::__codecvt_utf8_utf16_base<char32_t>::do_unshift(_Mbstatet&, char*, char*, char*&) const
	_ZNKSt25__codecvt_utf8_utf16_baseIDiE10do_unshiftER9_MbstatetPcS3_RS3_ @ 1188
;	std::__codecvt_utf8_utf16_base<char32_t>::do_encoding() const
	_ZNKSt25__codecvt_utf8_utf16_baseIDiE11do_encodingEv @ 1189
;	std::__codecvt_utf8_utf16_base<char32_t>::do_max_length() const
	_ZNKSt25__codecvt_utf8_utf16_baseIDiE13do_max_lengthEv @ 1190
;	std::__codecvt_utf8_utf16_base<char32_t>::do_always_noconv() const
	_ZNKSt25__codecvt_utf8_utf16_baseIDiE16do_always_noconvEv @ 1191
;	std::__codecvt_utf8_utf16_base<char32_t>::do_in(_Mbstatet&, char const*, char const*, char const*&, char32_t*, char32_t*, char32_t*&) const
	_ZNKSt25__codecvt_utf8_utf16_baseIDiE5do_inER9_MbstatetPKcS4_RS4_PDiS6_RS6_ @ 1192
;	std::__codecvt_utf8_utf16_base<char32_t>::do_out(_Mbstatet&, char32_t const*, char32_t const*, char32_t const*&, char*, char*, char*&) const
	_ZNKSt25__codecvt_utf8_utf16_baseIDiE6do_outER9_MbstatetPKDiS4_RS4_PcS6_RS6_ @ 1193
;	std::__codecvt_utf8_utf16_base<char32_t>::do_length(_Mbstatet&, char const*, char const*, unsigned long long) const
	_ZNKSt25__codecvt_utf8_utf16_baseIDiE9do_lengthER9_MbstatetPKcS4_y @ 1194
;	std::__codecvt_utf8_utf16_base<char16_t>::do_unshift(_Mbstatet&, char*, char*, char*&) const
	_ZNKSt25__codecvt_utf8_utf16_baseIDsE10do_unshiftER9_MbstatetPcS3_RS3_ @ 1195
;	std::__codecvt_utf8_utf16_base<char16_t>::do_encoding() const
	_ZNKSt25__codecvt_utf8_utf16_baseIDsE11do_encodingEv @ 1196
;	std::__codecvt_utf8_utf16_base<char16_t>::do_max_length() const
	_ZNKSt25__codecvt_utf8_utf16_baseIDsE13do_max_lengthEv @ 1197
;	std::__codecvt_utf8_utf16_base<char16_t>::do_always_noconv() const
	_ZNKSt25__codecvt_utf8_utf16_baseIDsE16do_always_noconvEv @ 1198
;	std::__codecvt_utf8_utf16_base<char16_t>::do_in(_Mbstatet&, char const*, char const*, char const*&, char16_t*, char16_t*, char16_t*&) const
	_ZNKSt25__codecvt_utf8_utf16_baseIDsE5do_inER9_MbstatetPKcS4_RS4_PDsS6_RS6_ @ 1199
;	std::__codecvt_utf8_utf16_base<char16_t>::do_out(_Mbstatet&, char16_t const*, char16_t const*, char16_t const*&, char*, char*, char*&) const
	_ZNKSt25__codecvt_utf8_utf16_baseIDsE6do_outER9_MbstatetPKDsS4_RS4_PcS6_RS6_ @ 1200
;	std::__codecvt_utf8_utf16_base<char16_t>::do_length(_Mbstatet&, char const*, char const*, unsigned long long) const
	_ZNKSt25__codecvt_utf8_utf16_baseIDsE9do_lengthER9_MbstatetPKcS4_y @ 1201
;	std::__codecvt_utf8_utf16_base<wchar_t>::do_unshift(_Mbstatet&, char*, char*, char*&) const
	_ZNKSt25__codecvt_utf8_utf16_baseIwE10do_unshiftER9_MbstatetPcS3_RS3_ @ 1202
;	std::__codecvt_utf8_utf16_base<wchar_t>::do_encoding() const
	_ZNKSt25__codecvt_utf8_utf16_baseIwE11do_encodingEv @ 1203
;	std::__codecvt_utf8_utf16_base<wchar_t>::do_max_length() const
	_ZNKSt25__codecvt_utf8_utf16_baseIwE13do_max_lengthEv @ 1204
;	std::__codecvt_utf8_utf16_base<wchar_t>::do_always_noconv() const
	_ZNKSt25__codecvt_utf8_utf16_baseIwE16do_always_noconvEv @ 1205
;	std::__codecvt_utf8_utf16_base<wchar_t>::do_in(_Mbstatet&, char const*, char const*, char const*&, wchar_t*, wchar_t*, wchar_t*&) const
	_ZNKSt25__codecvt_utf8_utf16_baseIwE5do_inER9_MbstatetPKcS4_RS4_PwS6_RS6_ @ 1206
;	std::__codecvt_utf8_utf16_base<wchar_t>::do_out(_Mbstatet&, wchar_t const*, wchar_t const*, wchar_t const*&, char*, char*, char*&) const
	_ZNKSt25__codecvt_utf8_utf16_baseIwE6do_outER9_MbstatetPKwS4_RS4_PcS6_RS6_ @ 1207
;	std::__codecvt_utf8_utf16_base<wchar_t>::do_length(_Mbstatet&, char const*, char const*, unsigned long long) const
	_ZNKSt25__codecvt_utf8_utf16_baseIwE9do_lengthER9_MbstatetPKcS4_y @ 1208
;	std::_V2::error_category::_M_message[abi:cxx11](int) const
	_ZNKSt3_V214error_category10_M_messageB5cxx11Ei @ 1209
;	std::_V2::error_category::_M_message(int) const
	_ZNKSt3_V214error_category10_M_messageEi @ 1210
;	std::_V2::error_category::equivalent(std::error_code const&, int) const
	_ZNKSt3_V214error_category10equivalentERKSt10error_codei @ 1211
;	std::_V2::error_category::equivalent(int, std::error_condition const&) const
	_ZNKSt3_V214error_category10equivalentEiRKSt15error_condition @ 1212
;	std::_V2::error_category::default_error_condition(int) const
	_ZNKSt3_V214error_category23default_error_conditionEi @ 1213
;	std::ctype<char>::do_tolower(char*, char const*) const
	_ZNKSt5ctypeIcE10do_tolowerEPcPKc @ 1214
;	std::ctype<char>::do_tolower(char) const
	_ZNKSt5ctypeIcE10do_tolowerEc @ 1215
;	std::ctype<char>::do_toupper(char*, char const*) const
	_ZNKSt5ctypeIcE10do_toupperEPcPKc @ 1216
;	std::ctype<char>::do_toupper(char) const
	_ZNKSt5ctypeIcE10do_toupperEc @ 1217
;	std::ctype<char>::_M_widen_init() const
	_ZNKSt5ctypeIcE13_M_widen_initEv @ 1218
;	std::ctype<char>::_M_narrow_init() const
	_ZNKSt5ctypeIcE14_M_narrow_initEv @ 1219
;	std::ctype<char>::narrow(char, char) const
	_ZNKSt5ctypeIcE6narrowEcc @ 1220
;	std::ctype<char>::do_widen(char const*, char const*, char*) const
	_ZNKSt5ctypeIcE8do_widenEPKcS2_Pc @ 1221
;	std::ctype<char>::do_widen(char) const
	_ZNKSt5ctypeIcE8do_widenEc @ 1222
;	std::ctype<char>::do_narrow(char const*, char const*, char, char*) const
	_ZNKSt5ctypeIcE9do_narrowEPKcS2_cPc @ 1223
;	std::ctype<char>::do_narrow(char, char) const
	_ZNKSt5ctypeIcE9do_narrowEcc @ 1224
;	std::ctype<wchar_t>::do_scan_is(unsigned short, wchar_t const*, wchar_t const*) const
	_ZNKSt5ctypeIwE10do_scan_isEtPKwS2_ @ 1225
;	std::ctype<wchar_t>::do_tolower(wchar_t*, wchar_t const*) const
	_ZNKSt5ctypeIwE10do_tolowerEPwPKw @ 1226
;	std::ctype<wchar_t>::do_tolower(wchar_t) const
	_ZNKSt5ctypeIwE10do_tolowerEw @ 1227
;	std::ctype<wchar_t>::do_toupper(wchar_t*, wchar_t const*) const
	_ZNKSt5ctypeIwE10do_toupperEPwPKw @ 1228
;	std::ctype<wchar_t>::do_toupper(wchar_t) const
	_ZNKSt5ctypeIwE10do_toupperEw @ 1229
;	std::ctype<wchar_t>::do_scan_not(unsigned short, wchar_t const*, wchar_t const*) const
	_ZNKSt5ctypeIwE11do_scan_notEtPKwS2_ @ 1230
;	std::ctype<wchar_t>::_M_convert_to_wmask(unsigned short) const
	_ZNKSt5ctypeIwE19_M_convert_to_wmaskEt @ 1231
;	std::ctype<wchar_t>::do_is(wchar_t const*, wchar_t const*, unsigned short*) const
	_ZNKSt5ctypeIwE5do_isEPKwS2_Pt @ 1232
;	std::ctype<wchar_t>::do_is(unsigned short, wchar_t) const
	_ZNKSt5ctypeIwE5do_isEtw @ 1233
;	std::ctype<wchar_t>::do_widen(char const*, char const*, wchar_t*) const
	_ZNKSt5ctypeIwE8do_widenEPKcS2_Pw @ 1234
;	std::ctype<wchar_t>::do_widen(char) const
	_ZNKSt5ctypeIwE8do_widenEc @ 1235
;	std::ctype<wchar_t>::do_narrow(wchar_t const*, wchar_t const*, char, char*) const
	_ZNKSt5ctypeIwE9do_narrowEPKwS2_cPc @ 1236
;	std::ctype<wchar_t>::do_narrow(wchar_t, char) const
	_ZNKSt5ctypeIwE9do_narrowEwc @ 1237
;	std::locale::id::_M_id() const
	_ZNKSt6locale2id5_M_idEv @ 1238
;	std::locale::name[abi:cxx11]() const
	_ZNKSt6locale4nameB5cxx11Ev @ 1239
;	std::locale::name() const
	_ZNKSt6locale4nameEv @ 1240
;	std::locale::facet::_M_cow_shim(std::locale::id const*) const
	_ZNKSt6locale5facet11_M_cow_shimEPKNS_2idE @ 1241
;	std::locale::facet::_M_sso_shim(std::locale::id const*) const
	_ZNKSt6locale5facet11_M_sso_shimEPKNS_2idE @ 1242
;	std::locale::facet::_M_remove_reference() const
	_ZNKSt6locale5facet19_M_remove_referenceEv @ 1243
;	std::locale::operator==(std::locale const&) const
	_ZNKSt6localeeqERKS_ @ 1244
;	std::__cxx11::moneypunct<char, false>::neg_format() const
	_ZNKSt7__cxx1110moneypunctIcLb0EE10neg_formatEv @ 1245
;	std::__cxx11::moneypunct<char, false>::pos_format() const
	_ZNKSt7__cxx1110moneypunctIcLb0EE10pos_formatEv @ 1246
;	std::__cxx11::moneypunct<char, false>::curr_symbol() const
	_ZNKSt7__cxx1110moneypunctIcLb0EE11curr_symbolEv @ 1247
;	std::__cxx11::moneypunct<char, false>::do_grouping() const
	_ZNKSt7__cxx1110moneypunctIcLb0EE11do_groupingEv @ 1248
;	std::__cxx11::moneypunct<char, false>::frac_digits() const
	_ZNKSt7__cxx1110moneypunctIcLb0EE11frac_digitsEv @ 1249
;	std::__cxx11::moneypunct<char, false>::decimal_point() const
	_ZNKSt7__cxx1110moneypunctIcLb0EE13decimal_pointEv @ 1250
;	std::__cxx11::moneypunct<char, false>::do_neg_format() const
	_ZNKSt7__cxx1110moneypunctIcLb0EE13do_neg_formatEv @ 1251
;	std::__cxx11::moneypunct<char, false>::do_pos_format() const
	_ZNKSt7__cxx1110moneypunctIcLb0EE13do_pos_formatEv @ 1252
;	std::__cxx11::moneypunct<char, false>::negative_sign() const
	_ZNKSt7__cxx1110moneypunctIcLb0EE13negative_signEv @ 1253
;	std::__cxx11::moneypunct<char, false>::positive_sign() const
	_ZNKSt7__cxx1110moneypunctIcLb0EE13positive_signEv @ 1254
;	std::__cxx11::moneypunct<char, false>::thousands_sep() const
	_ZNKSt7__cxx1110moneypunctIcLb0EE13thousands_sepEv @ 1255
;	std::__cxx11::moneypunct<char, false>::do_curr_symbol() const
	_ZNKSt7__cxx1110moneypunctIcLb0EE14do_curr_symbolEv @ 1256
;	std::__cxx11::moneypunct<char, false>::do_frac_digits() const
	_ZNKSt7__cxx1110moneypunctIcLb0EE14do_frac_digitsEv @ 1257
;	std::__cxx11::moneypunct<char, false>::do_decimal_point() const
	_ZNKSt7__cxx1110moneypunctIcLb0EE16do_decimal_pointEv @ 1258
;	std::__cxx11::moneypunct<char, false>::do_negative_sign() const
	_ZNKSt7__cxx1110moneypunctIcLb0EE16do_negative_signEv @ 1259
;	std::__cxx11::moneypunct<char, false>::do_positive_sign() const
	_ZNKSt7__cxx1110moneypunctIcLb0EE16do_positive_signEv @ 1260
;	std::__cxx11::moneypunct<char, false>::do_thousands_sep() const
	_ZNKSt7__cxx1110moneypunctIcLb0EE16do_thousands_sepEv @ 1261
;	std::__cxx11::moneypunct<char, false>::grouping() const
	_ZNKSt7__cxx1110moneypunctIcLb0EE8groupingEv @ 1262
;	std::__cxx11::moneypunct<char, true>::neg_format() const
	_ZNKSt7__cxx1110moneypunctIcLb1EE10neg_formatEv @ 1263
;	std::__cxx11::moneypunct<char, true>::pos_format() const
	_ZNKSt7__cxx1110moneypunctIcLb1EE10pos_formatEv @ 1264
;	std::__cxx11::moneypunct<char, true>::curr_symbol() const
	_ZNKSt7__cxx1110moneypunctIcLb1EE11curr_symbolEv @ 1265
;	std::__cxx11::moneypunct<char, true>::do_grouping() const
	_ZNKSt7__cxx1110moneypunctIcLb1EE11do_groupingEv @ 1266
;	std::__cxx11::moneypunct<char, true>::frac_digits() const
	_ZNKSt7__cxx1110moneypunctIcLb1EE11frac_digitsEv @ 1267
;	std::__cxx11::moneypunct<char, true>::decimal_point() const
	_ZNKSt7__cxx1110moneypunctIcLb1EE13decimal_pointEv @ 1268
;	std::__cxx11::moneypunct<char, true>::do_neg_format() const
	_ZNKSt7__cxx1110moneypunctIcLb1EE13do_neg_formatEv @ 1269
;	std::__cxx11::moneypunct<char, true>::do_pos_format() const
	_ZNKSt7__cxx1110moneypunctIcLb1EE13do_pos_formatEv @ 1270
;	std::__cxx11::moneypunct<char, true>::negative_sign() const
	_ZNKSt7__cxx1110moneypunctIcLb1EE13negative_signEv @ 1271
;	std::__cxx11::moneypunct<char, true>::positive_sign() const
	_ZNKSt7__cxx1110moneypunctIcLb1EE13positive_signEv @ 1272
;	std::__cxx11::moneypunct<char, true>::thousands_sep() const
	_ZNKSt7__cxx1110moneypunctIcLb1EE13thousands_sepEv @ 1273
;	std::__cxx11::moneypunct<char, true>::do_curr_symbol() const
	_ZNKSt7__cxx1110moneypunctIcLb1EE14do_curr_symbolEv @ 1274
;	std::__cxx11::moneypunct<char, true>::do_frac_digits() const
	_ZNKSt7__cxx1110moneypunctIcLb1EE14do_frac_digitsEv @ 1275
;	std::__cxx11::moneypunct<char, true>::do_decimal_point() const
	_ZNKSt7__cxx1110moneypunctIcLb1EE16do_decimal_pointEv @ 1276
;	std::__cxx11::moneypunct<char, true>::do_negative_sign() const
	_ZNKSt7__cxx1110moneypunctIcLb1EE16do_negative_signEv @ 1277
;	std::__cxx11::moneypunct<char, true>::do_positive_sign() const
	_ZNKSt7__cxx1110moneypunctIcLb1EE16do_positive_signEv @ 1278
;	std::__cxx11::moneypunct<char, true>::do_thousands_sep() const
	_ZNKSt7__cxx1110moneypunctIcLb1EE16do_thousands_sepEv @ 1279
;	std::__cxx11::moneypunct<char, true>::grouping() const
	_ZNKSt7__cxx1110moneypunctIcLb1EE8groupingEv @ 1280
;	std::__cxx11::moneypunct<wchar_t, false>::neg_format() const
	_ZNKSt7__cxx1110moneypunctIwLb0EE10neg_formatEv @ 1281
;	std::__cxx11::moneypunct<wchar_t, false>::pos_format() const
	_ZNKSt7__cxx1110moneypunctIwLb0EE10pos_formatEv @ 1282
;	std::__cxx11::moneypunct<wchar_t, false>::curr_symbol() const
	_ZNKSt7__cxx1110moneypunctIwLb0EE11curr_symbolEv @ 1283
;	std::__cxx11::moneypunct<wchar_t, false>::do_grouping() const
	_ZNKSt7__cxx1110moneypunctIwLb0EE11do_groupingEv @ 1284
;	std::__cxx11::moneypunct<wchar_t, false>::frac_digits() const
	_ZNKSt7__cxx1110moneypunctIwLb0EE11frac_digitsEv @ 1285
;	std::__cxx11::moneypunct<wchar_t, false>::decimal_point() const
	_ZNKSt7__cxx1110moneypunctIwLb0EE13decimal_pointEv @ 1286
;	std::__cxx11::moneypunct<wchar_t, false>::do_neg_format() const
	_ZNKSt7__cxx1110moneypunctIwLb0EE13do_neg_formatEv @ 1287
;	std::__cxx11::moneypunct<wchar_t, false>::do_pos_format() const
	_ZNKSt7__cxx1110moneypunctIwLb0EE13do_pos_formatEv @ 1288
;	std::__cxx11::moneypunct<wchar_t, false>::negative_sign() const
	_ZNKSt7__cxx1110moneypunctIwLb0EE13negative_signEv @ 1289
;	std::__cxx11::moneypunct<wchar_t, false>::positive_sign() const
	_ZNKSt7__cxx1110moneypunctIwLb0EE13positive_signEv @ 1290
;	std::__cxx11::moneypunct<wchar_t, false>::thousands_sep() const
	_ZNKSt7__cxx1110moneypunctIwLb0EE13thousands_sepEv @ 1291
;	std::__cxx11::moneypunct<wchar_t, false>::do_curr_symbol() const
	_ZNKSt7__cxx1110moneypunctIwLb0EE14do_curr_symbolEv @ 1292
;	std::__cxx11::moneypunct<wchar_t, false>::do_frac_digits() const
	_ZNKSt7__cxx1110moneypunctIwLb0EE14do_frac_digitsEv @ 1293
;	std::__cxx11::moneypunct<wchar_t, false>::do_decimal_point() const
	_ZNKSt7__cxx1110moneypunctIwLb0EE16do_decimal_pointEv @ 1294
;	std::__cxx11::moneypunct<wchar_t, false>::do_negative_sign() const
	_ZNKSt7__cxx1110moneypunctIwLb0EE16do_negative_signEv @ 1295
;	std::__cxx11::moneypunct<wchar_t, false>::do_positive_sign() const
	_ZNKSt7__cxx1110moneypunctIwLb0EE16do_positive_signEv @ 1296
;	std::__cxx11::moneypunct<wchar_t, false>::do_thousands_sep() const
	_ZNKSt7__cxx1110moneypunctIwLb0EE16do_thousands_sepEv @ 1297
;	std::__cxx11::moneypunct<wchar_t, false>::grouping() const
	_ZNKSt7__cxx1110moneypunctIwLb0EE8groupingEv @ 1298
;	std::__cxx11::moneypunct<wchar_t, true>::neg_format() const
	_ZNKSt7__cxx1110moneypunctIwLb1EE10neg_formatEv @ 1299
;	std::__cxx11::moneypunct<wchar_t, true>::pos_format() const
	_ZNKSt7__cxx1110moneypunctIwLb1EE10pos_formatEv @ 1300
;	std::__cxx11::moneypunct<wchar_t, true>::curr_symbol() const
	_ZNKSt7__cxx1110moneypunctIwLb1EE11curr_symbolEv @ 1301
;	std::__cxx11::moneypunct<wchar_t, true>::do_grouping() const
	_ZNKSt7__cxx1110moneypunctIwLb1EE11do_groupingEv @ 1302
;	std::__cxx11::moneypunct<wchar_t, true>::frac_digits() const
	_ZNKSt7__cxx1110moneypunctIwLb1EE11frac_digitsEv @ 1303
;	std::__cxx11::moneypunct<wchar_t, true>::decimal_point() const
	_ZNKSt7__cxx1110moneypunctIwLb1EE13decimal_pointEv @ 1304
;	std::__cxx11::moneypunct<wchar_t, true>::do_neg_format() const
	_ZNKSt7__cxx1110moneypunctIwLb1EE13do_neg_formatEv @ 1305
;	std::__cxx11::moneypunct<wchar_t, true>::do_pos_format() const
	_ZNKSt7__cxx1110moneypunctIwLb1EE13do_pos_formatEv @ 1306
;	std::__cxx11::moneypunct<wchar_t, true>::negative_sign() const
	_ZNKSt7__cxx1110moneypunctIwLb1EE13negative_signEv @ 1307
;	std::__cxx11::moneypunct<wchar_t, true>::positive_sign() const
	_ZNKSt7__cxx1110moneypunctIwLb1EE13positive_signEv @ 1308
;	std::__cxx11::moneypunct<wchar_t, true>::thousands_sep() const
	_ZNKSt7__cxx1110moneypunctIwLb1EE13thousands_sepEv @ 1309
;	std::__cxx11::moneypunct<wchar_t, true>::do_curr_symbol() const
	_ZNKSt7__cxx1110moneypunctIwLb1EE14do_curr_symbolEv @ 1310
;	std::__cxx11::moneypunct<wchar_t, true>::do_frac_digits() const
	_ZNKSt7__cxx1110moneypunctIwLb1EE14do_frac_digitsEv @ 1311
;	std::__cxx11::moneypunct<wchar_t, true>::do_decimal_point() const
	_ZNKSt7__cxx1110moneypunctIwLb1EE16do_decimal_pointEv @ 1312
;	std::__cxx11::moneypunct<wchar_t, true>::do_negative_sign() const
	_ZNKSt7__cxx1110moneypunctIwLb1EE16do_negative_signEv @ 1313
;	std::__cxx11::moneypunct<wchar_t, true>::do_positive_sign() const
	_ZNKSt7__cxx1110moneypunctIwLb1EE16do_positive_signEv @ 1314
;	std::__cxx11::moneypunct<wchar_t, true>::do_thousands_sep() const
	_ZNKSt7__cxx1110moneypunctIwLb1EE16do_thousands_sepEv @ 1315
;	std::__cxx11::moneypunct<wchar_t, true>::grouping() const
	_ZNKSt7__cxx1110moneypunctIwLb1EE8groupingEv @ 1316
;	std::__cxx11::basic_string<char, std::char_traits<char>, std::allocator<char> >::_M_disjunct(char const*) const
	_ZNKSt7__cxx1112basic_stringIcSt11char_traitsIcESaIcEE11_M_disjunctEPKc @ 1317
;	std::__cxx11::basic_string<char, std::char_traits<char>, std::allocator<char> >::_M_is_local() const
	_ZNKSt7__cxx1112basic_stringIcSt11char_traitsIcESaIcEE11_M_is_localEv @ 1318
;	std::__cxx11::basic_string<char, std::char_traits<char>, std::allocator<char> >::find_last_of(char const*, unsigned long long) const
	_ZNKSt7__cxx1112basic_stringIcSt11char_traitsIcESaIcEE12find_last_ofEPKcy @ 1319
;	std::__cxx11::basic_string<char, std::char_traits<char>, std::allocator<char> >::find_last_of(char const*, unsigned long long, unsigned long long) const
	_ZNKSt7__cxx1112basic_stringIcSt11char_traitsIcESaIcEE12find_last_ofEPKcyy @ 1320
;	std::__cxx11::basic_string<char, std::char_traits<char>, std::allocator<char> >::find_last_of(std::__cxx11::basic_string<char, std::char_traits<char>, std::allocator<char> > const&, unsigned long long) const
	_ZNKSt7__cxx1112basic_stringIcSt11char_traitsIcESaIcEE12find_last_ofERKS4_y @ 1321
;	std::__cxx11::basic_string<char, std::char_traits<char>, std::allocator<char> >::find_last_of(char, unsigned long long) const
	_ZNKSt7__cxx1112basic_stringIcSt11char_traitsIcESaIcEE12find_last_ofEcy @ 1322
;	std::__cxx11::basic_string<char, std::char_traits<char>, std::allocator<char> >::_M_local_data() const
	_ZNKSt7__cxx1112basic_stringIcSt11char_traitsIcESaIcEE13_M_local_dataEv @ 1323
;	std::__cxx11::basic_string<char, std::char_traits<char>, std::allocator<char> >::find_first_of(char const*, unsigned long long) const
	_ZNKSt7__cxx1112basic_stringIcSt11char_traitsIcESaIcEE13find_first_ofEPKcy @ 1324
;	std::__cxx11::basic_string<char, std::char_traits<char>, std::allocator<char> >::find_first_of(char const*, unsigned long long, unsigned long long) const
	_ZNKSt7__cxx1112basic_stringIcSt11char_traitsIcESaIcEE13find_first_ofEPKcyy @ 1325
;	std::__cxx11::basic_string<char, std::char_traits<char>, std::allocator<char> >::find_first_of(std::__cxx11::basic_string<char, std::char_traits<char>, std::allocator<char> > const&, unsigned long long) const
	_ZNKSt7__cxx1112basic_stringIcSt11char_traitsIcESaIcEE13find_first_ofERKS4_y @ 1326
;	std::__cxx11::basic_string<char, std::char_traits<char>, std::allocator<char> >::find_first_of(char, unsigned long long) const
	_ZNKSt7__cxx1112basic_stringIcSt11char_traitsIcESaIcEE13find_first_ofEcy @ 1327
;	std::__cxx11::basic_string<char, std::char_traits<char>, std::allocator<char> >::get_allocator() const
	_ZNKSt7__cxx1112basic_stringIcSt11char_traitsIcESaIcEE13get_allocatorEv @ 1328
;	std::__cxx11::basic_string<char, std::char_traits<char>, std::allocator<char> >::_M_check_length(unsigned long long, unsigned long long, char const*) const
	_ZNKSt7__cxx1112basic_stringIcSt11char_traitsIcESaIcEE15_M_check_lengthEyyPKc @ 1329
;	std::__cxx11::basic_string<char, std::char_traits<char>, std::allocator<char> >::_M_get_allocator() const
	_ZNKSt7__cxx1112basic_stringIcSt11char_traitsIcESaIcEE16_M_get_allocatorEv @ 1330
;	std::__cxx11::basic_string<char, std::char_traits<char>, std::allocator<char> >::find_last_not_of(char const*, unsigned long long) const
	_ZNKSt7__cxx1112basic_stringIcSt11char_traitsIcESaIcEE16find_last_not_ofEPKcy @ 1331
;	std::__cxx11::basic_string<char, std::char_traits<char>, std::allocator<char> >::find_last_not_of(char const*, unsigned long long, unsigned long long) const
	_ZNKSt7__cxx1112basic_stringIcSt11char_traitsIcESaIcEE16find_last_not_ofEPKcyy @ 1332
;	std::__cxx11::basic_string<char, std::char_traits<char>, std::allocator<char> >::find_last_not_of(std::__cxx11::basic_string<char, std::char_traits<char>, std::allocator<char> > const&, unsigned long long) const
	_ZNKSt7__cxx1112basic_stringIcSt11char_traitsIcESaIcEE16find_last_not_ofERKS4_y @ 1333
;	std::__cxx11::basic_string<char, std::char_traits<char>, std::allocator<char> >::find_last_not_of(char, unsigned long long) const
	_ZNKSt7__cxx1112basic_stringIcSt11char_traitsIcESaIcEE16find_last_not_ofEcy @ 1334
;	std::__cxx11::basic_string<char, std::char_traits<char>, std::allocator<char> >::find_first_not_of(char const*, unsigned long long) const
	_ZNKSt7__cxx1112basic_stringIcSt11char_traitsIcESaIcEE17find_first_not_ofEPKcy @ 1335
;	std::__cxx11::basic_string<char, std::char_traits<char>, std::allocator<char> >::find_first_not_of(char const*, unsigned long long, unsigned long long) const
	_ZNKSt7__cxx1112basic_stringIcSt11char_traitsIcESaIcEE17find_first_not_ofEPKcyy @ 1336
;	std::__cxx11::basic_string<char, std::char_traits<char>, std::allocator<char> >::find_first_not_of(std::__cxx11::basic_string<char, std::char_traits<char>, std::allocator<char> > const&, unsigned long long) const
	_ZNKSt7__cxx1112basic_stringIcSt11char_traitsIcESaIcEE17find_first_not_ofERKS4_y @ 1337
;	std::__cxx11::basic_string<char, std::char_traits<char>, std::allocator<char> >::find_first_not_of(char, unsigned long long) const
	_ZNKSt7__cxx1112basic_stringIcSt11char_traitsIcESaIcEE17find_first_not_ofEcy @ 1338
;	std::__cxx11::basic_string<char, std::char_traits<char>, std::allocator<char> >::at(unsigned long long) const
	_ZNKSt7__cxx1112basic_stringIcSt11char_traitsIcESaIcEE2atEy @ 1339
;	std::__cxx11::basic_string<char, std::char_traits<char>, std::allocator<char> >::end() const
	_ZNKSt7__cxx1112basic_stringIcSt11char_traitsIcESaIcEE3endEv @ 1340
;	std::__cxx11::basic_string<char, std::char_traits<char>, std::allocator<char> >::back() const
	_ZNKSt7__cxx1112basic_stringIcSt11char_traitsIcESaIcEE4backEv @ 1341
;	std::__cxx11::basic_string<char, std::char_traits<char>, std::allocator<char> >::cend() const
	_ZNKSt7__cxx1112basic_stringIcSt11char_traitsIcESaIcEE4cendEv @ 1342
;	std::__cxx11::basic_string<char, std::char_traits<char>, std::allocator<char> >::copy(char*, unsigned long long, unsigned long long) const
	_ZNKSt7__cxx1112basic_stringIcSt11char_traitsIcESaIcEE4copyEPcyy @ 1343
;	std::__cxx11::basic_string<char, std::char_traits<char>, std::allocator<char> >::data() const
	_ZNKSt7__cxx1112basic_stringIcSt11char_traitsIcESaIcEE4dataEv @ 1344
;	std::__cxx11::basic_string<char, std::char_traits<char>, std::allocator<char> >::find(char const*, unsigned long long) const
	_ZNKSt7__cxx1112basic_stringIcSt11char_traitsIcESaIcEE4findEPKcy @ 1345
;	std::__cxx11::basic_string<char, std::char_traits<char>, std::allocator<char> >::find(char const*, unsigned long long, unsigned long long) const
	_ZNKSt7__cxx1112basic_stringIcSt11char_traitsIcESaIcEE4findEPKcyy @ 1346
;	std::__cxx11::basic_string<char, std::char_traits<char>, std::allocator<char> >::find(std::__cxx11::basic_string<char, std::char_traits<char>, std::allocator<char> > const&, unsigned long long) const
	_ZNKSt7__cxx1112basic_stringIcSt11char_traitsIcESaIcEE4findERKS4_y @ 1347
;	std::__cxx11::basic_string<char, std::char_traits<char>, std::allocator<char> >::find(char, unsigned long long) const
	_ZNKSt7__cxx1112basic_stringIcSt11char_traitsIcESaIcEE4findEcy @ 1348
;	std::__cxx11::basic_string<char, std::char_traits<char>, std::allocator<char> >::rend() const
	_ZNKSt7__cxx1112basic_stringIcSt11char_traitsIcESaIcEE4rendEv @ 1349
;	std::__cxx11::basic_string<char, std::char_traits<char>, std::allocator<char> >::size() const
	_ZNKSt7__cxx1112basic_stringIcSt11char_traitsIcESaIcEE4sizeEv @ 1350
;	std::__cxx11::basic_string<char, std::char_traits<char>, std::allocator<char> >::begin() const
	_ZNKSt7__cxx1112basic_stringIcSt11char_traitsIcESaIcEE5beginEv @ 1351
;	std::__cxx11::basic_string<char, std::char_traits<char>, std::allocator<char> >::c_str() const
	_ZNKSt7__cxx1112basic_stringIcSt11char_traitsIcESaIcEE5c_strEv @ 1352
;	std::__cxx11::basic_string<char, std::char_traits<char>, std::allocator<char> >::crend() const
	_ZNKSt7__cxx1112basic_stringIcSt11char_traitsIcESaIcEE5crendEv @ 1353
;	std::__cxx11::basic_string<char, std::char_traits<char>, std::allocator<char> >::empty() const
	_ZNKSt7__cxx1112basic_stringIcSt11char_traitsIcESaIcEE5emptyEv @ 1354
;	std::__cxx11::basic_string<char, std::char_traits<char>, std::allocator<char> >::front() const
	_ZNKSt7__cxx1112basic_stringIcSt11char_traitsIcESaIcEE5frontEv @ 1355
;	std::__cxx11::basic_string<char, std::char_traits<char>, std::allocator<char> >::rfind(char const*, unsigned long long) const
	_ZNKSt7__cxx1112basic_stringIcSt11char_traitsIcESaIcEE5rfindEPKcy @ 1356
;	std::__cxx11::basic_string<char, std::char_traits<char>, std::allocator<char> >::rfind(char const*, unsigned long long, unsigned long long) const
	_ZNKSt7__cxx1112basic_stringIcSt11char_traitsIcESaIcEE5rfindEPKcyy @ 1357
;	std::__cxx11::basic_string<char, std::char_traits<char>, std::allocator<char> >::rfind(std::__cxx11::basic_string<char, std::char_traits<char>, std::allocator<char> > const&, unsigned long long) const
	_ZNKSt7__cxx1112basic_stringIcSt11char_traitsIcESaIcEE5rfindERKS4_y @ 1358
;	std::__cxx11::basic_string<char, std::char_traits<char>, std::allocator<char> >::rfind(char, unsigned long long) const
	_ZNKSt7__cxx1112basic_stringIcSt11char_traitsIcESaIcEE5rfindEcy @ 1359
;	std::__cxx11::basic_string<char, std::char_traits<char>, std::allocator<char> >::cbegin() const
	_ZNKSt7__cxx1112basic_stringIcSt11char_traitsIcESaIcEE6cbeginEv @ 1360
;	std::__cxx11::basic_string<char, std::char_traits<char>, std::allocator<char> >::length() const
	_ZNKSt7__cxx1112basic_stringIcSt11char_traitsIcESaIcEE6lengthEv @ 1361
;	std::__cxx11::basic_string<char, std::char_traits<char>, std::allocator<char> >::rbegin() const
	_ZNKSt7__cxx1112basic_stringIcSt11char_traitsIcESaIcEE6rbeginEv @ 1362
;	std::__cxx11::basic_string<char, std::char_traits<char>, std::allocator<char> >::substr(unsigned long long, unsigned long long) const
	_ZNKSt7__cxx1112basic_stringIcSt11char_traitsIcESaIcEE6substrEyy @ 1363
;	std::__cxx11::basic_string<char, std::char_traits<char>, std::allocator<char> >::_M_data() const
	_ZNKSt7__cxx1112basic_stringIcSt11char_traitsIcESaIcEE7_M_dataEv @ 1364
;	std::__cxx11::basic_string<char, std::char_traits<char>, std::allocator<char> >::compare(char const*) const
	_ZNKSt7__cxx1112basic_stringIcSt11char_traitsIcESaIcEE7compareEPKc @ 1365
;	std::__cxx11::basic_string<char, std::char_traits<char>, std::allocator<char> >::compare(std::__cxx11::basic_string<char, std::char_traits<char>, std::allocator<char> > const&) const
	_ZNKSt7__cxx1112basic_stringIcSt11char_traitsIcESaIcEE7compareERKS4_ @ 1366
;	std::__cxx11::basic_string<char, std::char_traits<char>, std::allocator<char> >::compare(unsigned long long, unsigned long long, char const*) const
	_ZNKSt7__cxx1112basic_stringIcSt11char_traitsIcESaIcEE7compareEyyPKc @ 1367
;	std::__cxx11::basic_string<char, std::char_traits<char>, std::allocator<char> >::compare(unsigned long long, unsigned long long, char const*, unsigned long long) const
	_ZNKSt7__cxx1112basic_stringIcSt11char_traitsIcESaIcEE7compareEyyPKcy @ 1368
;	std::__cxx11::basic_string<char, std::char_traits<char>, std::allocator<char> >::compare(unsigned long long, unsigned long long, std::__cxx11::basic_string<char, std::char_traits<char>, std::allocator<char> > const&) const
	_ZNKSt7__cxx1112basic_stringIcSt11char_traitsIcESaIcEE7compareEyyRKS4_ @ 1369
;	std::__cxx11::basic_string<char, std::char_traits<char>, std::allocator<char> >::compare(unsigned long long, unsigned long long, std::__cxx11::basic_string<char, std::char_traits<char>, std::allocator<char> > const&, unsigned long long, unsigned long long) const
	_ZNKSt7__cxx1112basic_stringIcSt11char_traitsIcESaIcEE7compareEyyRKS4_yy @ 1370
;	std::__cxx11::basic_string<char, std::char_traits<char>, std::allocator<char> >::crbegin() const
	_ZNKSt7__cxx1112basic_stringIcSt11char_traitsIcESaIcEE7crbeginEv @ 1371
;	std::__cxx11::basic_string<char, std::char_traits<char>, std::allocator<char> >::_M_check(unsigned long long, char const*) const
	_ZNKSt7__cxx1112basic_stringIcSt11char_traitsIcESaIcEE8_M_checkEyPKc @ 1372
;	std::__cxx11::basic_string<char, std::char_traits<char>, std::allocator<char> >::_M_limit(unsigned long long, unsigned long long) const
	_ZNKSt7__cxx1112basic_stringIcSt11char_traitsIcESaIcEE8_M_limitEyy @ 1373
;	std::__cxx11::basic_string<char, std::char_traits<char>, std::allocator<char> >::capacity() const
	_ZNKSt7__cxx1112basic_stringIcSt11char_traitsIcESaIcEE8capacityEv @ 1374
;	std::__cxx11::basic_string<char, std::char_traits<char>, std::allocator<char> >::max_size() const
	_ZNKSt7__cxx1112basic_stringIcSt11char_traitsIcESaIcEE8max_sizeEv @ 1375
;	std::__cxx11::basic_string<char, std::char_traits<char>, std::allocator<char> >::operator[](unsigned long long) const
	_ZNKSt7__cxx1112basic_stringIcSt11char_traitsIcESaIcEEixEy @ 1376
;	std::__cxx11::basic_string<wchar_t, std::char_traits<wchar_t>, std::allocator<wchar_t> >::_M_disjunct(wchar_t const*) const
	_ZNKSt7__cxx1112basic_stringIwSt11char_traitsIwESaIwEE11_M_disjunctEPKw @ 1377
;	std::__cxx11::basic_string<wchar_t, std::char_traits<wchar_t>, std::allocator<wchar_t> >::_M_is_local() const
	_ZNKSt7__cxx1112basic_stringIwSt11char_traitsIwESaIwEE11_M_is_localEv @ 1378
;	std::__cxx11::basic_string<wchar_t, std::char_traits<wchar_t>, std::allocator<wchar_t> >::find_last_of(wchar_t const*, unsigned long long) const
	_ZNKSt7__cxx1112basic_stringIwSt11char_traitsIwESaIwEE12find_last_ofEPKwy @ 1379
;	std::__cxx11::basic_string<wchar_t, std::char_traits<wchar_t>, std::allocator<wchar_t> >::find_last_of(wchar_t const*, unsigned long long, unsigned long long) const
	_ZNKSt7__cxx1112basic_stringIwSt11char_traitsIwESaIwEE12find_last_ofEPKwyy @ 1380
;	std::__cxx11::basic_string<wchar_t, std::char_traits<wchar_t>, std::allocator<wchar_t> >::find_last_of(std::__cxx11::basic_string<wchar_t, std::char_traits<wchar_t>, std::allocator<wchar_t> > const&, unsigned long long) const
	_ZNKSt7__cxx1112basic_stringIwSt11char_traitsIwESaIwEE12find_last_ofERKS4_y @ 1381
;	std::__cxx11::basic_string<wchar_t, std::char_traits<wchar_t>, std::allocator<wchar_t> >::find_last_of(wchar_t, unsigned long long) const
	_ZNKSt7__cxx1112basic_stringIwSt11char_traitsIwESaIwEE12find_last_ofEwy @ 1382
;	std::__cxx11::basic_string<wchar_t, std::char_traits<wchar_t>, std::allocator<wchar_t> >::_M_local_data() const
	_ZNKSt7__cxx1112basic_stringIwSt11char_traitsIwESaIwEE13_M_local_dataEv @ 1383
;	std::__cxx11::basic_string<wchar_t, std::char_traits<wchar_t>, std::allocator<wchar_t> >::find_first_of(wchar_t const*, unsigned long long) const
	_ZNKSt7__cxx1112basic_stringIwSt11char_traitsIwESaIwEE13find_first_ofEPKwy @ 1384
;	std::__cxx11::basic_string<wchar_t, std::char_traits<wchar_t>, std::allocator<wchar_t> >::find_first_of(wchar_t const*, unsigned long long, unsigned long long) const
	_ZNKSt7__cxx1112basic_stringIwSt11char_traitsIwESaIwEE13find_first_ofEPKwyy @ 1385
;	std::__cxx11::basic_string<wchar_t, std::char_traits<wchar_t>, std::allocator<wchar_t> >::find_first_of(std::__cxx11::basic_string<wchar_t, std::char_traits<wchar_t>, std::allocator<wchar_t> > const&, unsigned long long) const
	_ZNKSt7__cxx1112basic_stringIwSt11char_traitsIwESaIwEE13find_first_ofERKS4_y @ 1386
;	std::__cxx11::basic_string<wchar_t, std::char_traits<wchar_t>, std::allocator<wchar_t> >::find_first_of(wchar_t, unsigned long long) const
	_ZNKSt7__cxx1112basic_stringIwSt11char_traitsIwESaIwEE13find_first_ofEwy @ 1387
;	std::__cxx11::basic_string<wchar_t, std::char_traits<wchar_t>, std::allocator<wchar_t> >::get_allocator() const
	_ZNKSt7__cxx1112basic_stringIwSt11char_traitsIwESaIwEE13get_allocatorEv @ 1388
;	std::__cxx11::basic_string<wchar_t, std::char_traits<wchar_t>, std::allocator<wchar_t> >::_M_check_length(unsigned long long, unsigned long long, char const*) const
	_ZNKSt7__cxx1112basic_stringIwSt11char_traitsIwESaIwEE15_M_check_lengthEyyPKc @ 1389
;	std::__cxx11::basic_string<wchar_t, std::char_traits<wchar_t>, std::allocator<wchar_t> >::_M_get_allocator() const
	_ZNKSt7__cxx1112basic_stringIwSt11char_traitsIwESaIwEE16_M_get_allocatorEv @ 1390
;	std::__cxx11::basic_string<wchar_t, std::char_traits<wchar_t>, std::allocator<wchar_t> >::find_last_not_of(wchar_t const*, unsigned long long) const
	_ZNKSt7__cxx1112basic_stringIwSt11char_traitsIwESaIwEE16find_last_not_ofEPKwy @ 1391
;	std::__cxx11::basic_string<wchar_t, std::char_traits<wchar_t>, std::allocator<wchar_t> >::find_last_not_of(wchar_t const*, unsigned long long, unsigned long long) const
	_ZNKSt7__cxx1112basic_stringIwSt11char_traitsIwESaIwEE16find_last_not_ofEPKwyy @ 1392
;	std::__cxx11::basic_string<wchar_t, std::char_traits<wchar_t>, std::allocator<wchar_t> >::find_last_not_of(std::__cxx11::basic_string<wchar_t, std::char_traits<wchar_t>, std::allocator<wchar_t> > const&, unsigned long long) const
	_ZNKSt7__cxx1112basic_stringIwSt11char_traitsIwESaIwEE16find_last_not_ofERKS4_y @ 1393
;	std::__cxx11::basic_string<wchar_t, std::char_traits<wchar_t>, std::allocator<wchar_t> >::find_last_not_of(wchar_t, unsigned long long) const
	_ZNKSt7__cxx1112basic_stringIwSt11char_traitsIwESaIwEE16find_last_not_ofEwy @ 1394
;	std::__cxx11::basic_string<wchar_t, std::char_traits<wchar_t>, std::allocator<wchar_t> >::find_first_not_of(wchar_t const*, unsigned long long) const
	_ZNKSt7__cxx1112basic_stringIwSt11char_traitsIwESaIwEE17find_first_not_ofEPKwy @ 1395
;	std::__cxx11::basic_string<wchar_t, std::char_traits<wchar_t>, std::allocator<wchar_t> >::find_first_not_of(wchar_t const*, unsigned long long, unsigned long long) const
	_ZNKSt7__cxx1112basic_stringIwSt11char_traitsIwESaIwEE17find_first_not_ofEPKwyy @ 1396
;	std::__cxx11::basic_string<wchar_t, std::char_traits<wchar_t>, std::allocator<wchar_t> >::find_first_not_of(std::__cxx11::basic_string<wchar_t, std::char_traits<wchar_t>, std::allocator<wchar_t> > const&, unsigned long long) const
	_ZNKSt7__cxx1112basic_stringIwSt11char_traitsIwESaIwEE17find_first_not_ofERKS4_y @ 1397
;	std::__cxx11::basic_string<wchar_t, std::char_traits<wchar_t>, std::allocator<wchar_t> >::find_first_not_of(wchar_t, unsigned long long) const
	_ZNKSt7__cxx1112basic_stringIwSt11char_traitsIwESaIwEE17find_first_not_ofEwy @ 1398
;	std::__cxx11::basic_string<wchar_t, std::char_traits<wchar_t>, std::allocator<wchar_t> >::at(unsigned long long) const
	_ZNKSt7__cxx1112basic_stringIwSt11char_traitsIwESaIwEE2atEy @ 1399
;	std::__cxx11::basic_string<wchar_t, std::char_traits<wchar_t>, std::allocator<wchar_t> >::end() const
	_ZNKSt7__cxx1112basic_stringIwSt11char_traitsIwESaIwEE3endEv @ 1400
;	std::__cxx11::basic_string<wchar_t, std::char_traits<wchar_t>, std::allocator<wchar_t> >::back() const
	_ZNKSt7__cxx1112basic_stringIwSt11char_traitsIwESaIwEE4backEv @ 1401
;	std::__cxx11::basic_string<wchar_t, std::char_traits<wchar_t>, std::allocator<wchar_t> >::cend() const
	_ZNKSt7__cxx1112basic_stringIwSt11char_traitsIwESaIwEE4cendEv @ 1402
;	std::__cxx11::basic_string<wchar_t, std::char_traits<wchar_t>, std::allocator<wchar_t> >::copy(wchar_t*, unsigned long long, unsigned long long) const
	_ZNKSt7__cxx1112basic_stringIwSt11char_traitsIwESaIwEE4copyEPwyy @ 1403
;	std::__cxx11::basic_string<wchar_t, std::char_traits<wchar_t>, std::allocator<wchar_t> >::data() const
	_ZNKSt7__cxx1112basic_stringIwSt11char_traitsIwESaIwEE4dataEv @ 1404
;	std::__cxx11::basic_string<wchar_t, std::char_traits<wchar_t>, std::allocator<wchar_t> >::find(wchar_t const*, unsigned long long) const
	_ZNKSt7__cxx1112basic_stringIwSt11char_traitsIwESaIwEE4findEPKwy @ 1405
;	std::__cxx11::basic_string<wchar_t, std::char_traits<wchar_t>, std::allocator<wchar_t> >::find(wchar_t const*, unsigned long long, unsigned long long) const
	_ZNKSt7__cxx1112basic_stringIwSt11char_traitsIwESaIwEE4findEPKwyy @ 1406
;	std::__cxx11::basic_string<wchar_t, std::char_traits<wchar_t>, std::allocator<wchar_t> >::find(std::__cxx11::basic_string<wchar_t, std::char_traits<wchar_t>, std::allocator<wchar_t> > const&, unsigned long long) const
	_ZNKSt7__cxx1112basic_stringIwSt11char_traitsIwESaIwEE4findERKS4_y @ 1407
;	std::__cxx11::basic_string<wchar_t, std::char_traits<wchar_t>, std::allocator<wchar_t> >::find(wchar_t, unsigned long long) const
	_ZNKSt7__cxx1112basic_stringIwSt11char_traitsIwESaIwEE4findEwy @ 1408
;	std::__cxx11::basic_string<wchar_t, std::char_traits<wchar_t>, std::allocator<wchar_t> >::rend() const
	_ZNKSt7__cxx1112basic_stringIwSt11char_traitsIwESaIwEE4rendEv @ 1409
;	std::__cxx11::basic_string<wchar_t, std::char_traits<wchar_t>, std::allocator<wchar_t> >::size() const
	_ZNKSt7__cxx1112basic_stringIwSt11char_traitsIwESaIwEE4sizeEv @ 1410
;	std::__cxx11::basic_string<wchar_t, std::char_traits<wchar_t>, std::allocator<wchar_t> >::begin() const
	_ZNKSt7__cxx1112basic_stringIwSt11char_traitsIwESaIwEE5beginEv @ 1411
;	std::__cxx11::basic_string<wchar_t, std::char_traits<wchar_t>, std::allocator<wchar_t> >::c_str() const
	_ZNKSt7__cxx1112basic_stringIwSt11char_traitsIwESaIwEE5c_strEv @ 1412
;	std::__cxx11::basic_string<wchar_t, std::char_traits<wchar_t>, std::allocator<wchar_t> >::crend() const
	_ZNKSt7__cxx1112basic_stringIwSt11char_traitsIwESaIwEE5crendEv @ 1413
;	std::__cxx11::basic_string<wchar_t, std::char_traits<wchar_t>, std::allocator<wchar_t> >::empty() const
	_ZNKSt7__cxx1112basic_stringIwSt11char_traitsIwESaIwEE5emptyEv @ 1414
;	std::__cxx11::basic_string<wchar_t, std::char_traits<wchar_t>, std::allocator<wchar_t> >::front() const
	_ZNKSt7__cxx1112basic_stringIwSt11char_traitsIwESaIwEE5frontEv @ 1415
;	std::__cxx11::basic_string<wchar_t, std::char_traits<wchar_t>, std::allocator<wchar_t> >::rfind(wchar_t const*, unsigned long long) const
	_ZNKSt7__cxx1112basic_stringIwSt11char_traitsIwESaIwEE5rfindEPKwy @ 1416
;	std::__cxx11::basic_string<wchar_t, std::char_traits<wchar_t>, std::allocator<wchar_t> >::rfind(wchar_t const*, unsigned long long, unsigned long long) const
	_ZNKSt7__cxx1112basic_stringIwSt11char_traitsIwESaIwEE5rfindEPKwyy @ 1417
;	std::__cxx11::basic_string<wchar_t, std::char_traits<wchar_t>, std::allocator<wchar_t> >::rfind(std::__cxx11::basic_string<wchar_t, std::char_traits<wchar_t>, std::allocator<wchar_t> > const&, unsigned long long) const
	_ZNKSt7__cxx1112basic_stringIwSt11char_traitsIwESaIwEE5rfindERKS4_y @ 1418
;	std::__cxx11::basic_string<wchar_t, std::char_traits<wchar_t>, std::allocator<wchar_t> >::rfind(wchar_t, unsigned long long) const
	_ZNKSt7__cxx1112basic_stringIwSt11char_traitsIwESaIwEE5rfindEwy @ 1419
;	std::__cxx11::basic_string<wchar_t, std::char_traits<wchar_t>, std::allocator<wchar_t> >::cbegin() const
	_ZNKSt7__cxx1112basic_stringIwSt11char_traitsIwESaIwEE6cbeginEv @ 1420
;	std::__cxx11::basic_string<wchar_t, std::char_traits<wchar_t>, std::allocator<wchar_t> >::length() const
	_ZNKSt7__cxx1112basic_stringIwSt11char_traitsIwESaIwEE6lengthEv @ 1421
;	std::__cxx11::basic_string<wchar_t, std::char_traits<wchar_t>, std::allocator<wchar_t> >::rbegin() const
	_ZNKSt7__cxx1112basic_stringIwSt11char_traitsIwESaIwEE6rbeginEv @ 1422
;	std::__cxx11::basic_string<wchar_t, std::char_traits<wchar_t>, std::allocator<wchar_t> >::substr(unsigned long long, unsigned long long) const
	_ZNKSt7__cxx1112basic_stringIwSt11char_traitsIwESaIwEE6substrEyy @ 1423
;	std::__cxx11::basic_string<wchar_t, std::char_traits<wchar_t>, std::allocator<wchar_t> >::_M_data() const
	_ZNKSt7__cxx1112basic_stringIwSt11char_traitsIwESaIwEE7_M_dataEv @ 1424
;	std::__cxx11::basic_string<wchar_t, std::char_traits<wchar_t>, std::allocator<wchar_t> >::compare(wchar_t const*) const
	_ZNKSt7__cxx1112basic_stringIwSt11char_traitsIwESaIwEE7compareEPKw @ 1425
;	std::__cxx11::basic_string<wchar_t, std::char_traits<wchar_t>, std::allocator<wchar_t> >::compare(std::__cxx11::basic_string<wchar_t, std::char_traits<wchar_t>, std::allocator<wchar_t> > const&) const
	_ZNKSt7__cxx1112basic_stringIwSt11char_traitsIwESaIwEE7compareERKS4_ @ 1426
;	std::__cxx11::basic_string<wchar_t, std::char_traits<wchar_t>, std::allocator<wchar_t> >::compare(unsigned long long, unsigned long long, wchar_t const*) const
	_ZNKSt7__cxx1112basic_stringIwSt11char_traitsIwESaIwEE7compareEyyPKw @ 1427
;	std::__cxx11::basic_string<wchar_t, std::char_traits<wchar_t>, std::allocator<wchar_t> >::compare(unsigned long long, unsigned long long, wchar_t const*, unsigned long long) const
	_ZNKSt7__cxx1112basic_stringIwSt11char_traitsIwESaIwEE7compareEyyPKwy @ 1428
;	std::__cxx11::basic_string<wchar_t, std::char_traits<wchar_t>, std::allocator<wchar_t> >::compare(unsigned long long, unsigned long long, std::__cxx11::basic_string<wchar_t, std::char_traits<wchar_t>, std::allocator<wchar_t> > const&) const
	_ZNKSt7__cxx1112basic_stringIwSt11char_traitsIwESaIwEE7compareEyyRKS4_ @ 1429
;	std::__cxx11::basic_string<wchar_t, std::char_traits<wchar_t>, std::allocator<wchar_t> >::compare(unsigned long long, unsigned long long, std::__cxx11::basic_string<wchar_t, std::char_traits<wchar_t>, std::allocator<wchar_t> > const&, unsigned long long, unsigned long long) const
	_ZNKSt7__cxx1112basic_stringIwSt11char_traitsIwESaIwEE7compareEyyRKS4_yy @ 1430
;	std::__cxx11::basic_string<wchar_t, std::char_traits<wchar_t>, std::allocator<wchar_t> >::crbegin() const
	_ZNKSt7__cxx1112basic_stringIwSt11char_traitsIwESaIwEE7crbeginEv @ 1431
;	std::__cxx11::basic_string<wchar_t, std::char_traits<wchar_t>, std::allocator<wchar_t> >::_M_check(unsigned long long, char const*) const
	_ZNKSt7__cxx1112basic_stringIwSt11char_traitsIwESaIwEE8_M_checkEyPKc @ 1432
;	std::__cxx11::basic_string<wchar_t, std::char_traits<wchar_t>, std::allocator<wchar_t> >::_M_limit(unsigned long long, unsigned long long) const
	_ZNKSt7__cxx1112basic_stringIwSt11char_traitsIwESaIwEE8_M_limitEyy @ 1433
;	std::__cxx11::basic_string<wchar_t, std::char_traits<wchar_t>, std::allocator<wchar_t> >::capacity() const
	_ZNKSt7__cxx1112basic_stringIwSt11char_traitsIwESaIwEE8capacityEv @ 1434
;	std::__cxx11::basic_string<wchar_t, std::char_traits<wchar_t>, std::allocator<wchar_t> >::max_size() const
	_ZNKSt7__cxx1112basic_stringIwSt11char_traitsIwESaIwEE8max_sizeEv @ 1435
;	std::__cxx11::basic_string<wchar_t, std::char_traits<wchar_t>, std::allocator<wchar_t> >::operator[](unsigned long long) const
	_ZNKSt7__cxx1112basic_stringIwSt11char_traitsIwESaIwEEixEy @ 1436
;	std::__cxx11::basic_stringbuf<char, std::char_traits<char>, std::allocator<char> >::_M_high_mark() const
	_ZNKSt7__cxx1115basic_stringbufIcSt11char_traitsIcESaIcEE12_M_high_markEv @ 1437
;	std::__cxx11::basic_stringbuf<char, std::char_traits<char>, std::allocator<char> >::str() const
	_ZNKSt7__cxx1115basic_stringbufIcSt11char_traitsIcESaIcEE3strEv @ 1438
;	std::__cxx11::basic_stringbuf<wchar_t, std::char_traits<wchar_t>, std::allocator<wchar_t> >::_M_high_mark() const
	_ZNKSt7__cxx1115basic_stringbufIwSt11char_traitsIwESaIwEE12_M_high_markEv @ 1439
;	std::__cxx11::basic_stringbuf<wchar_t, std::char_traits<wchar_t>, std::allocator<wchar_t> >::str() const
	_ZNKSt7__cxx1115basic_stringbufIwSt11char_traitsIwESaIwEE3strEv @ 1440
;	std::__cxx11::basic_stringstream<char, std::char_traits<char>, std::allocator<char> >::str() const
	_ZNKSt7__cxx1118basic_stringstreamIcSt11char_traitsIcESaIcEE3strEv @ 1441
;	std::__cxx11::basic_stringstream<char, std::char_traits<char>, std::allocator<char> >::rdbuf() const
	_ZNKSt7__cxx1118basic_stringstreamIcSt11char_traitsIcESaIcEE5rdbufEv @ 1442
;	std::__cxx11::basic_stringstream<wchar_t, std::char_traits<wchar_t>, std::allocator<wchar_t> >::str() const
	_ZNKSt7__cxx1118basic_stringstreamIwSt11char_traitsIwESaIwEE3strEv @ 1443
;	std::__cxx11::basic_stringstream<wchar_t, std::char_traits<wchar_t>, std::allocator<wchar_t> >::rdbuf() const
	_ZNKSt7__cxx1118basic_stringstreamIwSt11char_traitsIwESaIwEE5rdbufEv @ 1444
;	std::__cxx11::basic_istringstream<char, std::char_traits<char>, std::allocator<char> >::str() const
	_ZNKSt7__cxx1119basic_istringstreamIcSt11char_traitsIcESaIcEE3strEv @ 1445
;	std::__cxx11::basic_istringstream<char, std::char_traits<char>, std::allocator<char> >::rdbuf() const
	_ZNKSt7__cxx1119basic_istringstreamIcSt11char_traitsIcESaIcEE5rdbufEv @ 1446
;	std::__cxx11::basic_istringstream<wchar_t, std::char_traits<wchar_t>, std::allocator<wchar_t> >::str() const
	_ZNKSt7__cxx1119basic_istringstreamIwSt11char_traitsIwESaIwEE3strEv @ 1447
;	std::__cxx11::basic_istringstream<wchar_t, std::char_traits<wchar_t>, std::allocator<wchar_t> >::rdbuf() const
	_ZNKSt7__cxx1119basic_istringstreamIwSt11char_traitsIwESaIwEE5rdbufEv @ 1448
;	std::__cxx11::basic_ostringstream<char, std::char_traits<char>, std::allocator<char> >::str() const
	_ZNKSt7__cxx1119basic_ostringstreamIcSt11char_traitsIcESaIcEE3strEv @ 1449
;	std::__cxx11::basic_ostringstream<char, std::char_traits<char>, std::allocator<char> >::rdbuf() const
	_ZNKSt7__cxx1119basic_ostringstreamIcSt11char_traitsIcESaIcEE5rdbufEv @ 1450
;	std::__cxx11::basic_ostringstream<wchar_t, std::char_traits<wchar_t>, std::allocator<wchar_t> >::str() const
	_ZNKSt7__cxx1119basic_ostringstreamIwSt11char_traitsIwESaIwEE3strEv @ 1451
;	std::__cxx11::basic_ostringstream<wchar_t, std::char_traits<wchar_t>, std::allocator<wchar_t> >::rdbuf() const
	_ZNKSt7__cxx1119basic_ostringstreamIwSt11char_traitsIwESaIwEE5rdbufEv @ 1452
;	std::__cxx11::collate<char>::_M_compare(char const*, char const*) const
	_ZNKSt7__cxx117collateIcE10_M_compareEPKcS3_ @ 1453
;	std::__cxx11::collate<char>::do_compare(char const*, char const*, char const*, char const*) const
	_ZNKSt7__cxx117collateIcE10do_compareEPKcS3_S3_S3_ @ 1454
;	std::__cxx11::collate<char>::_M_transform(char*, char const*, unsigned long long) const
	_ZNKSt7__cxx117collateIcE12_M_transformEPcPKcy @ 1455
;	std::__cxx11::collate<char>::do_transform(char const*, char const*) const
	_ZNKSt7__cxx117collateIcE12do_transformEPKcS3_ @ 1456
;	std::__cxx11::collate<char>::hash(char const*, char const*) const
	_ZNKSt7__cxx117collateIcE4hashEPKcS3_ @ 1457
;	std::__cxx11::collate<char>::compare(char const*, char const*, char const*, char const*) const
	_ZNKSt7__cxx117collateIcE7compareEPKcS3_S3_S3_ @ 1458
;	std::__cxx11::collate<char>::do_hash(char const*, char const*) const
	_ZNKSt7__cxx117collateIcE7do_hashEPKcS3_ @ 1459
;	std::__cxx11::collate<char>::transform(char const*, char const*) const
	_ZNKSt7__cxx117collateIcE9transformEPKcS3_ @ 1460
;	std::__cxx11::collate<wchar_t>::_M_compare(wchar_t const*, wchar_t const*) const
	_ZNKSt7__cxx117collateIwE10_M_compareEPKwS3_ @ 1461
;	std::__cxx11::collate<wchar_t>::do_compare(wchar_t const*, wchar_t const*, wchar_t const*, wchar_t const*) const
	_ZNKSt7__cxx117collateIwE10do_compareEPKwS3_S3_S3_ @ 1462
;	std::__cxx11::collate<wchar_t>::_M_transform(wchar_t*, wchar_t const*, unsigned long long) const
	_ZNKSt7__cxx117collateIwE12_M_transformEPwPKwy @ 1463
;	std::__cxx11::collate<wchar_t>::do_transform(wchar_t const*, wchar_t const*) const
	_ZNKSt7__cxx117collateIwE12do_transformEPKwS3_ @ 1464
;	std::__cxx11::collate<wchar_t>::hash(wchar_t const*, wchar_t const*) const
	_ZNKSt7__cxx117collateIwE4hashEPKwS3_ @ 1465
;	std::__cxx11::collate<wchar_t>::compare(wchar_t const*, wchar_t const*, wchar_t const*, wchar_t const*) const
	_ZNKSt7__cxx117collateIwE7compareEPKwS3_S3_S3_ @ 1466
;	std::__cxx11::collate<wchar_t>::do_hash(wchar_t const*, wchar_t const*) const
	_ZNKSt7__cxx117collateIwE7do_hashEPKwS3_ @ 1467
;	std::__cxx11::collate<wchar_t>::transform(wchar_t const*, wchar_t const*) const
	_ZNKSt7__cxx117collateIwE9transformEPKwS3_ @ 1468
;	std::__cxx11::messages<char>::_M_convert_to_char(std::__cxx11::basic_string<char, std::char_traits<char>, std::allocator<char> > const&) const
	_ZNKSt7__cxx118messagesIcE18_M_convert_to_charERKNS_12basic_stringIcSt11char_traitsIcESaIcEEE @ 1469
;	std::__cxx11::messages<char>::_M_convert_from_char(char*) const
	_ZNKSt7__cxx118messagesIcE20_M_convert_from_charEPc @ 1470
;	std::__cxx11::messages<char>::get(int, int, int, std::__cxx11::basic_string<char, std::char_traits<char>, std::allocator<char> > const&) const
	_ZNKSt7__cxx118messagesIcE3getEiiiRKNS_12basic_stringIcSt11char_traitsIcESaIcEEE @ 1471
;	std::__cxx11::messages<char>::open(std::__cxx11::basic_string<char, std::char_traits<char>, std::allocator<char> > const&, std::locale const&) const
	_ZNKSt7__cxx118messagesIcE4openERKNS_12basic_stringIcSt11char_traitsIcESaIcEEERKSt6locale @ 1472
;	std::__cxx11::messages<char>::open(std::__cxx11::basic_string<char, std::char_traits<char>, std::allocator<char> > const&, std::locale const&, char const*) const
	_ZNKSt7__cxx118messagesIcE4openERKNS_12basic_stringIcSt11char_traitsIcESaIcEEERKSt6localePKc @ 1473
;	std::__cxx11::messages<char>::close(int) const
	_ZNKSt7__cxx118messagesIcE5closeEi @ 1474
;	std::__cxx11::messages<char>::do_get(int, int, int, std::__cxx11::basic_string<char, std::char_traits<char>, std::allocator<char> > const&) const
	_ZNKSt7__cxx118messagesIcE6do_getEiiiRKNS_12basic_stringIcSt11char_traitsIcESaIcEEE @ 1475
;	std::__cxx11::messages<char>::do_open(std::__cxx11::basic_string<char, std::char_traits<char>, std::allocator<char> > const&, std::locale const&) const
	_ZNKSt7__cxx118messagesIcE7do_openERKNS_12basic_stringIcSt11char_traitsIcESaIcEEERKSt6locale @ 1476
;	std::__cxx11::messages<char>::do_close(int) const
	_ZNKSt7__cxx118messagesIcE8do_closeEi @ 1477
;	std::__cxx11::messages<wchar_t>::_M_convert_to_char(std::__cxx11::basic_string<wchar_t, std::char_traits<wchar_t>, std::allocator<wchar_t> > const&) const
	_ZNKSt7__cxx118messagesIwE18_M_convert_to_charERKNS_12basic_stringIwSt11char_traitsIwESaIwEEE @ 1478
;	std::__cxx11::messages<wchar_t>::_M_convert_from_char(char*) const
	_ZNKSt7__cxx118messagesIwE20_M_convert_from_charEPc @ 1479
;	std::__cxx11::messages<wchar_t>::get(int, int, int, std::__cxx11::basic_string<wchar_t, std::char_traits<wchar_t>, std::allocator<wchar_t> > const&) const
	_ZNKSt7__cxx118messagesIwE3getEiiiRKNS_12basic_stringIwSt11char_traitsIwESaIwEEE @ 1480
;	std::__cxx11::messages<wchar_t>::open(std::__cxx11::basic_string<char, std::char_traits<char>, std::allocator<char> > const&, std::locale const&) const
	_ZNKSt7__cxx118messagesIwE4openERKNS_12basic_stringIcSt11char_traitsIcESaIcEEERKSt6locale @ 1481
;	std::__cxx11::messages<wchar_t>::open(std::__cxx11::basic_string<char, std::char_traits<char>, std::allocator<char> > const&, std::locale const&, char const*) const
	_ZNKSt7__cxx118messagesIwE4openERKNS_12basic_stringIcSt11char_traitsIcESaIcEEERKSt6localePKc @ 1482
;	std::__cxx11::messages<wchar_t>::close(int) const
	_ZNKSt7__cxx118messagesIwE5closeEi @ 1483
;	std::__cxx11::messages<wchar_t>::do_get(int, int, int, std::__cxx11::basic_string<wchar_t, std::char_traits<wchar_t>, std::allocator<wchar_t> > const&) const
	_ZNKSt7__cxx118messagesIwE6do_getEiiiRKNS_12basic_stringIwSt11char_traitsIwESaIwEEE @ 1484
;	std::__cxx11::messages<wchar_t>::do_open(std::__cxx11::basic_string<char, std::char_traits<char>, std::allocator<char> > const&, std::locale const&) const
	_ZNKSt7__cxx118messagesIwE7do_openERKNS_12basic_stringIcSt11char_traitsIcESaIcEEERKSt6locale @ 1485
;	std::__cxx11::messages<wchar_t>::do_close(int) const
	_ZNKSt7__cxx118messagesIwE8do_closeEi @ 1486
;	std::__cxx11::numpunct<char>::do_grouping() const
	_ZNKSt7__cxx118numpunctIcE11do_groupingEv @ 1487
;	std::__cxx11::numpunct<char>::do_truename() const
	_ZNKSt7__cxx118numpunctIcE11do_truenameEv @ 1488
;	std::__cxx11::numpunct<char>::do_falsename() const
	_ZNKSt7__cxx118numpunctIcE12do_falsenameEv @ 1489
;	std::__cxx11::numpunct<char>::decimal_point() const
	_ZNKSt7__cxx118numpunctIcE13decimal_pointEv @ 1490
;	std::__cxx11::numpunct<char>::thousands_sep() const
	_ZNKSt7__cxx118numpunctIcE13thousands_sepEv @ 1491
;	std::__cxx11::numpunct<char>::do_decimal_point() const
	_ZNKSt7__cxx118numpunctIcE16do_decimal_pointEv @ 1492
;	std::__cxx11::numpunct<char>::do_thousands_sep() const
	_ZNKSt7__cxx118numpunctIcE16do_thousands_sepEv @ 1493
;	std::__cxx11::numpunct<char>::grouping() const
	_ZNKSt7__cxx118numpunctIcE8groupingEv @ 1494
;	std::__cxx11::numpunct<char>::truename() const
	_ZNKSt7__cxx118numpunctIcE8truenameEv @ 1495
;	std::__cxx11::numpunct<char>::falsename() const
	_ZNKSt7__cxx118numpunctIcE9falsenameEv @ 1496
;	std::__cxx11::numpunct<wchar_t>::do_grouping() const
	_ZNKSt7__cxx118numpunctIwE11do_groupingEv @ 1497
;	std::__cxx11::numpunct<wchar_t>::do_truename() const
	_ZNKSt7__cxx118numpunctIwE11do_truenameEv @ 1498
;	std::__cxx11::numpunct<wchar_t>::do_falsename() const
	_ZNKSt7__cxx118numpunctIwE12do_falsenameEv @ 1499
;	std::__cxx11::numpunct<wchar_t>::decimal_point() const
	_ZNKSt7__cxx118numpunctIwE13decimal_pointEv @ 1500
;	std::__cxx11::numpunct<wchar_t>::thousands_sep() const
	_ZNKSt7__cxx118numpunctIwE13thousands_sepEv @ 1501
;	std::__cxx11::numpunct<wchar_t>::do_decimal_point() const
	_ZNKSt7__cxx118numpunctIwE16do_decimal_pointEv @ 1502
;	std::__cxx11::numpunct<wchar_t>::do_thousands_sep() const
	_ZNKSt7__cxx118numpunctIwE16do_thousands_sepEv @ 1503
;	std::__cxx11::numpunct<wchar_t>::grouping() const
	_ZNKSt7__cxx118numpunctIwE8groupingEv @ 1504
;	std::__cxx11::numpunct<wchar_t>::truename() const
	_ZNKSt7__cxx118numpunctIwE8truenameEv @ 1505
;	std::__cxx11::numpunct<wchar_t>::falsename() const
	_ZNKSt7__cxx118numpunctIwE9falsenameEv @ 1506
;	std::__cxx11::time_get<char, std::istreambuf_iterator<char, std::char_traits<char> > >::date_order() const
	_ZNKSt7__cxx118time_getIcSt19istreambuf_iteratorIcSt11char_traitsIcEEE10date_orderEv @ 1507
;	std::__cxx11::time_get<char, std::istreambuf_iterator<char, std::char_traits<char> > >::do_get_date(std::istreambuf_iterator<char, std::char_traits<char> >, std::istreambuf_iterator<char, std::char_traits<char> >, std::ios_base&, std::_Ios_Iostate&, tm*) const
	_ZNKSt7__cxx118time_getIcSt19istreambuf_iteratorIcSt11char_traitsIcEEE11do_get_dateES4_S4_RSt8ios_baseRSt12_Ios_IostateP2tm @ 1508
;	std::__cxx11::time_get<char, std::istreambuf_iterator<char, std::char_traits<char> > >::do_get_time(std::istreambuf_iterator<char, std::char_traits<char> >, std::istreambuf_iterator<char, std::char_traits<char> >, std::ios_base&, std::_Ios_Iostate&, tm*) const
	_ZNKSt7__cxx118time_getIcSt19istreambuf_iteratorIcSt11char_traitsIcEEE11do_get_timeES4_S4_RSt8ios_baseRSt12_Ios_IostateP2tm @ 1509
;	std::__cxx11::time_get<char, std::istreambuf_iterator<char, std::char_traits<char> > >::do_get_year(std::istreambuf_iterator<char, std::char_traits<char> >, std::istreambuf_iterator<char, std::char_traits<char> >, std::ios_base&, std::_Ios_Iostate&, tm*) const
	_ZNKSt7__cxx118time_getIcSt19istreambuf_iteratorIcSt11char_traitsIcEEE11do_get_yearES4_S4_RSt8ios_baseRSt12_Ios_IostateP2tm @ 1510
;	std::__cxx11::time_get<char, std::istreambuf_iterator<char, std::char_traits<char> > >::get_weekday(std::istreambuf_iterator<char, std::char_traits<char> >, std::istreambuf_iterator<char, std::char_traits<char> >, std::ios_base&, std::_Ios_Iostate&, tm*) const
	_ZNKSt7__cxx118time_getIcSt19istreambuf_iteratorIcSt11char_traitsIcEEE11get_weekdayES4_S4_RSt8ios_baseRSt12_Ios_IostateP2tm @ 1511
;	std::__cxx11::time_get<char, std::istreambuf_iterator<char, std::char_traits<char> > >::do_date_order() const
	_ZNKSt7__cxx118time_getIcSt19istreambuf_iteratorIcSt11char_traitsIcEEE13do_date_orderEv @ 1512
;	std::__cxx11::time_get<char, std::istreambuf_iterator<char, std::char_traits<char> > >::get_monthname(std::istreambuf_iterator<char, std::char_traits<char> >, std::istreambuf_iterator<char, std::char_traits<char> >, std::ios_base&, std::_Ios_Iostate&, tm*) const
	_ZNKSt7__cxx118time_getIcSt19istreambuf_iteratorIcSt11char_traitsIcEEE13get_monthnameES4_S4_RSt8ios_baseRSt12_Ios_IostateP2tm @ 1513
;	std::__cxx11::time_get<char, std::istreambuf_iterator<char, std::char_traits<char> > >::_M_extract_num(std::istreambuf_iterator<char, std::char_traits<char> >, std::istreambuf_iterator<char, std::char_traits<char> >, int&, int, int, unsigned long long, std::ios_base&, std::_Ios_Iostate&) const
	_ZNKSt7__cxx118time_getIcSt19istreambuf_iteratorIcSt11char_traitsIcEEE14_M_extract_numES4_S4_RiiiyRSt8ios_baseRSt12_Ios_Iostate @ 1514
;	std::__cxx11::time_get<char, std::istreambuf_iterator<char, std::char_traits<char> > >::do_get_weekday(std::istreambuf_iterator<char, std::char_traits<char> >, std::istreambuf_iterator<char, std::char_traits<char> >, std::ios_base&, std::_Ios_Iostate&, tm*) const
	_ZNKSt7__cxx118time_getIcSt19istreambuf_iteratorIcSt11char_traitsIcEEE14do_get_weekdayES4_S4_RSt8ios_baseRSt12_Ios_IostateP2tm @ 1515
;	std::__cxx11::time_get<char, std::istreambuf_iterator<char, std::char_traits<char> > >::_M_extract_name(std::istreambuf_iterator<char, std::char_traits<char> >, std::istreambuf_iterator<char, std::char_traits<char> >, int&, char const**, unsigned long long, std::ios_base&, std::_Ios_Iostate&) const
	_ZNKSt7__cxx118time_getIcSt19istreambuf_iteratorIcSt11char_traitsIcEEE15_M_extract_nameES4_S4_RiPPKcyRSt8ios_baseRSt12_Ios_Iostate @ 1516
;	std::__cxx11::time_get<char, std::istreambuf_iterator<char, std::char_traits<char> > >::do_get_monthname(std::istreambuf_iterator<char, std::char_traits<char> >, std::istreambuf_iterator<char, std::char_traits<char> >, std::ios_base&, std::_Ios_Iostate&, tm*) const
	_ZNKSt7__cxx118time_getIcSt19istreambuf_iteratorIcSt11char_traitsIcEEE16do_get_monthnameES4_S4_RSt8ios_baseRSt12_Ios_IostateP2tm @ 1517
;	std::__cxx11::time_get<char, std::istreambuf_iterator<char, std::char_traits<char> > >::_M_extract_via_format(std::istreambuf_iterator<char, std::char_traits<char> >, std::istreambuf_iterator<char, std::char_traits<char> >, std::ios_base&, std::_Ios_Iostate&, tm*, char const*) const
	_ZNKSt7__cxx118time_getIcSt19istreambuf_iteratorIcSt11char_traitsIcEEE21_M_extract_via_formatES4_S4_RSt8ios_baseRSt12_Ios_IostateP2tmPKc @ 1518
;	std::__cxx11::time_get<char, std::istreambuf_iterator<char, std::char_traits<char> > >::_M_extract_via_format(std::istreambuf_iterator<char, std::char_traits<char> >, std::istreambuf_iterator<char, std::char_traits<char> >, std::ios_base&, std::_Ios_Iostate&, tm*, char const*, std::__time_get_state&) const
	_ZNKSt7__cxx118time_getIcSt19istreambuf_iteratorIcSt11char_traitsIcEEE21_M_extract_via_formatES4_S4_RSt8ios_baseRSt12_Ios_IostateP2tmPKcRSt16__time_get_state @ 1519
;	std::__cxx11::time_get<char, std::istreambuf_iterator<char, std::char_traits<char> > >::_M_extract_wday_or_month(std::istreambuf_iterator<char, std::char_traits<char> >, std::istreambuf_iterator<char, std::char_traits<char> >, int&, char const**, unsigned long long, std::ios_base&, std::_Ios_Iostate&) const
	_ZNKSt7__cxx118time_getIcSt19istreambuf_iteratorIcSt11char_traitsIcEEE24_M_extract_wday_or_monthES4_S4_RiPPKcyRSt8ios_baseRSt12_Ios_Iostate @ 1520
;	std::__cxx11::time_get<char, std::istreambuf_iterator<char, std::char_traits<char> > >::get(std::istreambuf_iterator<char, std::char_traits<char> >, std::istreambuf_iterator<char, std::char_traits<char> >, std::ios_base&, std::_Ios_Iostate&, tm*, char const*, char const*) const
	_ZNKSt7__cxx118time_getIcSt19istreambuf_iteratorIcSt11char_traitsIcEEE3getES4_S4_RSt8ios_baseRSt12_Ios_IostateP2tmPKcSD_ @ 1521
;	std::__cxx11::time_get<char, std::istreambuf_iterator<char, std::char_traits<char> > >::get(std::istreambuf_iterator<char, std::char_traits<char> >, std::istreambuf_iterator<char, std::char_traits<char> >, std::ios_base&, std::_Ios_Iostate&, tm*, char, char) const
	_ZNKSt7__cxx118time_getIcSt19istreambuf_iteratorIcSt11char_traitsIcEEE3getES4_S4_RSt8ios_baseRSt12_Ios_IostateP2tmcc @ 1522
;	std::__cxx11::time_get<char, std::istreambuf_iterator<char, std::char_traits<char> > >::do_get(std::istreambuf_iterator<char, std::char_traits<char> >, std::istreambuf_iterator<char, std::char_traits<char> >, std::ios_base&, std::_Ios_Iostate&, tm*, char, char) const
	_ZNKSt7__cxx118time_getIcSt19istreambuf_iteratorIcSt11char_traitsIcEEE6do_getES4_S4_RSt8ios_baseRSt12_Ios_IostateP2tmcc @ 1523
;	std::__cxx11::time_get<char, std::istreambuf_iterator<char, std::char_traits<char> > >::get_date(std::istreambuf_iterator<char, std::char_traits<char> >, std::istreambuf_iterator<char, std::char_traits<char> >, std::ios_base&, std::_Ios_Iostate&, tm*) const
	_ZNKSt7__cxx118time_getIcSt19istreambuf_iteratorIcSt11char_traitsIcEEE8get_dateES4_S4_RSt8ios_baseRSt12_Ios_IostateP2tm @ 1524
;	std::__cxx11::time_get<char, std::istreambuf_iterator<char, std::char_traits<char> > >::get_time(std::istreambuf_iterator<char, std::char_traits<char> >, std::istreambuf_iterator<char, std::char_traits<char> >, std::ios_base&, std::_Ios_Iostate&, tm*) const
	_ZNKSt7__cxx118time_getIcSt19istreambuf_iteratorIcSt11char_traitsIcEEE8get_timeES4_S4_RSt8ios_baseRSt12_Ios_IostateP2tm @ 1525
;	std::__cxx11::time_get<char, std::istreambuf_iterator<char, std::char_traits<char> > >::get_year(std::istreambuf_iterator<char, std::char_traits<char> >, std::istreambuf_iterator<char, std::char_traits<char> >, std::ios_base&, std::_Ios_Iostate&, tm*) const
	_ZNKSt7__cxx118time_getIcSt19istreambuf_iteratorIcSt11char_traitsIcEEE8get_yearES4_S4_RSt8ios_baseRSt12_Ios_IostateP2tm @ 1526
;	std::__cxx11::time_get<wchar_t, std::istreambuf_iterator<wchar_t, std::char_traits<wchar_t> > >::date_order() const
	_ZNKSt7__cxx118time_getIwSt19istreambuf_iteratorIwSt11char_traitsIwEEE10date_orderEv @ 1527
;	std::__cxx11::time_get<wchar_t, std::istreambuf_iterator<wchar_t, std::char_traits<wchar_t> > >::do_get_date(std::istreambuf_iterator<wchar_t, std::char_traits<wchar_t> >, std::istreambuf_iterator<wchar_t, std::char_traits<wchar_t> >, std::ios_base&, std::_Ios_Iostate&, tm*) const
	_ZNKSt7__cxx118time_getIwSt19istreambuf_iteratorIwSt11char_traitsIwEEE11do_get_dateES4_S4_RSt8ios_baseRSt12_Ios_IostateP2tm @ 1528
;	std::__cxx11::time_get<wchar_t, std::istreambuf_iterator<wchar_t, std::char_traits<wchar_t> > >::do_get_time(std::istreambuf_iterator<wchar_t, std::char_traits<wchar_t> >, std::istreambuf_iterator<wchar_t, std::char_traits<wchar_t> >, std::ios_base&, std::_Ios_Iostate&, tm*) const
	_ZNKSt7__cxx118time_getIwSt19istreambuf_iteratorIwSt11char_traitsIwEEE11do_get_timeES4_S4_RSt8ios_baseRSt12_Ios_IostateP2tm @ 1529
;	std::__cxx11::time_get<wchar_t, std::istreambuf_iterator<wchar_t, std::char_traits<wchar_t> > >::do_get_year(std::istreambuf_iterator<wchar_t, std::char_traits<wchar_t> >, std::istreambuf_iterator<wchar_t, std::char_traits<wchar_t> >, std::ios_base&, std::_Ios_Iostate&, tm*) const
	_ZNKSt7__cxx118time_getIwSt19istreambuf_iteratorIwSt11char_traitsIwEEE11do_get_yearES4_S4_RSt8ios_baseRSt12_Ios_IostateP2tm @ 1530
;	std::__cxx11::time_get<wchar_t, std::istreambuf_iterator<wchar_t, std::char_traits<wchar_t> > >::get_weekday(std::istreambuf_iterator<wchar_t, std::char_traits<wchar_t> >, std::istreambuf_iterator<wchar_t, std::char_traits<wchar_t> >, std::ios_base&, std::_Ios_Iostate&, tm*) const
	_ZNKSt7__cxx118time_getIwSt19istreambuf_iteratorIwSt11char_traitsIwEEE11get_weekdayES4_S4_RSt8ios_baseRSt12_Ios_IostateP2tm @ 1531
;	std::__cxx11::time_get<wchar_t, std::istreambuf_iterator<wchar_t, std::char_traits<wchar_t> > >::do_date_order() const
	_ZNKSt7__cxx118time_getIwSt19istreambuf_iteratorIwSt11char_traitsIwEEE13do_date_orderEv @ 1532
;	std::__cxx11::time_get<wchar_t, std::istreambuf_iterator<wchar_t, std::char_traits<wchar_t> > >::get_monthname(std::istreambuf_iterator<wchar_t, std::char_traits<wchar_t> >, std::istreambuf_iterator<wchar_t, std::char_traits<wchar_t> >, std::ios_base&, std::_Ios_Iostate&, tm*) const
	_ZNKSt7__cxx118time_getIwSt19istreambuf_iteratorIwSt11char_traitsIwEEE13get_monthnameES4_S4_RSt8ios_baseRSt12_Ios_IostateP2tm @ 1533
;	std::__cxx11::time_get<wchar_t, std::istreambuf_iterator<wchar_t, std::char_traits<wchar_t> > >::_M_extract_num(std::istreambuf_iterator<wchar_t, std::char_traits<wchar_t> >, std::istreambuf_iterator<wchar_t, std::char_traits<wchar_t> >, int&, int, int, unsigned long long, std::ios_base&, std::_Ios_Iostate&) const
	_ZNKSt7__cxx118time_getIwSt19istreambuf_iteratorIwSt11char_traitsIwEEE14_M_extract_numES4_S4_RiiiyRSt8ios_baseRSt12_Ios_Iostate @ 1534
;	std::__cxx11::time_get<wchar_t, std::istreambuf_iterator<wchar_t, std::char_traits<wchar_t> > >::do_get_weekday(std::istreambuf_iterator<wchar_t, std::char_traits<wchar_t> >, std::istreambuf_iterator<wchar_t, std::char_traits<wchar_t> >, std::ios_base&, std::_Ios_Iostate&, tm*) const
	_ZNKSt7__cxx118time_getIwSt19istreambuf_iteratorIwSt11char_traitsIwEEE14do_get_weekdayES4_S4_RSt8ios_baseRSt12_Ios_IostateP2tm @ 1535
;	std::__cxx11::time_get<wchar_t, std::istreambuf_iterator<wchar_t, std::char_traits<wchar_t> > >::_M_extract_name(std::istreambuf_iterator<wchar_t, std::char_traits<wchar_t> >, std::istreambuf_iterator<wchar_t, std::char_traits<wchar_t> >, int&, wchar_t const**, unsigned long long, std::ios_base&, std::_Ios_Iostate&) const
	_ZNKSt7__cxx118time_getIwSt19istreambuf_iteratorIwSt11char_traitsIwEEE15_M_extract_nameES4_S4_RiPPKwyRSt8ios_baseRSt12_Ios_Iostate @ 1536
;	std::__cxx11::time_get<wchar_t, std::istreambuf_iterator<wchar_t, std::char_traits<wchar_t> > >::do_get_monthname(std::istreambuf_iterator<wchar_t, std::char_traits<wchar_t> >, std::istreambuf_iterator<wchar_t, std::char_traits<wchar_t> >, std::ios_base&, std::_Ios_Iostate&, tm*) const
	_ZNKSt7__cxx118time_getIwSt19istreambuf_iteratorIwSt11char_traitsIwEEE16do_get_monthnameES4_S4_RSt8ios_baseRSt12_Ios_IostateP2tm @ 1537
;	std::__cxx11::time_get<wchar_t, std::istreambuf_iterator<wchar_t, std::char_traits<wchar_t> > >::_M_extract_via_format(std::istreambuf_iterator<wchar_t, std::char_traits<wchar_t> >, std::istreambuf_iterator<wchar_t, std::char_traits<wchar_t> >, std::ios_base&, std::_Ios_Iostate&, tm*, wchar_t const*) const
	_ZNKSt7__cxx118time_getIwSt19istreambuf_iteratorIwSt11char_traitsIwEEE21_M_extract_via_formatES4_S4_RSt8ios_baseRSt12_Ios_IostateP2tmPKw @ 1538
;	std::__cxx11::time_get<wchar_t, std::istreambuf_iterator<wchar_t, std::char_traits<wchar_t> > >::_M_extract_via_format(std::istreambuf_iterator<wchar_t, std::char_traits<wchar_t> >, std::istreambuf_iterator<wchar_t, std::char_traits<wchar_t> >, std::ios_base&, std::_Ios_Iostate&, tm*, wchar_t const*, std::__time_get_state&) const
	_ZNKSt7__cxx118time_getIwSt19istreambuf_iteratorIwSt11char_traitsIwEEE21_M_extract_via_formatES4_S4_RSt8ios_baseRSt12_Ios_IostateP2tmPKwRSt16__time_get_state @ 1539
;	std::__cxx11::time_get<wchar_t, std::istreambuf_iterator<wchar_t, std::char_traits<wchar_t> > >::_M_extract_wday_or_month(std::istreambuf_iterator<wchar_t, std::char_traits<wchar_t> >, std::istreambuf_iterator<wchar_t, std::char_traits<wchar_t> >, int&, wchar_t const**, unsigned long long, std::ios_base&, std::_Ios_Iostate&) const
	_ZNKSt7__cxx118time_getIwSt19istreambuf_iteratorIwSt11char_traitsIwEEE24_M_extract_wday_or_monthES4_S4_RiPPKwyRSt8ios_baseRSt12_Ios_Iostate @ 1540
;	std::__cxx11::time_get<wchar_t, std::istreambuf_iterator<wchar_t, std::char_traits<wchar_t> > >::get(std::istreambuf_iterator<wchar_t, std::char_traits<wchar_t> >, std::istreambuf_iterator<wchar_t, std::char_traits<wchar_t> >, std::ios_base&, std::_Ios_Iostate&, tm*, wchar_t const*, wchar_t const*) const
	_ZNKSt7__cxx118time_getIwSt19istreambuf_iteratorIwSt11char_traitsIwEEE3getES4_S4_RSt8ios_baseRSt12_Ios_IostateP2tmPKwSD_ @ 1541
;	std::__cxx11::time_get<wchar_t, std::istreambuf_iterator<wchar_t, std::char_traits<wchar_t> > >::get(std::istreambuf_iterator<wchar_t, std::char_traits<wchar_t> >, std::istreambuf_iterator<wchar_t, std::char_traits<wchar_t> >, std::ios_base&, std::_Ios_Iostate&, tm*, char, char) const
	_ZNKSt7__cxx118time_getIwSt19istreambuf_iteratorIwSt11char_traitsIwEEE3getES4_S4_RSt8ios_baseRSt12_Ios_IostateP2tmcc @ 1542
;	std::__cxx11::time_get<wchar_t, std::istreambuf_iterator<wchar_t, std::char_traits<wchar_t> > >::do_get(std::istreambuf_iterator<wchar_t, std::char_traits<wchar_t> >, std::istreambuf_iterator<wchar_t, std::char_traits<wchar_t> >, std::ios_base&, std::_Ios_Iostate&, tm*, char, char) const
	_ZNKSt7__cxx118time_getIwSt19istreambuf_iteratorIwSt11char_traitsIwEEE6do_getES4_S4_RSt8ios_baseRSt12_Ios_IostateP2tmcc @ 1543
;	std::__cxx11::time_get<wchar_t, std::istreambuf_iterator<wchar_t, std::char_traits<wchar_t> > >::get_date(std::istreambuf_iterator<wchar_t, std::char_traits<wchar_t> >, std::istreambuf_iterator<wchar_t, std::char_traits<wchar_t> >, std::ios_base&, std::_Ios_Iostate&, tm*) const
	_ZNKSt7__cxx118time_getIwSt19istreambuf_iteratorIwSt11char_traitsIwEEE8get_dateES4_S4_RSt8ios_baseRSt12_Ios_IostateP2tm @ 1544
;	std::__cxx11::time_get<wchar_t, std::istreambuf_iterator<wchar_t, std::char_traits<wchar_t> > >::get_time(std::istreambuf_iterator<wchar_t, std::char_traits<wchar_t> >, std::istreambuf_iterator<wchar_t, std::char_traits<wchar_t> >, std::ios_base&, std::_Ios_Iostate&, tm*) const
	_ZNKSt7__cxx118time_getIwSt19istreambuf_iteratorIwSt11char_traitsIwEEE8get_timeES4_S4_RSt8ios_baseRSt12_Ios_IostateP2tm @ 1545
;	std::__cxx11::time_get<wchar_t, std::istreambuf_iterator<wchar_t, std::char_traits<wchar_t> > >::get_year(std::istreambuf_iterator<wchar_t, std::char_traits<wchar_t> >, std::istreambuf_iterator<wchar_t, std::char_traits<wchar_t> >, std::ios_base&, std::_Ios_Iostate&, tm*) const
	_ZNKSt7__cxx118time_getIwSt19istreambuf_iteratorIwSt11char_traitsIwEEE8get_yearES4_S4_RSt8ios_baseRSt12_Ios_IostateP2tm @ 1546
;	std::istreambuf_iterator<char, std::char_traits<char> > std::__cxx11::money_get<char, std::istreambuf_iterator<char, std::char_traits<char> > >::_M_extract<false>(std::istreambuf_iterator<char, std::char_traits<char> >, std::istreambuf_iterator<char, std::char_traits<char> >, std::ios_base&, std::_Ios_Iostate&, std::__cxx11::basic_string<char, std::char_traits<char>, std::allocator<char> >&) const
	_ZNKSt7__cxx119money_getIcSt19istreambuf_iteratorIcSt11char_traitsIcEEE10_M_extractILb0EEES4_S4_S4_RSt8ios_baseRSt12_Ios_IostateRNS_12basic_stringIcS3_SaIcEEE @ 1547
;	std::istreambuf_iterator<char, std::char_traits<char> > std::__cxx11::money_get<char, std::istreambuf_iterator<char, std::char_traits<char> > >::_M_extract<true>(std::istreambuf_iterator<char, std::char_traits<char> >, std::istreambuf_iterator<char, std::char_traits<char> >, std::ios_base&, std::_Ios_Iostate&, std::__cxx11::basic_string<char, std::char_traits<char>, std::allocator<char> >&) const
	_ZNKSt7__cxx119money_getIcSt19istreambuf_iteratorIcSt11char_traitsIcEEE10_M_extractILb1EEES4_S4_S4_RSt8ios_baseRSt12_Ios_IostateRNS_12basic_stringIcS3_SaIcEEE @ 1548
;	std::__cxx11::money_get<char, std::istreambuf_iterator<char, std::char_traits<char> > >::get(std::istreambuf_iterator<char, std::char_traits<char> >, std::istreambuf_iterator<char, std::char_traits<char> >, bool, std::ios_base&, std::_Ios_Iostate&, std::__cxx11::basic_string<char, std::char_traits<char>, std::allocator<char> >&) const
	_ZNKSt7__cxx119money_getIcSt19istreambuf_iteratorIcSt11char_traitsIcEEE3getES4_S4_bRSt8ios_baseRSt12_Ios_IostateRNS_12basic_stringIcS3_SaIcEEE @ 1549
;	std::__cxx11::money_get<char, std::istreambuf_iterator<char, std::char_traits<char> > >::get(std::istreambuf_iterator<char, std::char_traits<char> >, std::istreambuf_iterator<char, std::char_traits<char> >, bool, std::ios_base&, std::_Ios_Iostate&, long double&) const
	_ZNKSt7__cxx119money_getIcSt19istreambuf_iteratorIcSt11char_traitsIcEEE3getES4_S4_bRSt8ios_baseRSt12_Ios_IostateRe @ 1550
;	std::__cxx11::money_get<char, std::istreambuf_iterator<char, std::char_traits<char> > >::do_get(std::istreambuf_iterator<char, std::char_traits<char> >, std::istreambuf_iterator<char, std::char_traits<char> >, bool, std::ios_base&, std::_Ios_Iostate&, std::__cxx11::basic_string<char, std::char_traits<char>, std::allocator<char> >&) const
	_ZNKSt7__cxx119money_getIcSt19istreambuf_iteratorIcSt11char_traitsIcEEE6do_getES4_S4_bRSt8ios_baseRSt12_Ios_IostateRNS_12basic_stringIcS3_SaIcEEE @ 1551
;	std::__cxx11::money_get<char, std::istreambuf_iterator<char, std::char_traits<char> > >::do_get(std::istreambuf_iterator<char, std::char_traits<char> >, std::istreambuf_iterator<char, std::char_traits<char> >, bool, std::ios_base&, std::_Ios_Iostate&, long double&) const
	_ZNKSt7__cxx119money_getIcSt19istreambuf_iteratorIcSt11char_traitsIcEEE6do_getES4_S4_bRSt8ios_baseRSt12_Ios_IostateRe @ 1552
;	std::istreambuf_iterator<wchar_t, std::char_traits<wchar_t> > std::__cxx11::money_get<wchar_t, std::istreambuf_iterator<wchar_t, std::char_traits<wchar_t> > >::_M_extract<false>(std::istreambuf_iterator<wchar_t, std::char_traits<wchar_t> >, std::istreambuf_iterator<wchar_t, std::char_traits<wchar_t> >, std::ios_base&, std::_Ios_Iostate&, std::__cxx11::basic_string<char, std::char_traits<char>, std::allocator<char> >&) const
	_ZNKSt7__cxx119money_getIwSt19istreambuf_iteratorIwSt11char_traitsIwEEE10_M_extractILb0EEES4_S4_S4_RSt8ios_baseRSt12_Ios_IostateRNS_12basic_stringIcS2_IcESaIcEEE @ 1553
;	std::istreambuf_iterator<wchar_t, std::char_traits<wchar_t> > std::__cxx11::money_get<wchar_t, std::istreambuf_iterator<wchar_t, std::char_traits<wchar_t> > >::_M_extract<true>(std::istreambuf_iterator<wchar_t, std::char_traits<wchar_t> >, std::istreambuf_iterator<wchar_t, std::char_traits<wchar_t> >, std::ios_base&, std::_Ios_Iostate&, std::__cxx11::basic_string<char, std::char_traits<char>, std::allocator<char> >&) const
	_ZNKSt7__cxx119money_getIwSt19istreambuf_iteratorIwSt11char_traitsIwEEE10_M_extractILb1EEES4_S4_S4_RSt8ios_baseRSt12_Ios_IostateRNS_12basic_stringIcS2_IcESaIcEEE @ 1554
;	std::__cxx11::money_get<wchar_t, std::istreambuf_iterator<wchar_t, std::char_traits<wchar_t> > >::get(std::istreambuf_iterator<wchar_t, std::char_traits<wchar_t> >, std::istreambuf_iterator<wchar_t, std::char_traits<wchar_t> >, bool, std::ios_base&, std::_Ios_Iostate&, std::__cxx11::basic_string<wchar_t, std::char_traits<wchar_t>, std::allocator<wchar_t> >&) const
	_ZNKSt7__cxx119money_getIwSt19istreambuf_iteratorIwSt11char_traitsIwEEE3getES4_S4_bRSt8ios_baseRSt12_Ios_IostateRNS_12basic_stringIwS3_SaIwEEE @ 1555
;	std::__cxx11::money_get<wchar_t, std::istreambuf_iterator<wchar_t, std::char_traits<wchar_t> > >::get(std::istreambuf_iterator<wchar_t, std::char_traits<wchar_t> >, std::istreambuf_iterator<wchar_t, std::char_traits<wchar_t> >, bool, std::ios_base&, std::_Ios_Iostate&, long double&) const
	_ZNKSt7__cxx119money_getIwSt19istreambuf_iteratorIwSt11char_traitsIwEEE3getES4_S4_bRSt8ios_baseRSt12_Ios_IostateRe @ 1556
;	std::__cxx11::money_get<wchar_t, std::istreambuf_iterator<wchar_t, std::char_traits<wchar_t> > >::do_get(std::istreambuf_iterator<wchar_t, std::char_traits<wchar_t> >, std::istreambuf_iterator<wchar_t, std::char_traits<wchar_t> >, bool, std::ios_base&, std::_Ios_Iostate&, std::__cxx11::basic_string<wchar_t, std::char_traits<wchar_t>, std::allocator<wchar_t> >&) const
	_ZNKSt7__cxx119money_getIwSt19istreambuf_iteratorIwSt11char_traitsIwEEE6do_getES4_S4_bRSt8ios_baseRSt12_Ios_IostateRNS_12basic_stringIwS3_SaIwEEE @ 1557
;	std::__cxx11::money_get<wchar_t, std::istreambuf_iterator<wchar_t, std::char_traits<wchar_t> > >::do_get(std::istreambuf_iterator<wchar_t, std::char_traits<wchar_t> >, std::istreambuf_iterator<wchar_t, std::char_traits<wchar_t> >, bool, std::ios_base&, std::_Ios_Iostate&, long double&) const
	_ZNKSt7__cxx119money_getIwSt19istreambuf_iteratorIwSt11char_traitsIwEEE6do_getES4_S4_bRSt8ios_baseRSt12_Ios_IostateRe @ 1558
;	std::__cxx11::money_put<char, std::ostreambuf_iterator<char, std::char_traits<char> > >::put(std::ostreambuf_iterator<char, std::char_traits<char> >, bool, std::ios_base&, char, std::__cxx11::basic_string<char, std::char_traits<char>, std::allocator<char> > const&) const
	_ZNKSt7__cxx119money_putIcSt19ostreambuf_iteratorIcSt11char_traitsIcEEE3putES4_bRSt8ios_basecRKNS_12basic_stringIcS3_SaIcEEE @ 1559
;	std::__cxx11::money_put<char, std::ostreambuf_iterator<char, std::char_traits<char> > >::put(std::ostreambuf_iterator<char, std::char_traits<char> >, bool, std::ios_base&, char, long double) const
	_ZNKSt7__cxx119money_putIcSt19ostreambuf_iteratorIcSt11char_traitsIcEEE3putES4_bRSt8ios_basece @ 1560
;	std::__cxx11::money_put<char, std::ostreambuf_iterator<char, std::char_traits<char> > >::do_put(std::ostreambuf_iterator<char, std::char_traits<char> >, bool, std::ios_base&, char, std::__cxx11::basic_string<char, std::char_traits<char>, std::allocator<char> > const&) const
	_ZNKSt7__cxx119money_putIcSt19ostreambuf_iteratorIcSt11char_traitsIcEEE6do_putES4_bRSt8ios_basecRKNS_12basic_stringIcS3_SaIcEEE @ 1561
;	std::__cxx11::money_put<char, std::ostreambuf_iterator<char, std::char_traits<char> > >::do_put(std::ostreambuf_iterator<char, std::char_traits<char> >, bool, std::ios_base&, char, long double) const
	_ZNKSt7__cxx119money_putIcSt19ostreambuf_iteratorIcSt11char_traitsIcEEE6do_putES4_bRSt8ios_basece @ 1562
;	std::ostreambuf_iterator<char, std::char_traits<char> > std::__cxx11::money_put<char, std::ostreambuf_iterator<char, std::char_traits<char> > >::_M_insert<false>(std::ostreambuf_iterator<char, std::char_traits<char> >, std::ios_base&, char, std::__cxx11::basic_string<char, std::char_traits<char>, std::allocator<char> > const&) const
	_ZNKSt7__cxx119money_putIcSt19ostreambuf_iteratorIcSt11char_traitsIcEEE9_M_insertILb0EEES4_S4_RSt8ios_basecRKNS_12basic_stringIcS3_SaIcEEE @ 1563
;	std::ostreambuf_iterator<char, std::char_traits<char> > std::__cxx11::money_put<char, std::ostreambuf_iterator<char, std::char_traits<char> > >::_M_insert<true>(std::ostreambuf_iterator<char, std::char_traits<char> >, std::ios_base&, char, std::__cxx11::basic_string<char, std::char_traits<char>, std::allocator<char> > const&) const
	_ZNKSt7__cxx119money_putIcSt19ostreambuf_iteratorIcSt11char_traitsIcEEE9_M_insertILb1EEES4_S4_RSt8ios_basecRKNS_12basic_stringIcS3_SaIcEEE @ 1564
;	std::__cxx11::money_put<wchar_t, std::ostreambuf_iterator<wchar_t, std::char_traits<wchar_t> > >::put(std::ostreambuf_iterator<wchar_t, std::char_traits<wchar_t> >, bool, std::ios_base&, wchar_t, std::__cxx11::basic_string<wchar_t, std::char_traits<wchar_t>, std::allocator<wchar_t> > const&) const
	_ZNKSt7__cxx119money_putIwSt19ostreambuf_iteratorIwSt11char_traitsIwEEE3putES4_bRSt8ios_basewRKNS_12basic_stringIwS3_SaIwEEE @ 1565
;	std::__cxx11::money_put<wchar_t, std::ostreambuf_iterator<wchar_t, std::char_traits<wchar_t> > >::put(std::ostreambuf_iterator<wchar_t, std::char_traits<wchar_t> >, bool, std::ios_base&, wchar_t, long double) const
	_ZNKSt7__cxx119money_putIwSt19ostreambuf_iteratorIwSt11char_traitsIwEEE3putES4_bRSt8ios_basewe @ 1566
;	std::__cxx11::money_put<wchar_t, std::ostreambuf_iterator<wchar_t, std::char_traits<wchar_t> > >::do_put(std::ostreambuf_iterator<wchar_t, std::char_traits<wchar_t> >, bool, std::ios_base&, wchar_t, std::__cxx11::basic_string<wchar_t, std::char_traits<wchar_t>, std::allocator<wchar_t> > const&) const
	_ZNKSt7__cxx119money_putIwSt19ostreambuf_iteratorIwSt11char_traitsIwEEE6do_putES4_bRSt8ios_basewRKNS_12basic_stringIwS3_SaIwEEE @ 1567
;	std::__cxx11::money_put<wchar_t, std::ostreambuf_iterator<wchar_t, std::char_traits<wchar_t> > >::do_put(std::ostreambuf_iterator<wchar_t, std::char_traits<wchar_t> >, bool, std::ios_base&, wchar_t, long double) const
	_ZNKSt7__cxx119money_putIwSt19ostreambuf_iteratorIwSt11char_traitsIwEEE6do_putES4_bRSt8ios_basewe @ 1568
;	std::ostreambuf_iterator<wchar_t, std::char_traits<wchar_t> > std::__cxx11::money_put<wchar_t, std::ostreambuf_iterator<wchar_t, std::char_traits<wchar_t> > >::_M_insert<false>(std::ostreambuf_iterator<wchar_t, std::char_traits<wchar_t> >, std::ios_base&, wchar_t, std::__cxx11::basic_string<wchar_t, std::char_traits<wchar_t>, std::allocator<wchar_t> > const&) const
	_ZNKSt7__cxx119money_putIwSt19ostreambuf_iteratorIwSt11char_traitsIwEEE9_M_insertILb0EEES4_S4_RSt8ios_basewRKNS_12basic_stringIwS3_SaIwEEE @ 1569
;	std::ostreambuf_iterator<wchar_t, std::char_traits<wchar_t> > std::__cxx11::money_put<wchar_t, std::ostreambuf_iterator<wchar_t, std::char_traits<wchar_t> > >::_M_insert<true>(std::ostreambuf_iterator<wchar_t, std::char_traits<wchar_t> >, std::ios_base&, wchar_t, std::__cxx11::basic_string<wchar_t, std::char_traits<wchar_t>, std::allocator<wchar_t> > const&) const
	_ZNKSt7__cxx119money_putIwSt19ostreambuf_iteratorIwSt11char_traitsIwEEE9_M_insertILb1EEES4_S4_RSt8ios_basewRKNS_12basic_stringIwS3_SaIwEEE @ 1570
;	std::codecvt<char32_t, char8_t, _Mbstatet>::do_unshift(_Mbstatet&, char8_t*, char8_t*, char8_t*&) const
	_ZNKSt7codecvtIDiDu9_MbstatetE10do_unshiftERS0_PDuS3_RS3_ @ 1571
;	std::codecvt<char32_t, char8_t, _Mbstatet>::do_encoding() const
	_ZNKSt7codecvtIDiDu9_MbstatetE11do_encodingEv @ 1572
;	std::codecvt<char32_t, char8_t, _Mbstatet>::do_max_length() const
	_ZNKSt7codecvtIDiDu9_MbstatetE13do_max_lengthEv @ 1573
;	std::codecvt<char32_t, char8_t, _Mbstatet>::do_always_noconv() const
	_ZNKSt7codecvtIDiDu9_MbstatetE16do_always_noconvEv @ 1574
;	std::codecvt<char32_t, char8_t, _Mbstatet>::do_in(_Mbstatet&, char8_t const*, char8_t const*, char8_t const*&, char32_t*, char32_t*, char32_t*&) const
	_ZNKSt7codecvtIDiDu9_MbstatetE5do_inERS0_PKDuS4_RS4_PDiS6_RS6_ @ 1575
;	std::codecvt<char32_t, char8_t, _Mbstatet>::do_out(_Mbstatet&, char32_t const*, char32_t const*, char32_t const*&, char8_t*, char8_t*, char8_t*&) const
	_ZNKSt7codecvtIDiDu9_MbstatetE6do_outERS0_PKDiS4_RS4_PDuS6_RS6_ @ 1576
;	std::codecvt<char32_t, char8_t, _Mbstatet>::do_length(_Mbstatet&, char8_t const*, char8_t const*, unsigned long long) const
	_ZNKSt7codecvtIDiDu9_MbstatetE9do_lengthERS0_PKDuS4_y @ 1577
;	std::codecvt<char32_t, char, _Mbstatet>::do_unshift(_Mbstatet&, char*, char*, char*&) const
	_ZNKSt7codecvtIDic9_MbstatetE10do_unshiftERS0_PcS3_RS3_ @ 1578
;	std::codecvt<char32_t, char, _Mbstatet>::do_encoding() const
	_ZNKSt7codecvtIDic9_MbstatetE11do_encodingEv @ 1579
;	std::codecvt<char32_t, char, _Mbstatet>::do_max_length() const
	_ZNKSt7codecvtIDic9_MbstatetE13do_max_lengthEv @ 1580
;	std::codecvt<char32_t, char, _Mbstatet>::do_always_noconv() const
	_ZNKSt7codecvtIDic9_MbstatetE16do_always_noconvEv @ 1581
;	std::codecvt<char32_t, char, _Mbstatet>::do_in(_Mbstatet&, char const*, char const*, char const*&, char32_t*, char32_t*, char32_t*&) const
	_ZNKSt7codecvtIDic9_MbstatetE5do_inERS0_PKcS4_RS4_PDiS6_RS6_ @ 1582
;	std::codecvt<char32_t, char, _Mbstatet>::do_out(_Mbstatet&, char32_t const*, char32_t const*, char32_t const*&, char*, char*, char*&) const
	_ZNKSt7codecvtIDic9_MbstatetE6do_outERS0_PKDiS4_RS4_PcS6_RS6_ @ 1583
;	std::codecvt<char32_t, char, _Mbstatet>::do_length(_Mbstatet&, char const*, char const*, unsigned long long) const
	_ZNKSt7codecvtIDic9_MbstatetE9do_lengthERS0_PKcS4_y @ 1584
;	std::codecvt<char16_t, char8_t, _Mbstatet>::do_unshift(_Mbstatet&, char8_t*, char8_t*, char8_t*&) const
	_ZNKSt7codecvtIDsDu9_MbstatetE10do_unshiftERS0_PDuS3_RS3_ @ 1585
;	std::codecvt<char16_t, char8_t, _Mbstatet>::do_encoding() const
	_ZNKSt7codecvtIDsDu9_MbstatetE11do_encodingEv @ 1586
;	std::codecvt<char16_t, char8_t, _Mbstatet>::do_max_length() const
	_ZNKSt7codecvtIDsDu9_MbstatetE13do_max_lengthEv @ 1587
;	std::codecvt<char16_t, char8_t, _Mbstatet>::do_always_noconv() const
	_ZNKSt7codecvtIDsDu9_MbstatetE16do_always_noconvEv @ 1588
;	std::codecvt<char16_t, char8_t, _Mbstatet>::do_in(_Mbstatet&, char8_t const*, char8_t const*, char8_t const*&, char16_t*, char16_t*, char16_t*&) const
	_ZNKSt7codecvtIDsDu9_MbstatetE5do_inERS0_PKDuS4_RS4_PDsS6_RS6_ @ 1589
;	std::codecvt<char16_t, char8_t, _Mbstatet>::do_out(_Mbstatet&, char16_t const*, char16_t const*, char16_t const*&, char8_t*, char8_t*, char8_t*&) const
	_ZNKSt7codecvtIDsDu9_MbstatetE6do_outERS0_PKDsS4_RS4_PDuS6_RS6_ @ 1590
;	std::codecvt<char16_t, char8_t, _Mbstatet>::do_length(_Mbstatet&, char8_t const*, char8_t const*, unsigned long long) const
	_ZNKSt7codecvtIDsDu9_MbstatetE9do_lengthERS0_PKDuS4_y @ 1591
;	std::codecvt<char16_t, char, _Mbstatet>::do_unshift(_Mbstatet&, char*, char*, char*&) const
	_ZNKSt7codecvtIDsc9_MbstatetE10do_unshiftERS0_PcS3_RS3_ @ 1592
;	std::codecvt<char16_t, char, _Mbstatet>::do_encoding() const
	_ZNKSt7codecvtIDsc9_MbstatetE11do_encodingEv @ 1593
;	std::codecvt<char16_t, char, _Mbstatet>::do_max_length() const
	_ZNKSt7codecvtIDsc9_MbstatetE13do_max_lengthEv @ 1594
;	std::codecvt<char16_t, char, _Mbstatet>::do_always_noconv() const
	_ZNKSt7codecvtIDsc9_MbstatetE16do_always_noconvEv @ 1595
;	std::codecvt<char16_t, char, _Mbstatet>::do_in(_Mbstatet&, char const*, char const*, char const*&, char16_t*, char16_t*, char16_t*&) const
	_ZNKSt7codecvtIDsc9_MbstatetE5do_inERS0_PKcS4_RS4_PDsS6_RS6_ @ 1596
;	std::codecvt<char16_t, char, _Mbstatet>::do_out(_Mbstatet&, char16_t const*, char16_t const*, char16_t const*&, char*, char*, char*&) const
	_ZNKSt7codecvtIDsc9_MbstatetE6do_outERS0_PKDsS4_RS4_PcS6_RS6_ @ 1597
;	std::codecvt<char16_t, char, _Mbstatet>::do_length(_Mbstatet&, char const*, char const*, unsigned long long) const
	_ZNKSt7codecvtIDsc9_MbstatetE9do_lengthERS0_PKcS4_y @ 1598
;	std::codecvt<char, char, _Mbstatet>::do_unshift(_Mbstatet&, char*, char*, char*&) const
	_ZNKSt7codecvtIcc9_MbstatetE10do_unshiftERS0_PcS3_RS3_ @ 1599
;	std::codecvt<char, char, _Mbstatet>::do_encoding() const
	_ZNKSt7codecvtIcc9_MbstatetE11do_encodingEv @ 1600
;	std::codecvt<char, char, _Mbstatet>::do_max_length() const
	_ZNKSt7codecvtIcc9_MbstatetE13do_max_lengthEv @ 1601
;	std::codecvt<char, char, _Mbstatet>::do_always_noconv() const
	_ZNKSt7codecvtIcc9_MbstatetE16do_always_noconvEv @ 1602
;	std::codecvt<char, char, _Mbstatet>::do_in(_Mbstatet&, char const*, char const*, char const*&, char*, char*, char*&) const
	_ZNKSt7codecvtIcc9_MbstatetE5do_inERS0_PKcS4_RS4_PcS6_RS6_ @ 1603
;	std::codecvt<char, char, _Mbstatet>::do_out(_Mbstatet&, char const*, char const*, char const*&, char*, char*, char*&) const
	_ZNKSt7codecvtIcc9_MbstatetE6do_outERS0_PKcS4_RS4_PcS6_RS6_ @ 1604
;	std::codecvt<char, char, _Mbstatet>::do_length(_Mbstatet&, char const*, char const*, unsigned long long) const
	_ZNKSt7codecvtIcc9_MbstatetE9do_lengthERS0_PKcS4_y @ 1605
;	std::codecvt<wchar_t, char, _Mbstatet>::do_unshift(_Mbstatet&, char*, char*, char*&) const
	_ZNKSt7codecvtIwc9_MbstatetE10do_unshiftERS0_PcS3_RS3_ @ 1606
;	std::codecvt<wchar_t, char, _Mbstatet>::do_encoding() const
	_ZNKSt7codecvtIwc9_MbstatetE11do_encodingEv @ 1607
;	std::codecvt<wchar_t, char, _Mbstatet>::do_max_length() const
	_ZNKSt7codecvtIwc9_MbstatetE13do_max_lengthEv @ 1608
;	std::codecvt<wchar_t, char, _Mbstatet>::do_always_noconv() const
	_ZNKSt7codecvtIwc9_MbstatetE16do_always_noconvEv @ 1609
;	std::codecvt<wchar_t, char, _Mbstatet>::do_in(_Mbstatet&, char const*, char const*, char const*&, wchar_t*, wchar_t*, wchar_t*&) const
	_ZNKSt7codecvtIwc9_MbstatetE5do_inERS0_PKcS4_RS4_PwS6_RS6_ @ 1610
;	std::codecvt<wchar_t, char, _Mbstatet>::do_out(_Mbstatet&, wchar_t const*, wchar_t const*, wchar_t const*&, char*, char*, char*&) const
	_ZNKSt7codecvtIwc9_MbstatetE6do_outERS0_PKwS4_RS4_PcS6_RS6_ @ 1611
;	std::codecvt<wchar_t, char, _Mbstatet>::do_length(_Mbstatet&, char const*, char const*, unsigned long long) const
	_ZNKSt7codecvtIwc9_MbstatetE9do_lengthERS0_PKcS4_y @ 1612
;	std::collate<char>::_M_compare(char const*, char const*) const
	_ZNKSt7collateIcE10_M_compareEPKcS2_ @ 1613
;	std::collate<char>::do_compare(char const*, char const*, char const*, char const*) const
	_ZNKSt7collateIcE10do_compareEPKcS2_S2_S2_ @ 1614
;	std::collate<char>::_M_transform(char*, char const*, unsigned long long) const
	_ZNKSt7collateIcE12_M_transformEPcPKcy @ 1615
;	std::collate<char>::do_transform(char const*, char const*) const
	_ZNKSt7collateIcE12do_transformEPKcS2_ @ 1616
;	std::collate<char>::hash(char const*, char const*) const
	_ZNKSt7collateIcE4hashEPKcS2_ @ 1617
;	std::collate<char>::compare(char const*, char const*, char const*, char const*) const
	_ZNKSt7collateIcE7compareEPKcS2_S2_S2_ @ 1618
;	std::collate<char>::do_hash(char const*, char const*) const
	_ZNKSt7collateIcE7do_hashEPKcS2_ @ 1619
;	std::collate<char>::transform(char const*, char const*) const
	_ZNKSt7collateIcE9transformEPKcS2_ @ 1620
;	std::collate<wchar_t>::_M_compare(wchar_t const*, wchar_t const*) const
	_ZNKSt7collateIwE10_M_compareEPKwS2_ @ 1621
;	std::collate<wchar_t>::do_compare(wchar_t const*, wchar_t const*, wchar_t const*, wchar_t const*) const
	_ZNKSt7collateIwE10do_compareEPKwS2_S2_S2_ @ 1622
;	std::collate<wchar_t>::_M_transform(wchar_t*, wchar_t const*, unsigned long long) const
	_ZNKSt7collateIwE12_M_transformEPwPKwy @ 1623
;	std::collate<wchar_t>::do_transform(wchar_t const*, wchar_t const*) const
	_ZNKSt7collateIwE12do_transformEPKwS2_ @ 1624
;	std::collate<wchar_t>::hash(wchar_t const*, wchar_t const*) const
	_ZNKSt7collateIwE4hashEPKwS2_ @ 1625
;	std::collate<wchar_t>::compare(wchar_t const*, wchar_t const*, wchar_t const*, wchar_t const*) const
	_ZNKSt7collateIwE7compareEPKwS2_S2_S2_ @ 1626
;	std::collate<wchar_t>::do_hash(wchar_t const*, wchar_t const*) const
	_ZNKSt7collateIwE7do_hashEPKwS2_ @ 1627
;	std::collate<wchar_t>::transform(wchar_t const*, wchar_t const*) const
	_ZNKSt7collateIwE9transformEPKwS2_ @ 1628
;	std::istreambuf_iterator<char, std::char_traits<char> > std::num_get<char, std::istreambuf_iterator<char, std::char_traits<char> > >::_M_extract_int[abi:cxx11]<unsigned int>(std::istreambuf_iterator<char, std::char_traits<char> >, std::istreambuf_iterator<char, std::char_traits<char> >, std::ios_base&, std::_Ios_Iostate&, unsigned int&) const
	_ZNKSt7num_getIcSt19istreambuf_iteratorIcSt11char_traitsIcEEE14_M_extract_intB5cxx11IjEES3_S3_S3_RSt8ios_baseRSt12_Ios_IostateRT_ @ 1629
;	std::istreambuf_iterator<char, std::char_traits<char> > std::num_get<char, std::istreambuf_iterator<char, std::char_traits<char> > >::_M_extract_int[abi:cxx11]<long>(std::istreambuf_iterator<char, std::char_traits<char> >, std::istreambuf_iterator<char, std::char_traits<char> >, std::ios_base&, std::_Ios_Iostate&, long&) const
	_ZNKSt7num_getIcSt19istreambuf_iteratorIcSt11char_traitsIcEEE14_M_extract_intB5cxx11IlEES3_S3_S3_RSt8ios_baseRSt12_Ios_IostateRT_ @ 1630
;	std::istreambuf_iterator<char, std::char_traits<char> > std::num_get<char, std::istreambuf_iterator<char, std::char_traits<char> > >::_M_extract_int[abi:cxx11]<unsigned long>(std::istreambuf_iterator<char, std::char_traits<char> >, std::istreambuf_iterator<char, std::char_traits<char> >, std::ios_base&, std::_Ios_Iostate&, unsigned long&) const
	_ZNKSt7num_getIcSt19istreambuf_iteratorIcSt11char_traitsIcEEE14_M_extract_intB5cxx11ImEES3_S3_S3_RSt8ios_baseRSt12_Ios_IostateRT_ @ 1631
;	std::istreambuf_iterator<char, std::char_traits<char> > std::num_get<char, std::istreambuf_iterator<char, std::char_traits<char> > >::_M_extract_int[abi:cxx11]<unsigned short>(std::istreambuf_iterator<char, std::char_traits<char> >, std::istreambuf_iterator<char, std::char_traits<char> >, std::ios_base&, std::_Ios_Iostate&, unsigned short&) const
	_ZNKSt7num_getIcSt19istreambuf_iteratorIcSt11char_traitsIcEEE14_M_extract_intB5cxx11ItEES3_S3_S3_RSt8ios_baseRSt12_Ios_IostateRT_ @ 1632
;	std::istreambuf_iterator<char, std::char_traits<char> > std::num_get<char, std::istreambuf_iterator<char, std::char_traits<char> > >::_M_extract_int[abi:cxx11]<long long>(std::istreambuf_iterator<char, std::char_traits<char> >, std::istreambuf_iterator<char, std::char_traits<char> >, std::ios_base&, std::_Ios_Iostate&, long long&) const
	_ZNKSt7num_getIcSt19istreambuf_iteratorIcSt11char_traitsIcEEE14_M_extract_intB5cxx11IxEES3_S3_S3_RSt8ios_baseRSt12_Ios_IostateRT_ @ 1633
;	std::istreambuf_iterator<char, std::char_traits<char> > std::num_get<char, std::istreambuf_iterator<char, std::char_traits<char> > >::_M_extract_int[abi:cxx11]<unsigned long long>(std::istreambuf_iterator<char, std::char_traits<char> >, std::istreambuf_iterator<char, std::char_traits<char> >, std::ios_base&, std::_Ios_Iostate&, unsigned long long&) const
	_ZNKSt7num_getIcSt19istreambuf_iteratorIcSt11char_traitsIcEEE14_M_extract_intB5cxx11IyEES3_S3_S3_RSt8ios_baseRSt12_Ios_IostateRT_ @ 1634
;	std::istreambuf_iterator<char, std::char_traits<char> > std::num_get<char, std::istreambuf_iterator<char, std::char_traits<char> > >::_M_extract_int<unsigned int>(std::istreambuf_iterator<char, std::char_traits<char> >, std::istreambuf_iterator<char, std::char_traits<char> >, std::ios_base&, std::_Ios_Iostate&, unsigned int&) const
	_ZNKSt7num_getIcSt19istreambuf_iteratorIcSt11char_traitsIcEEE14_M_extract_intIjEES3_S3_S3_RSt8ios_baseRSt12_Ios_IostateRT_ @ 1635
;	std::istreambuf_iterator<char, std::char_traits<char> > std::num_get<char, std::istreambuf_iterator<char, std::char_traits<char> > >::_M_extract_int<long>(std::istreambuf_iterator<char, std::char_traits<char> >, std::istreambuf_iterator<char, std::char_traits<char> >, std::ios_base&, std::_Ios_Iostate&, long&) const
	_ZNKSt7num_getIcSt19istreambuf_iteratorIcSt11char_traitsIcEEE14_M_extract_intIlEES3_S3_S3_RSt8ios_baseRSt12_Ios_IostateRT_ @ 1636
;	std::istreambuf_iterator<char, std::char_traits<char> > std::num_get<char, std::istreambuf_iterator<char, std::char_traits<char> > >::_M_extract_int<unsigned long>(std::istreambuf_iterator<char, std::char_traits<char> >, std::istreambuf_iterator<char, std::char_traits<char> >, std::ios_base&, std::_Ios_Iostate&, unsigned long&) const
	_ZNKSt7num_getIcSt19istreambuf_iteratorIcSt11char_traitsIcEEE14_M_extract_intImEES3_S3_S3_RSt8ios_baseRSt12_Ios_IostateRT_ @ 1637
;	std::istreambuf_iterator<char, std::char_traits<char> > std::num_get<char, std::istreambuf_iterator<char, std::char_traits<char> > >::_M_extract_int<unsigned short>(std::istreambuf_iterator<char, std::char_traits<char> >, std::istreambuf_iterator<char, std::char_traits<char> >, std::ios_base&, std::_Ios_Iostate&, unsigned short&) const
	_ZNKSt7num_getIcSt19istreambuf_iteratorIcSt11char_traitsIcEEE14_M_extract_intItEES3_S3_S3_RSt8ios_baseRSt12_Ios_IostateRT_ @ 1638
;	std::istreambuf_iterator<char, std::char_traits<char> > std::num_get<char, std::istreambuf_iterator<char, std::char_traits<char> > >::_M_extract_int<long long>(std::istreambuf_iterator<char, std::char_traits<char> >, std::istreambuf_iterator<char, std::char_traits<char> >, std::ios_base&, std::_Ios_Iostate&, long long&) const
	_ZNKSt7num_getIcSt19istreambuf_iteratorIcSt11char_traitsIcEEE14_M_extract_intIxEES3_S3_S3_RSt8ios_baseRSt12_Ios_IostateRT_ @ 1639
;	std::istreambuf_iterator<char, std::char_traits<char> > std::num_get<char, std::istreambuf_iterator<char, std::char_traits<char> > >::_M_extract_int<unsigned long long>(std::istreambuf_iterator<char, std::char_traits<char> >, std::istreambuf_iterator<char, std::char_traits<char> >, std::ios_base&, std::_Ios_Iostate&, unsigned long long&) const
	_ZNKSt7num_getIcSt19istreambuf_iteratorIcSt11char_traitsIcEEE14_M_extract_intIyEES3_S3_S3_RSt8ios_baseRSt12_Ios_IostateRT_ @ 1640
;	std::num_get<char, std::istreambuf_iterator<char, std::char_traits<char> > >::_M_extract_float(std::istreambuf_iterator<char, std::char_traits<char> >, std::istreambuf_iterator<char, std::char_traits<char> >, std::ios_base&, std::_Ios_Iostate&, std::string&) const
	_ZNKSt7num_getIcSt19istreambuf_iteratorIcSt11char_traitsIcEEE16_M_extract_floatES3_S3_RSt8ios_baseRSt12_Ios_IostateRSs @ 1641
;	std::num_get<char, std::istreambuf_iterator<char, std::char_traits<char> > >::get(std::istreambuf_iterator<char, std::char_traits<char> >, std::istreambuf_iterator<char, std::char_traits<char> >, std::ios_base&, std::_Ios_Iostate&, void*&) const
	_ZNKSt7num_getIcSt19istreambuf_iteratorIcSt11char_traitsIcEEE3getES3_S3_RSt8ios_baseRSt12_Ios_IostateRPv @ 1642
;	std::num_get<char, std::istreambuf_iterator<char, std::char_traits<char> > >::get(std::istreambuf_iterator<char, std::char_traits<char> >, std::istreambuf_iterator<char, std::char_traits<char> >, std::ios_base&, std::_Ios_Iostate&, bool&) const
	_ZNKSt7num_getIcSt19istreambuf_iteratorIcSt11char_traitsIcEEE3getES3_S3_RSt8ios_baseRSt12_Ios_IostateRb @ 1643
;	std::num_get<char, std::istreambuf_iterator<char, std::char_traits<char> > >::get(std::istreambuf_iterator<char, std::char_traits<char> >, std::istreambuf_iterator<char, std::char_traits<char> >, std::ios_base&, std::_Ios_Iostate&, double&) const
	_ZNKSt7num_getIcSt19istreambuf_iteratorIcSt11char_traitsIcEEE3getES3_S3_RSt8ios_baseRSt12_Ios_IostateRd @ 1644
;	std::num_get<char, std::istreambuf_iterator<char, std::char_traits<char> > >::get(std::istreambuf_iterator<char, std::char_traits<char> >, std::istreambuf_iterator<char, std::char_traits<char> >, std::ios_base&, std::_Ios_Iostate&, long double&) const
	_ZNKSt7num_getIcSt19istreambuf_iteratorIcSt11char_traitsIcEEE3getES3_S3_RSt8ios_baseRSt12_Ios_IostateRe @ 1645
;	std::num_get<char, std::istreambuf_iterator<char, std::char_traits<char> > >::get(std::istreambuf_iterator<char, std::char_traits<char> >, std::istreambuf_iterator<char, std::char_traits<char> >, std::ios_base&, std::_Ios_Iostate&, float&) const
	_ZNKSt7num_getIcSt19istreambuf_iteratorIcSt11char_traitsIcEEE3getES3_S3_RSt8ios_baseRSt12_Ios_IostateRf @ 1646
;	std::num_get<char, std::istreambuf_iterator<char, std::char_traits<char> > >::get(std::istreambuf_iterator<char, std::char_traits<char> >, std::istreambuf_iterator<char, std::char_traits<char> >, std::ios_base&, std::_Ios_Iostate&, unsigned int&) const
	_ZNKSt7num_getIcSt19istreambuf_iteratorIcSt11char_traitsIcEEE3getES3_S3_RSt8ios_baseRSt12_Ios_IostateRj @ 1647
;	std::num_get<char, std::istreambuf_iterator<char, std::char_traits<char> > >::get(std::istreambuf_iterator<char, std::char_traits<char> >, std::istreambuf_iterator<char, std::char_traits<char> >, std::ios_base&, std::_Ios_Iostate&, long&) const
	_ZNKSt7num_getIcSt19istreambuf_iteratorIcSt11char_traitsIcEEE3getES3_S3_RSt8ios_baseRSt12_Ios_IostateRl @ 1648
;	std::num_get<char, std::istreambuf_iterator<char, std::char_traits<char> > >::get(std::istreambuf_iterator<char, std::char_traits<char> >, std::istreambuf_iterator<char, std::char_traits<char> >, std::ios_base&, std::_Ios_Iostate&, unsigned long&) const
	_ZNKSt7num_getIcSt19istreambuf_iteratorIcSt11char_traitsIcEEE3getES3_S3_RSt8ios_baseRSt12_Ios_IostateRm @ 1649
;	std::num_get<char, std::istreambuf_iterator<char, std::char_traits<char> > >::get(std::istreambuf_iterator<char, std::char_traits<char> >, std::istreambuf_iterator<char, std::char_traits<char> >, std::ios_base&, std::_Ios_Iostate&, unsigned short&) const
	_ZNKSt7num_getIcSt19istreambuf_iteratorIcSt11char_traitsIcEEE3getES3_S3_RSt8ios_baseRSt12_Ios_IostateRt @ 1650
;	std::num_get<char, std::istreambuf_iterator<char, std::char_traits<char> > >::get(std::istreambuf_iterator<char, std::char_traits<char> >, std::istreambuf_iterator<char, std::char_traits<char> >, std::ios_base&, std::_Ios_Iostate&, long long&) const
	_ZNKSt7num_getIcSt19istreambuf_iteratorIcSt11char_traitsIcEEE3getES3_S3_RSt8ios_baseRSt12_Ios_IostateRx @ 1651
;	std::num_get<char, std::istreambuf_iterator<char, std::char_traits<char> > >::get(std::istreambuf_iterator<char, std::char_traits<char> >, std::istreambuf_iterator<char, std::char_traits<char> >, std::ios_base&, std::_Ios_Iostate&, unsigned long long&) const
	_ZNKSt7num_getIcSt19istreambuf_iteratorIcSt11char_traitsIcEEE3getES3_S3_RSt8ios_baseRSt12_Ios_IostateRy @ 1652
;	std::num_get<char, std::istreambuf_iterator<char, std::char_traits<char> > >::do_get(std::istreambuf_iterator<char, std::char_traits<char> >, std::istreambuf_iterator<char, std::char_traits<char> >, std::ios_base&, std::_Ios_Iostate&, void*&) const
	_ZNKSt7num_getIcSt19istreambuf_iteratorIcSt11char_traitsIcEEE6do_getES3_S3_RSt8ios_baseRSt12_Ios_IostateRPv @ 1653
;	std::num_get<char, std::istreambuf_iterator<char, std::char_traits<char> > >::do_get(std::istreambuf_iterator<char, std::char_traits<char> >, std::istreambuf_iterator<char, std::char_traits<char> >, std::ios_base&, std::_Ios_Iostate&, bool&) const
	_ZNKSt7num_getIcSt19istreambuf_iteratorIcSt11char_traitsIcEEE6do_getES3_S3_RSt8ios_baseRSt12_Ios_IostateRb @ 1654
;	std::num_get<char, std::istreambuf_iterator<char, std::char_traits<char> > >::do_get(std::istreambuf_iterator<char, std::char_traits<char> >, std::istreambuf_iterator<char, std::char_traits<char> >, std::ios_base&, std::_Ios_Iostate&, double&) const
	_ZNKSt7num_getIcSt19istreambuf_iteratorIcSt11char_traitsIcEEE6do_getES3_S3_RSt8ios_baseRSt12_Ios_IostateRd @ 1655
;	std::num_get<char, std::istreambuf_iterator<char, std::char_traits<char> > >::do_get(std::istreambuf_iterator<char, std::char_traits<char> >, std::istreambuf_iterator<char, std::char_traits<char> >, std::ios_base&, std::_Ios_Iostate&, long double&) const
	_ZNKSt7num_getIcSt19istreambuf_iteratorIcSt11char_traitsIcEEE6do_getES3_S3_RSt8ios_baseRSt12_Ios_IostateRe @ 1656
;	std::num_get<char, std::istreambuf_iterator<char, std::char_traits<char> > >::do_get(std::istreambuf_iterator<char, std::char_traits<char> >, std::istreambuf_iterator<char, std::char_traits<char> >, std::ios_base&, std::_Ios_Iostate&, float&) const
	_ZNKSt7num_getIcSt19istreambuf_iteratorIcSt11char_traitsIcEEE6do_getES3_S3_RSt8ios_baseRSt12_Ios_IostateRf @ 1657
;	std::num_get<char, std::istreambuf_iterator<char, std::char_traits<char> > >::do_get(std::istreambuf_iterator<char, std::char_traits<char> >, std::istreambuf_iterator<char, std::char_traits<char> >, std::ios_base&, std::_Ios_Iostate&, unsigned int&) const
	_ZNKSt7num_getIcSt19istreambuf_iteratorIcSt11char_traitsIcEEE6do_getES3_S3_RSt8ios_baseRSt12_Ios_IostateRj @ 1658
;	std::num_get<char, std::istreambuf_iterator<char, std::char_traits<char> > >::do_get(std::istreambuf_iterator<char, std::char_traits<char> >, std::istreambuf_iterator<char, std::char_traits<char> >, std::ios_base&, std::_Ios_Iostate&, long&) const
	_ZNKSt7num_getIcSt19istreambuf_iteratorIcSt11char_traitsIcEEE6do_getES3_S3_RSt8ios_baseRSt12_Ios_IostateRl @ 1659
;	std::num_get<char, std::istreambuf_iterator<char, std::char_traits<char> > >::do_get(std::istreambuf_iterator<char, std::char_traits<char> >, std::istreambuf_iterator<char, std::char_traits<char> >, std::ios_base&, std::_Ios_Iostate&, unsigned long&) const
	_ZNKSt7num_getIcSt19istreambuf_iteratorIcSt11char_traitsIcEEE6do_getES3_S3_RSt8ios_baseRSt12_Ios_IostateRm @ 1660
;	std::num_get<char, std::istreambuf_iterator<char, std::char_traits<char> > >::do_get(std::istreambuf_iterator<char, std::char_traits<char> >, std::istreambuf_iterator<char, std::char_traits<char> >, std::ios_base&, std::_Ios_Iostate&, unsigned short&) const
	_ZNKSt7num_getIcSt19istreambuf_iteratorIcSt11char_traitsIcEEE6do_getES3_S3_RSt8ios_baseRSt12_Ios_IostateRt @ 1661
;	std::num_get<char, std::istreambuf_iterator<char, std::char_traits<char> > >::do_get(std::istreambuf_iterator<char, std::char_traits<char> >, std::istreambuf_iterator<char, std::char_traits<char> >, std::ios_base&, std::_Ios_Iostate&, long long&) const
	_ZNKSt7num_getIcSt19istreambuf_iteratorIcSt11char_traitsIcEEE6do_getES3_S3_RSt8ios_baseRSt12_Ios_IostateRx @ 1662
;	std::num_get<char, std::istreambuf_iterator<char, std::char_traits<char> > >::do_get(std::istreambuf_iterator<char, std::char_traits<char> >, std::istreambuf_iterator<char, std::char_traits<char> >, std::ios_base&, std::_Ios_Iostate&, unsigned long long&) const
	_ZNKSt7num_getIcSt19istreambuf_iteratorIcSt11char_traitsIcEEE6do_getES3_S3_RSt8ios_baseRSt12_Ios_IostateRy @ 1663
;	std::istreambuf_iterator<wchar_t, std::char_traits<wchar_t> > std::num_get<wchar_t, std::istreambuf_iterator<wchar_t, std::char_traits<wchar_t> > >::_M_extract_int[abi:cxx11]<unsigned int>(std::istreambuf_iterator<wchar_t, std::char_traits<wchar_t> >, std::istreambuf_iterator<wchar_t, std::char_traits<wchar_t> >, std::ios_base&, std::_Ios_Iostate&, unsigned int&) const
	_ZNKSt7num_getIwSt19istreambuf_iteratorIwSt11char_traitsIwEEE14_M_extract_intB5cxx11IjEES3_S3_S3_RSt8ios_baseRSt12_Ios_IostateRT_ @ 1664
;	std::istreambuf_iterator<wchar_t, std::char_traits<wchar_t> > std::num_get<wchar_t, std::istreambuf_iterator<wchar_t, std::char_traits<wchar_t> > >::_M_extract_int[abi:cxx11]<long>(std::istreambuf_iterator<wchar_t, std::char_traits<wchar_t> >, std::istreambuf_iterator<wchar_t, std::char_traits<wchar_t> >, std::ios_base&, std::_Ios_Iostate&, long&) const
	_ZNKSt7num_getIwSt19istreambuf_iteratorIwSt11char_traitsIwEEE14_M_extract_intB5cxx11IlEES3_S3_S3_RSt8ios_baseRSt12_Ios_IostateRT_ @ 1665
;	std::istreambuf_iterator<wchar_t, std::char_traits<wchar_t> > std::num_get<wchar_t, std::istreambuf_iterator<wchar_t, std::char_traits<wchar_t> > >::_M_extract_int[abi:cxx11]<unsigned long>(std::istreambuf_iterator<wchar_t, std::char_traits<wchar_t> >, std::istreambuf_iterator<wchar_t, std::char_traits<wchar_t> >, std::ios_base&, std::_Ios_Iostate&, unsigned long&) const
	_ZNKSt7num_getIwSt19istreambuf_iteratorIwSt11char_traitsIwEEE14_M_extract_intB5cxx11ImEES3_S3_S3_RSt8ios_baseRSt12_Ios_IostateRT_ @ 1666
;	std::istreambuf_iterator<wchar_t, std::char_traits<wchar_t> > std::num_get<wchar_t, std::istreambuf_iterator<wchar_t, std::char_traits<wchar_t> > >::_M_extract_int[abi:cxx11]<unsigned short>(std::istreambuf_iterator<wchar_t, std::char_traits<wchar_t> >, std::istreambuf_iterator<wchar_t, std::char_traits<wchar_t> >, std::ios_base&, std::_Ios_Iostate&, unsigned short&) const
	_ZNKSt7num_getIwSt19istreambuf_iteratorIwSt11char_traitsIwEEE14_M_extract_intB5cxx11ItEES3_S3_S3_RSt8ios_baseRSt12_Ios_IostateRT_ @ 1667
;	std::istreambuf_iterator<wchar_t, std::char_traits<wchar_t> > std::num_get<wchar_t, std::istreambuf_iterator<wchar_t, std::char_traits<wchar_t> > >::_M_extract_int[abi:cxx11]<long long>(std::istreambuf_iterator<wchar_t, std::char_traits<wchar_t> >, std::istreambuf_iterator<wchar_t, std::char_traits<wchar_t> >, std::ios_base&, std::_Ios_Iostate&, long long&) const
	_ZNKSt7num_getIwSt19istreambuf_iteratorIwSt11char_traitsIwEEE14_M_extract_intB5cxx11IxEES3_S3_S3_RSt8ios_baseRSt12_Ios_IostateRT_ @ 1668
;	std::istreambuf_iterator<wchar_t, std::char_traits<wchar_t> > std::num_get<wchar_t, std::istreambuf_iterator<wchar_t, std::char_traits<wchar_t> > >::_M_extract_int[abi:cxx11]<unsigned long long>(std::istreambuf_iterator<wchar_t, std::char_traits<wchar_t> >, std::istreambuf_iterator<wchar_t, std::char_traits<wchar_t> >, std::ios_base&, std::_Ios_Iostate&, unsigned long long&) const
	_ZNKSt7num_getIwSt19istreambuf_iteratorIwSt11char_traitsIwEEE14_M_extract_intB5cxx11IyEES3_S3_S3_RSt8ios_baseRSt12_Ios_IostateRT_ @ 1669
;	std::istreambuf_iterator<wchar_t, std::char_traits<wchar_t> > std::num_get<wchar_t, std::istreambuf_iterator<wchar_t, std::char_traits<wchar_t> > >::_M_extract_int<unsigned int>(std::istreambuf_iterator<wchar_t, std::char_traits<wchar_t> >, std::istreambuf_iterator<wchar_t, std::char_traits<wchar_t> >, std::ios_base&, std::_Ios_Iostate&, unsigned int&) const
	_ZNKSt7num_getIwSt19istreambuf_iteratorIwSt11char_traitsIwEEE14_M_extract_intIjEES3_S3_S3_RSt8ios_baseRSt12_Ios_IostateRT_ @ 1670
;	std::istreambuf_iterator<wchar_t, std::char_traits<wchar_t> > std::num_get<wchar_t, std::istreambuf_iterator<wchar_t, std::char_traits<wchar_t> > >::_M_extract_int<long>(std::istreambuf_iterator<wchar_t, std::char_traits<wchar_t> >, std::istreambuf_iterator<wchar_t, std::char_traits<wchar_t> >, std::ios_base&, std::_Ios_Iostate&, long&) const
	_ZNKSt7num_getIwSt19istreambuf_iteratorIwSt11char_traitsIwEEE14_M_extract_intIlEES3_S3_S3_RSt8ios_baseRSt12_Ios_IostateRT_ @ 1671
;	std::istreambuf_iterator<wchar_t, std::char_traits<wchar_t> > std::num_get<wchar_t, std::istreambuf_iterator<wchar_t, std::char_traits<wchar_t> > >::_M_extract_int<unsigned long>(std::istreambuf_iterator<wchar_t, std::char_traits<wchar_t> >, std::istreambuf_iterator<wchar_t, std::char_traits<wchar_t> >, std::ios_base&, std::_Ios_Iostate&, unsigned long&) const
	_ZNKSt7num_getIwSt19istreambuf_iteratorIwSt11char_traitsIwEEE14_M_extract_intImEES3_S3_S3_RSt8ios_baseRSt12_Ios_IostateRT_ @ 1672
;	std::istreambuf_iterator<wchar_t, std::char_traits<wchar_t> > std::num_get<wchar_t, std::istreambuf_iterator<wchar_t, std::char_traits<wchar_t> > >::_M_extract_int<unsigned short>(std::istreambuf_iterator<wchar_t, std::char_traits<wchar_t> >, std::istreambuf_iterator<wchar_t, std::char_traits<wchar_t> >, std::ios_base&, std::_Ios_Iostate&, unsigned short&) const
	_ZNKSt7num_getIwSt19istreambuf_iteratorIwSt11char_traitsIwEEE14_M_extract_intItEES3_S3_S3_RSt8ios_baseRSt12_Ios_IostateRT_ @ 1673
;	std::istreambuf_iterator<wchar_t, std::char_traits<wchar_t> > std::num_get<wchar_t, std::istreambuf_iterator<wchar_t, std::char_traits<wchar_t> > >::_M_extract_int<long long>(std::istreambuf_iterator<wchar_t, std::char_traits<wchar_t> >, std::istreambuf_iterator<wchar_t, std::char_traits<wchar_t> >, std::ios_base&, std::_Ios_Iostate&, long long&) const
	_ZNKSt7num_getIwSt19istreambuf_iteratorIwSt11char_traitsIwEEE14_M_extract_intIxEES3_S3_S3_RSt8ios_baseRSt12_Ios_IostateRT_ @ 1674
;	std::istreambuf_iterator<wchar_t, std::char_traits<wchar_t> > std::num_get<wchar_t, std::istreambuf_iterator<wchar_t, std::char_traits<wchar_t> > >::_M_extract_int<unsigned long long>(std::istreambuf_iterator<wchar_t, std::char_traits<wchar_t> >, std::istreambuf_iterator<wchar_t, std::char_traits<wchar_t> >, std::ios_base&, std::_Ios_Iostate&, unsigned long long&) const
	_ZNKSt7num_getIwSt19istreambuf_iteratorIwSt11char_traitsIwEEE14_M_extract_intIyEES3_S3_S3_RSt8ios_baseRSt12_Ios_IostateRT_ @ 1675
;	std::num_get<wchar_t, std::istreambuf_iterator<wchar_t, std::char_traits<wchar_t> > >::_M_extract_float(std::istreambuf_iterator<wchar_t, std::char_traits<wchar_t> >, std::istreambuf_iterator<wchar_t, std::char_traits<wchar_t> >, std::ios_base&, std::_Ios_Iostate&, std::string&) const
	_ZNKSt7num_getIwSt19istreambuf_iteratorIwSt11char_traitsIwEEE16_M_extract_floatES3_S3_RSt8ios_baseRSt12_Ios_IostateRSs @ 1676
;	std::num_get<wchar_t, std::istreambuf_iterator<wchar_t, std::char_traits<wchar_t> > >::get(std::istreambuf_iterator<wchar_t, std::char_traits<wchar_t> >, std::istreambuf_iterator<wchar_t, std::char_traits<wchar_t> >, std::ios_base&, std::_Ios_Iostate&, void*&) const
	_ZNKSt7num_getIwSt19istreambuf_iteratorIwSt11char_traitsIwEEE3getES3_S3_RSt8ios_baseRSt12_Ios_IostateRPv @ 1677
;	std::num_get<wchar_t, std::istreambuf_iterator<wchar_t, std::char_traits<wchar_t> > >::get(std::istreambuf_iterator<wchar_t, std::char_traits<wchar_t> >, std::istreambuf_iterator<wchar_t, std::char_traits<wchar_t> >, std::ios_base&, std::_Ios_Iostate&, bool&) const
	_ZNKSt7num_getIwSt19istreambuf_iteratorIwSt11char_traitsIwEEE3getES3_S3_RSt8ios_baseRSt12_Ios_IostateRb @ 1678
;	std::num_get<wchar_t, std::istreambuf_iterator<wchar_t, std::char_traits<wchar_t> > >::get(std::istreambuf_iterator<wchar_t, std::char_traits<wchar_t> >, std::istreambuf_iterator<wchar_t, std::char_traits<wchar_t> >, std::ios_base&, std::_Ios_Iostate&, double&) const
	_ZNKSt7num_getIwSt19istreambuf_iteratorIwSt11char_traitsIwEEE3getES3_S3_RSt8ios_baseRSt12_Ios_IostateRd @ 1679
;	std::num_get<wchar_t, std::istreambuf_iterator<wchar_t, std::char_traits<wchar_t> > >::get(std::istreambuf_iterator<wchar_t, std::char_traits<wchar_t> >, std::istreambuf_iterator<wchar_t, std::char_traits<wchar_t> >, std::ios_base&, std::_Ios_Iostate&, long double&) const
	_ZNKSt7num_getIwSt19istreambuf_iteratorIwSt11char_traitsIwEEE3getES3_S3_RSt8ios_baseRSt12_Ios_IostateRe @ 1680
;	std::num_get<wchar_t, std::istreambuf_iterator<wchar_t, std::char_traits<wchar_t> > >::get(std::istreambuf_iterator<wchar_t, std::char_traits<wchar_t> >, std::istreambuf_iterator<wchar_t, std::char_traits<wchar_t> >, std::ios_base&, std::_Ios_Iostate&, float&) const
	_ZNKSt7num_getIwSt19istreambuf_iteratorIwSt11char_traitsIwEEE3getES3_S3_RSt8ios_baseRSt12_Ios_IostateRf @ 1681
;	std::num_get<wchar_t, std::istreambuf_iterator<wchar_t, std::char_traits<wchar_t> > >::get(std::istreambuf_iterator<wchar_t, std::char_traits<wchar_t> >, std::istreambuf_iterator<wchar_t, std::char_traits<wchar_t> >, std::ios_base&, std::_Ios_Iostate&, unsigned int&) const
	_ZNKSt7num_getIwSt19istreambuf_iteratorIwSt11char_traitsIwEEE3getES3_S3_RSt8ios_baseRSt12_Ios_IostateRj @ 1682
;	std::num_get<wchar_t, std::istreambuf_iterator<wchar_t, std::char_traits<wchar_t> > >::get(std::istreambuf_iterator<wchar_t, std::char_traits<wchar_t> >, std::istreambuf_iterator<wchar_t, std::char_traits<wchar_t> >, std::ios_base&, std::_Ios_Iostate&, long&) const
	_ZNKSt7num_getIwSt19istreambuf_iteratorIwSt11char_traitsIwEEE3getES3_S3_RSt8ios_baseRSt12_Ios_IostateRl @ 1683
;	std::num_get<wchar_t, std::istreambuf_iterator<wchar_t, std::char_traits<wchar_t> > >::get(std::istreambuf_iterator<wchar_t, std::char_traits<wchar_t> >, std::istreambuf_iterator<wchar_t, std::char_traits<wchar_t> >, std::ios_base&, std::_Ios_Iostate&, unsigned long&) const
	_ZNKSt7num_getIwSt19istreambuf_iteratorIwSt11char_traitsIwEEE3getES3_S3_RSt8ios_baseRSt12_Ios_IostateRm @ 1684
;	std::num_get<wchar_t, std::istreambuf_iterator<wchar_t, std::char_traits<wchar_t> > >::get(std::istreambuf_iterator<wchar_t, std::char_traits<wchar_t> >, std::istreambuf_iterator<wchar_t, std::char_traits<wchar_t> >, std::ios_base&, std::_Ios_Iostate&, unsigned short&) const
	_ZNKSt7num_getIwSt19istreambuf_iteratorIwSt11char_traitsIwEEE3getES3_S3_RSt8ios_baseRSt12_Ios_IostateRt @ 1685
;	std::num_get<wchar_t, std::istreambuf_iterator<wchar_t, std::char_traits<wchar_t> > >::get(std::istreambuf_iterator<wchar_t, std::char_traits<wchar_t> >, std::istreambuf_iterator<wchar_t, std::char_traits<wchar_t> >, std::ios_base&, std::_Ios_Iostate&, long long&) const
	_ZNKSt7num_getIwSt19istreambuf_iteratorIwSt11char_traitsIwEEE3getES3_S3_RSt8ios_baseRSt12_Ios_IostateRx @ 1686
;	std::num_get<wchar_t, std::istreambuf_iterator<wchar_t, std::char_traits<wchar_t> > >::get(std::istreambuf_iterator<wchar_t, std::char_traits<wchar_t> >, std::istreambuf_iterator<wchar_t, std::char_traits<wchar_t> >, std::ios_base&, std::_Ios_Iostate&, unsigned long long&) const
	_ZNKSt7num_getIwSt19istreambuf_iteratorIwSt11char_traitsIwEEE3getES3_S3_RSt8ios_baseRSt12_Ios_IostateRy @ 1687
;	std::num_get<wchar_t, std::istreambuf_iterator<wchar_t, std::char_traits<wchar_t> > >::do_get(std::istreambuf_iterator<wchar_t, std::char_traits<wchar_t> >, std::istreambuf_iterator<wchar_t, std::char_traits<wchar_t> >, std::ios_base&, std::_Ios_Iostate&, void*&) const
	_ZNKSt7num_getIwSt19istreambuf_iteratorIwSt11char_traitsIwEEE6do_getES3_S3_RSt8ios_baseRSt12_Ios_IostateRPv @ 1688
;	std::num_get<wchar_t, std::istreambuf_iterator<wchar_t, std::char_traits<wchar_t> > >::do_get(std::istreambuf_iterator<wchar_t, std::char_traits<wchar_t> >, std::istreambuf_iterator<wchar_t, std::char_traits<wchar_t> >, std::ios_base&, std::_Ios_Iostate&, bool&) const
	_ZNKSt7num_getIwSt19istreambuf_iteratorIwSt11char_traitsIwEEE6do_getES3_S3_RSt8ios_baseRSt12_Ios_IostateRb @ 1689
;	std::num_get<wchar_t, std::istreambuf_iterator<wchar_t, std::char_traits<wchar_t> > >::do_get(std::istreambuf_iterator<wchar_t, std::char_traits<wchar_t> >, std::istreambuf_iterator<wchar_t, std::char_traits<wchar_t> >, std::ios_base&, std::_Ios_Iostate&, double&) const
	_ZNKSt7num_getIwSt19istreambuf_iteratorIwSt11char_traitsIwEEE6do_getES3_S3_RSt8ios_baseRSt12_Ios_IostateRd @ 1690
;	std::num_get<wchar_t, std::istreambuf_iterator<wchar_t, std::char_traits<wchar_t> > >::do_get(std::istreambuf_iterator<wchar_t, std::char_traits<wchar_t> >, std::istreambuf_iterator<wchar_t, std::char_traits<wchar_t> >, std::ios_base&, std::_Ios_Iostate&, long double&) const
	_ZNKSt7num_getIwSt19istreambuf_iteratorIwSt11char_traitsIwEEE6do_getES3_S3_RSt8ios_baseRSt12_Ios_IostateRe @ 1691
;	std::num_get<wchar_t, std::istreambuf_iterator<wchar_t, std::char_traits<wchar_t> > >::do_get(std::istreambuf_iterator<wchar_t, std::char_traits<wchar_t> >, std::istreambuf_iterator<wchar_t, std::char_traits<wchar_t> >, std::ios_base&, std::_Ios_Iostate&, float&) const
	_ZNKSt7num_getIwSt19istreambuf_iteratorIwSt11char_traitsIwEEE6do_getES3_S3_RSt8ios_baseRSt12_Ios_IostateRf @ 1692
;	std::num_get<wchar_t, std::istreambuf_iterator<wchar_t, std::char_traits<wchar_t> > >::do_get(std::istreambuf_iterator<wchar_t, std::char_traits<wchar_t> >, std::istreambuf_iterator<wchar_t, std::char_traits<wchar_t> >, std::ios_base&, std::_Ios_Iostate&, unsigned int&) const
	_ZNKSt7num_getIwSt19istreambuf_iteratorIwSt11char_traitsIwEEE6do_getES3_S3_RSt8ios_baseRSt12_Ios_IostateRj @ 1693
;	std::num_get<wchar_t, std::istreambuf_iterator<wchar_t, std::char_traits<wchar_t> > >::do_get(std::istreambuf_iterator<wchar_t, std::char_traits<wchar_t> >, std::istreambuf_iterator<wchar_t, std::char_traits<wchar_t> >, std::ios_base&, std::_Ios_Iostate&, long&) const
	_ZNKSt7num_getIwSt19istreambuf_iteratorIwSt11char_traitsIwEEE6do_getES3_S3_RSt8ios_baseRSt12_Ios_IostateRl @ 1694
;	std::num_get<wchar_t, std::istreambuf_iterator<wchar_t, std::char_traits<wchar_t> > >::do_get(std::istreambuf_iterator<wchar_t, std::char_traits<wchar_t> >, std::istreambuf_iterator<wchar_t, std::char_traits<wchar_t> >, std::ios_base&, std::_Ios_Iostate&, unsigned long&) const
	_ZNKSt7num_getIwSt19istreambuf_iteratorIwSt11char_traitsIwEEE6do_getES3_S3_RSt8ios_baseRSt12_Ios_IostateRm @ 1695
;	std::num_get<wchar_t, std::istreambuf_iterator<wchar_t, std::char_traits<wchar_t> > >::do_get(std::istreambuf_iterator<wchar_t, std::char_traits<wchar_t> >, std::istreambuf_iterator<wchar_t, std::char_traits<wchar_t> >, std::ios_base&, std::_Ios_Iostate&, unsigned short&) const
	_ZNKSt7num_getIwSt19istreambuf_iteratorIwSt11char_traitsIwEEE6do_getES3_S3_RSt8ios_baseRSt12_Ios_IostateRt @ 1696
;	std::num_get<wchar_t, std::istreambuf_iterator<wchar_t, std::char_traits<wchar_t> > >::do_get(std::istreambuf_iterator<wchar_t, std::char_traits<wchar_t> >, std::istreambuf_iterator<wchar_t, std::char_traits<wchar_t> >, std::ios_base&, std::_Ios_Iostate&, long long&) const
	_ZNKSt7num_getIwSt19istreambuf_iteratorIwSt11char_traitsIwEEE6do_getES3_S3_RSt8ios_baseRSt12_Ios_IostateRx @ 1697
;	std::num_get<wchar_t, std::istreambuf_iterator<wchar_t, std::char_traits<wchar_t> > >::do_get(std::istreambuf_iterator<wchar_t, std::char_traits<wchar_t> >, std::istreambuf_iterator<wchar_t, std::char_traits<wchar_t> >, std::ios_base&, std::_Ios_Iostate&, unsigned long long&) const
	_ZNKSt7num_getIwSt19istreambuf_iteratorIwSt11char_traitsIwEEE6do_getES3_S3_RSt8ios_baseRSt12_Ios_IostateRy @ 1698
;	std::num_put<char, std::ostreambuf_iterator<char, std::char_traits<char> > >::_M_group_int(char const*, unsigned long long, char, std::ios_base&, char*, char*, int&) const
	_ZNKSt7num_putIcSt19ostreambuf_iteratorIcSt11char_traitsIcEEE12_M_group_intEPKcycRSt8ios_basePcS9_Ri @ 1699
;	std::ostreambuf_iterator<char, std::char_traits<char> > std::num_put<char, std::ostreambuf_iterator<char, std::char_traits<char> > >::_M_insert_int<long>(std::ostreambuf_iterator<char, std::char_traits<char> >, std::ios_base&, char, long) const
	_ZNKSt7num_putIcSt19ostreambuf_iteratorIcSt11char_traitsIcEEE13_M_insert_intIlEES3_S3_RSt8ios_basecT_ @ 1700
;	std::ostreambuf_iterator<char, std::char_traits<char> > std::num_put<char, std::ostreambuf_iterator<char, std::char_traits<char> > >::_M_insert_int<unsigned long>(std::ostreambuf_iterator<char, std::char_traits<char> >, std::ios_base&, char, unsigned long) const
	_ZNKSt7num_putIcSt19ostreambuf_iteratorIcSt11char_traitsIcEEE13_M_insert_intImEES3_S3_RSt8ios_basecT_ @ 1701
;	std::ostreambuf_iterator<char, std::char_traits<char> > std::num_put<char, std::ostreambuf_iterator<char, std::char_traits<char> > >::_M_insert_int<long long>(std::ostreambuf_iterator<char, std::char_traits<char> >, std::ios_base&, char, long long) const
	_ZNKSt7num_putIcSt19ostreambuf_iteratorIcSt11char_traitsIcEEE13_M_insert_intIxEES3_S3_RSt8ios_basecT_ @ 1702
;	std::ostreambuf_iterator<char, std::char_traits<char> > std::num_put<char, std::ostreambuf_iterator<char, std::char_traits<char> > >::_M_insert_int<unsigned long long>(std::ostreambuf_iterator<char, std::char_traits<char> >, std::ios_base&, char, unsigned long long) const
	_ZNKSt7num_putIcSt19ostreambuf_iteratorIcSt11char_traitsIcEEE13_M_insert_intIyEES3_S3_RSt8ios_basecT_ @ 1703
;	std::num_put<char, std::ostreambuf_iterator<char, std::char_traits<char> > >::_M_group_float(char const*, unsigned long long, char, char const*, char*, char*, int&) const
	_ZNKSt7num_putIcSt19ostreambuf_iteratorIcSt11char_traitsIcEEE14_M_group_floatEPKcycS6_PcS7_Ri @ 1704
;	std::ostreambuf_iterator<char, std::char_traits<char> > std::num_put<char, std::ostreambuf_iterator<char, std::char_traits<char> > >::_M_insert_float<double>(std::ostreambuf_iterator<char, std::char_traits<char> >, std::ios_base&, char, char, double) const
	_ZNKSt7num_putIcSt19ostreambuf_iteratorIcSt11char_traitsIcEEE15_M_insert_floatIdEES3_S3_RSt8ios_baseccT_ @ 1705
;	std::ostreambuf_iterator<char, std::char_traits<char> > std::num_put<char, std::ostreambuf_iterator<char, std::char_traits<char> > >::_M_insert_float<long double>(std::ostreambuf_iterator<char, std::char_traits<char> >, std::ios_base&, char, char, long double) const
	_ZNKSt7num_putIcSt19ostreambuf_iteratorIcSt11char_traitsIcEEE15_M_insert_floatIeEES3_S3_RSt8ios_baseccT_ @ 1706
;	std::num_put<char, std::ostreambuf_iterator<char, std::char_traits<char> > >::put(std::ostreambuf_iterator<char, std::char_traits<char> >, std::ios_base&, char, void const*) const
	_ZNKSt7num_putIcSt19ostreambuf_iteratorIcSt11char_traitsIcEEE3putES3_RSt8ios_basecPKv @ 1707
;	std::num_put<char, std::ostreambuf_iterator<char, std::char_traits<char> > >::put(std::ostreambuf_iterator<char, std::char_traits<char> >, std::ios_base&, char, bool) const
	_ZNKSt7num_putIcSt19ostreambuf_iteratorIcSt11char_traitsIcEEE3putES3_RSt8ios_basecb @ 1708
;	std::num_put<char, std::ostreambuf_iterator<char, std::char_traits<char> > >::put(std::ostreambuf_iterator<char, std::char_traits<char> >, std::ios_base&, char, double) const
	_ZNKSt7num_putIcSt19ostreambuf_iteratorIcSt11char_traitsIcEEE3putES3_RSt8ios_basecd @ 1709
;	std::num_put<char, std::ostreambuf_iterator<char, std::char_traits<char> > >::put(std::ostreambuf_iterator<char, std::char_traits<char> >, std::ios_base&, char, long double) const
	_ZNKSt7num_putIcSt19ostreambuf_iteratorIcSt11char_traitsIcEEE3putES3_RSt8ios_basece @ 1710
;	std::num_put<char, std::ostreambuf_iterator<char, std::char_traits<char> > >::put(std::ostreambuf_iterator<char, std::char_traits<char> >, std::ios_base&, char, long) const
	_ZNKSt7num_putIcSt19ostreambuf_iteratorIcSt11char_traitsIcEEE3putES3_RSt8ios_basecl @ 1711
;	std::num_put<char, std::ostreambuf_iterator<char, std::char_traits<char> > >::put(std::ostreambuf_iterator<char, std::char_traits<char> >, std::ios_base&, char, unsigned long) const
	_ZNKSt7num_putIcSt19ostreambuf_iteratorIcSt11char_traitsIcEEE3putES3_RSt8ios_basecm @ 1712
;	std::num_put<char, std::ostreambuf_iterator<char, std::char_traits<char> > >::put(std::ostreambuf_iterator<char, std::char_traits<char> >, std::ios_base&, char, long long) const
	_ZNKSt7num_putIcSt19ostreambuf_iteratorIcSt11char_traitsIcEEE3putES3_RSt8ios_basecx @ 1713
;	std::num_put<char, std::ostreambuf_iterator<char, std::char_traits<char> > >::put(std::ostreambuf_iterator<char, std::char_traits<char> >, std::ios_base&, char, unsigned long long) const
	_ZNKSt7num_putIcSt19ostreambuf_iteratorIcSt11char_traitsIcEEE3putES3_RSt8ios_basecy @ 1714
;	std::num_put<char, std::ostreambuf_iterator<char, std::char_traits<char> > >::_M_pad(char, long long, std::ios_base&, char*, char const*, int&) const
	_ZNKSt7num_putIcSt19ostreambuf_iteratorIcSt11char_traitsIcEEE6_M_padEcxRSt8ios_basePcPKcRi @ 1715
;	std::num_put<char, std::ostreambuf_iterator<char, std::char_traits<char> > >::do_put(std::ostreambuf_iterator<char, std::char_traits<char> >, std::ios_base&, char, void const*) const
	_ZNKSt7num_putIcSt19ostreambuf_iteratorIcSt11char_traitsIcEEE6do_putES3_RSt8ios_basecPKv @ 1716
;	std::num_put<char, std::ostreambuf_iterator<char, std::char_traits<char> > >::do_put(std::ostreambuf_iterator<char, std::char_traits<char> >, std::ios_base&, char, bool) const
	_ZNKSt7num_putIcSt19ostreambuf_iteratorIcSt11char_traitsIcEEE6do_putES3_RSt8ios_basecb @ 1717
;	std::num_put<char, std::ostreambuf_iterator<char, std::char_traits<char> > >::do_put(std::ostreambuf_iterator<char, std::char_traits<char> >, std::ios_base&, char, double) const
	_ZNKSt7num_putIcSt19ostreambuf_iteratorIcSt11char_traitsIcEEE6do_putES3_RSt8ios_basecd @ 1718
;	std::num_put<char, std::ostreambuf_iterator<char, std::char_traits<char> > >::do_put(std::ostreambuf_iterator<char, std::char_traits<char> >, std::ios_base&, char, long double) const
	_ZNKSt7num_putIcSt19ostreambuf_iteratorIcSt11char_traitsIcEEE6do_putES3_RSt8ios_basece @ 1719
;	std::num_put<char, std::ostreambuf_iterator<char, std::char_traits<char> > >::do_put(std::ostreambuf_iterator<char, std::char_traits<char> >, std::ios_base&, char, long) const
	_ZNKSt7num_putIcSt19ostreambuf_iteratorIcSt11char_traitsIcEEE6do_putES3_RSt8ios_basecl @ 1720
;	std::num_put<char, std::ostreambuf_iterator<char, std::char_traits<char> > >::do_put(std::ostreambuf_iterator<char, std::char_traits<char> >, std::ios_base&, char, unsigned long) const
	_ZNKSt7num_putIcSt19ostreambuf_iteratorIcSt11char_traitsIcEEE6do_putES3_RSt8ios_basecm @ 1721
;	std::num_put<char, std::ostreambuf_iterator<char, std::char_traits<char> > >::do_put(std::ostreambuf_iterator<char, std::char_traits<char> >, std::ios_base&, char, long long) const
	_ZNKSt7num_putIcSt19ostreambuf_iteratorIcSt11char_traitsIcEEE6do_putES3_RSt8ios_basecx @ 1722
;	std::num_put<char, std::ostreambuf_iterator<char, std::char_traits<char> > >::do_put(std::ostreambuf_iterator<char, std::char_traits<char> >, std::ios_base&, char, unsigned long long) const
	_ZNKSt7num_putIcSt19ostreambuf_iteratorIcSt11char_traitsIcEEE6do_putES3_RSt8ios_basecy @ 1723
;	std::num_put<wchar_t, std::ostreambuf_iterator<wchar_t, std::char_traits<wchar_t> > >::_M_group_int(char const*, unsigned long long, wchar_t, std::ios_base&, wchar_t*, wchar_t*, int&) const
	_ZNKSt7num_putIwSt19ostreambuf_iteratorIwSt11char_traitsIwEEE12_M_group_intEPKcywRSt8ios_basePwS9_Ri @ 1724
;	std::ostreambuf_iterator<wchar_t, std::char_traits<wchar_t> > std::num_put<wchar_t, std::ostreambuf_iterator<wchar_t, std::char_traits<wchar_t> > >::_M_insert_int<long>(std::ostreambuf_iterator<wchar_t, std::char_traits<wchar_t> >, std::ios_base&, wchar_t, long) const
	_ZNKSt7num_putIwSt19ostreambuf_iteratorIwSt11char_traitsIwEEE13_M_insert_intIlEES3_S3_RSt8ios_basewT_ @ 1725
;	std::ostreambuf_iterator<wchar_t, std::char_traits<wchar_t> > std::num_put<wchar_t, std::ostreambuf_iterator<wchar_t, std::char_traits<wchar_t> > >::_M_insert_int<unsigned long>(std::ostreambuf_iterator<wchar_t, std::char_traits<wchar_t> >, std::ios_base&, wchar_t, unsigned long) const
	_ZNKSt7num_putIwSt19ostreambuf_iteratorIwSt11char_traitsIwEEE13_M_insert_intImEES3_S3_RSt8ios_basewT_ @ 1726
;	std::ostreambuf_iterator<wchar_t, std::char_traits<wchar_t> > std::num_put<wchar_t, std::ostreambuf_iterator<wchar_t, std::char_traits<wchar_t> > >::_M_insert_int<long long>(std::ostreambuf_iterator<wchar_t, std::char_traits<wchar_t> >, std::ios_base&, wchar_t, long long) const
	_ZNKSt7num_putIwSt19ostreambuf_iteratorIwSt11char_traitsIwEEE13_M_insert_intIxEES3_S3_RSt8ios_basewT_ @ 1727
;	std::ostreambuf_iterator<wchar_t, std::char_traits<wchar_t> > std::num_put<wchar_t, std::ostreambuf_iterator<wchar_t, std::char_traits<wchar_t> > >::_M_insert_int<unsigned long long>(std::ostreambuf_iterator<wchar_t, std::char_traits<wchar_t> >, std::ios_base&, wchar_t, unsigned long long) const
	_ZNKSt7num_putIwSt19ostreambuf_iteratorIwSt11char_traitsIwEEE13_M_insert_intIyEES3_S3_RSt8ios_basewT_ @ 1728
;	std::num_put<wchar_t, std::ostreambuf_iterator<wchar_t, std::char_traits<wchar_t> > >::_M_group_float(char const*, unsigned long long, wchar_t, wchar_t const*, wchar_t*, wchar_t*, int&) const
	_ZNKSt7num_putIwSt19ostreambuf_iteratorIwSt11char_traitsIwEEE14_M_group_floatEPKcywPKwPwS9_Ri @ 1729
;	std::ostreambuf_iterator<wchar_t, std::char_traits<wchar_t> > std::num_put<wchar_t, std::ostreambuf_iterator<wchar_t, std::char_traits<wchar_t> > >::_M_insert_float<double>(std::ostreambuf_iterator<wchar_t, std::char_traits<wchar_t> >, std::ios_base&, wchar_t, char, double) const
	_ZNKSt7num_putIwSt19ostreambuf_iteratorIwSt11char_traitsIwEEE15_M_insert_floatIdEES3_S3_RSt8ios_basewcT_ @ 1730
;	std::ostreambuf_iterator<wchar_t, std::char_traits<wchar_t> > std::num_put<wchar_t, std::ostreambuf_iterator<wchar_t, std::char_traits<wchar_t> > >::_M_insert_float<long double>(std::ostreambuf_iterator<wchar_t, std::char_traits<wchar_t> >, std::ios_base&, wchar_t, char, long double) const
	_ZNKSt7num_putIwSt19ostreambuf_iteratorIwSt11char_traitsIwEEE15_M_insert_floatIeEES3_S3_RSt8ios_basewcT_ @ 1731
;	std::num_put<wchar_t, std::ostreambuf_iterator<wchar_t, std::char_traits<wchar_t> > >::put(std::ostreambuf_iterator<wchar_t, std::char_traits<wchar_t> >, std::ios_base&, wchar_t, void const*) const
	_ZNKSt7num_putIwSt19ostreambuf_iteratorIwSt11char_traitsIwEEE3putES3_RSt8ios_basewPKv @ 1732
;	std::num_put<wchar_t, std::ostreambuf_iterator<wchar_t, std::char_traits<wchar_t> > >::put(std::ostreambuf_iterator<wchar_t, std::char_traits<wchar_t> >, std::ios_base&, wchar_t, bool) const
	_ZNKSt7num_putIwSt19ostreambuf_iteratorIwSt11char_traitsIwEEE3putES3_RSt8ios_basewb @ 1733
;	std::num_put<wchar_t, std::ostreambuf_iterator<wchar_t, std::char_traits<wchar_t> > >::put(std::ostreambuf_iterator<wchar_t, std::char_traits<wchar_t> >, std::ios_base&, wchar_t, double) const
	_ZNKSt7num_putIwSt19ostreambuf_iteratorIwSt11char_traitsIwEEE3putES3_RSt8ios_basewd @ 1734
;	std::num_put<wchar_t, std::ostreambuf_iterator<wchar_t, std::char_traits<wchar_t> > >::put(std::ostreambuf_iterator<wchar_t, std::char_traits<wchar_t> >, std::ios_base&, wchar_t, long double) const
	_ZNKSt7num_putIwSt19ostreambuf_iteratorIwSt11char_traitsIwEEE3putES3_RSt8ios_basewe @ 1735
;	std::num_put<wchar_t, std::ostreambuf_iterator<wchar_t, std::char_traits<wchar_t> > >::put(std::ostreambuf_iterator<wchar_t, std::char_traits<wchar_t> >, std::ios_base&, wchar_t, long) const
	_ZNKSt7num_putIwSt19ostreambuf_iteratorIwSt11char_traitsIwEEE3putES3_RSt8ios_basewl @ 1736
;	std::num_put<wchar_t, std::ostreambuf_iterator<wchar_t, std::char_traits<wchar_t> > >::put(std::ostreambuf_iterator<wchar_t, std::char_traits<wchar_t> >, std::ios_base&, wchar_t, unsigned long) const
	_ZNKSt7num_putIwSt19ostreambuf_iteratorIwSt11char_traitsIwEEE3putES3_RSt8ios_basewm @ 1737
;	std::num_put<wchar_t, std::ostreambuf_iterator<wchar_t, std::char_traits<wchar_t> > >::put(std::ostreambuf_iterator<wchar_t, std::char_traits<wchar_t> >, std::ios_base&, wchar_t, long long) const
	_ZNKSt7num_putIwSt19ostreambuf_iteratorIwSt11char_traitsIwEEE3putES3_RSt8ios_basewx @ 1738
;	std::num_put<wchar_t, std::ostreambuf_iterator<wchar_t, std::char_traits<wchar_t> > >::put(std::ostreambuf_iterator<wchar_t, std::char_traits<wchar_t> >, std::ios_base&, wchar_t, unsigned long long) const
	_ZNKSt7num_putIwSt19ostreambuf_iteratorIwSt11char_traitsIwEEE3putES3_RSt8ios_basewy @ 1739
;	std::num_put<wchar_t, std::ostreambuf_iterator<wchar_t, std::char_traits<wchar_t> > >::_M_pad(wchar_t, long long, std::ios_base&, wchar_t*, wchar_t const*, int&) const
	_ZNKSt7num_putIwSt19ostreambuf_iteratorIwSt11char_traitsIwEEE6_M_padEwxRSt8ios_basePwPKwRi @ 1740
;	std::num_put<wchar_t, std::ostreambuf_iterator<wchar_t, std::char_traits<wchar_t> > >::do_put(std::ostreambuf_iterator<wchar_t, std::char_traits<wchar_t> >, std::ios_base&, wchar_t, void const*) const
	_ZNKSt7num_putIwSt19ostreambuf_iteratorIwSt11char_traitsIwEEE6do_putES3_RSt8ios_basewPKv @ 1741
;	std::num_put<wchar_t, std::ostreambuf_iterator<wchar_t, std::char_traits<wchar_t> > >::do_put(std::ostreambuf_iterator<wchar_t, std::char_traits<wchar_t> >, std::ios_base&, wchar_t, bool) const
	_ZNKSt7num_putIwSt19ostreambuf_iteratorIwSt11char_traitsIwEEE6do_putES3_RSt8ios_basewb @ 1742
;	std::num_put<wchar_t, std::ostreambuf_iterator<wchar_t, std::char_traits<wchar_t> > >::do_put(std::ostreambuf_iterator<wchar_t, std::char_traits<wchar_t> >, std::ios_base&, wchar_t, double) const
	_ZNKSt7num_putIwSt19ostreambuf_iteratorIwSt11char_traitsIwEEE6do_putES3_RSt8ios_basewd @ 1743
;	std::num_put<wchar_t, std::ostreambuf_iterator<wchar_t, std::char_traits<wchar_t> > >::do_put(std::ostreambuf_iterator<wchar_t, std::char_traits<wchar_t> >, std::ios_base&, wchar_t, long double) const
	_ZNKSt7num_putIwSt19ostreambuf_iteratorIwSt11char_traitsIwEEE6do_putES3_RSt8ios_basewe @ 1744
;	std::num_put<wchar_t, std::ostreambuf_iterator<wchar_t, std::char_traits<wchar_t> > >::do_put(std::ostreambuf_iterator<wchar_t, std::char_traits<wchar_t> >, std::ios_base&, wchar_t, long) const
	_ZNKSt7num_putIwSt19ostreambuf_iteratorIwSt11char_traitsIwEEE6do_putES3_RSt8ios_basewl @ 1745
;	std::num_put<wchar_t, std::ostreambuf_iterator<wchar_t, std::char_traits<wchar_t> > >::do_put(std::ostreambuf_iterator<wchar_t, std::char_traits<wchar_t> >, std::ios_base&, wchar_t, unsigned long) const
	_ZNKSt7num_putIwSt19ostreambuf_iteratorIwSt11char_traitsIwEEE6do_putES3_RSt8ios_basewm @ 1746
;	std::num_put<wchar_t, std::ostreambuf_iterator<wchar_t, std::char_traits<wchar_t> > >::do_put(std::ostreambuf_iterator<wchar_t, std::char_traits<wchar_t> >, std::ios_base&, wchar_t, long long) const
	_ZNKSt7num_putIwSt19ostreambuf_iteratorIwSt11char_traitsIwEEE6do_putES3_RSt8ios_basewx @ 1747
;	std::num_put<wchar_t, std::ostreambuf_iterator<wchar_t, std::char_traits<wchar_t> > >::do_put(std::ostreambuf_iterator<wchar_t, std::char_traits<wchar_t> >, std::ios_base&, wchar_t, unsigned long long) const
	_ZNKSt7num_putIwSt19ostreambuf_iteratorIwSt11char_traitsIwEEE6do_putES3_RSt8ios_basewy @ 1748
;	std::__detail::_Prime_rehash_policy::_M_next_bkt(unsigned long long) const
	_ZNKSt8__detail20_Prime_rehash_policy11_M_next_bktEy @ 1749
;	std::__detail::_Prime_rehash_policy::_M_need_rehash(unsigned long long, unsigned long long, unsigned long long) const
	_ZNKSt8__detail20_Prime_rehash_policy14_M_need_rehashEyyy @ 1750
;	std::bad_cast::what() const
	_ZNKSt8bad_cast4whatEv @ 1751
;	std::ios_base::failure::what() const
	_ZNKSt8ios_base7failure4whatEv @ 1752
;	std::ios_base::failure[abi:cxx11]::what() const
	_ZNKSt8ios_base7failureB5cxx114whatEv @ 1753
;	std::messages<char>::_M_convert_to_char(std::string const&) const
	_ZNKSt8messagesIcE18_M_convert_to_charERKSs @ 1754
;	std::messages<char>::_M_convert_from_char(char*) const
	_ZNKSt8messagesIcE20_M_convert_from_charEPc @ 1755
;	std::messages<char>::get(int, int, int, std::string const&) const
	_ZNKSt8messagesIcE3getEiiiRKSs @ 1756
;	std::messages<char>::open(std::string const&, std::locale const&) const
	_ZNKSt8messagesIcE4openERKSsRKSt6locale @ 1757
;	std::messages<char>::open(std::string const&, std::locale const&, char const*) const
	_ZNKSt8messagesIcE4openERKSsRKSt6localePKc @ 1758
;	std::messages<char>::close(int) const
	_ZNKSt8messagesIcE5closeEi @ 1759
;	std::messages<char>::do_get(int, int, int, std::string const&) const
	_ZNKSt8messagesIcE6do_getEiiiRKSs @ 1760
;	std::messages<char>::do_open(std::string const&, std::locale const&) const
	_ZNKSt8messagesIcE7do_openERKSsRKSt6locale @ 1761
;	std::messages<char>::do_close(int) const
	_ZNKSt8messagesIcE8do_closeEi @ 1762
;	std::messages<wchar_t>::_M_convert_to_char(std::basic_string<wchar_t, std::char_traits<wchar_t>, std::allocator<wchar_t> > const&) const
	_ZNKSt8messagesIwE18_M_convert_to_charERKSbIwSt11char_traitsIwESaIwEE @ 1763
;	std::messages<wchar_t>::_M_convert_from_char(char*) const
	_ZNKSt8messagesIwE20_M_convert_from_charEPc @ 1764
;	std::messages<wchar_t>::get(int, int, int, std::basic_string<wchar_t, std::char_traits<wchar_t>, std::allocator<wchar_t> > const&) const
	_ZNKSt8messagesIwE3getEiiiRKSbIwSt11char_traitsIwESaIwEE @ 1765
;	std::messages<wchar_t>::open(std::string const&, std::locale const&) const
	_ZNKSt8messagesIwE4openERKSsRKSt6locale @ 1766
;	std::messages<wchar_t>::open(std::string const&, std::locale const&, char const*) const
	_ZNKSt8messagesIwE4openERKSsRKSt6localePKc @ 1767
;	std::messages<wchar_t>::close(int) const
	_ZNKSt8messagesIwE5closeEi @ 1768
;	std::messages<wchar_t>::do_get(int, int, int, std::basic_string<wchar_t, std::char_traits<wchar_t>, std::allocator<wchar_t> > const&) const
	_ZNKSt8messagesIwE6do_getEiiiRKSbIwSt11char_traitsIwESaIwEE @ 1769
;	std::messages<wchar_t>::do_open(std::string const&, std::locale const&) const
	_ZNKSt8messagesIwE7do_openERKSsRKSt6locale @ 1770
;	std::messages<wchar_t>::do_close(int) const
	_ZNKSt8messagesIwE8do_closeEi @ 1771
;	std::numpunct<char>::do_grouping() const
	_ZNKSt8numpunctIcE11do_groupingEv @ 1772
;	std::numpunct<char>::do_truename() const
	_ZNKSt8numpunctIcE11do_truenameEv @ 1773
;	std::numpunct<char>::do_falsename() const
	_ZNKSt8numpunctIcE12do_falsenameEv @ 1774
;	std::numpunct<char>::decimal_point() const
	_ZNKSt8numpunctIcE13decimal_pointEv @ 1775
;	std::numpunct<char>::thousands_sep() const
	_ZNKSt8numpunctIcE13thousands_sepEv @ 1776
;	std::numpunct<char>::do_decimal_point() const
	_ZNKSt8numpunctIcE16do_decimal_pointEv @ 1777
;	std::numpunct<char>::do_thousands_sep() const
	_ZNKSt8numpunctIcE16do_thousands_sepEv @ 1778
;	std::numpunct<char>::grouping() const
	_ZNKSt8numpunctIcE8groupingEv @ 1779
;	std::numpunct<char>::truename() const
	_ZNKSt8numpunctIcE8truenameEv @ 1780
;	std::numpunct<char>::falsename() const
	_ZNKSt8numpunctIcE9falsenameEv @ 1781
;	std::numpunct<wchar_t>::do_grouping() const
	_ZNKSt8numpunctIwE11do_groupingEv @ 1782
;	std::numpunct<wchar_t>::do_truename() const
	_ZNKSt8numpunctIwE11do_truenameEv @ 1783
;	std::numpunct<wchar_t>::do_falsename() const
	_ZNKSt8numpunctIwE12do_falsenameEv @ 1784
;	std::numpunct<wchar_t>::decimal_point() const
	_ZNKSt8numpunctIwE13decimal_pointEv @ 1785
;	std::numpunct<wchar_t>::thousands_sep() const
	_ZNKSt8numpunctIwE13thousands_sepEv @ 1786
;	std::numpunct<wchar_t>::do_decimal_point() const
	_ZNKSt8numpunctIwE16do_decimal_pointEv @ 1787
;	std::numpunct<wchar_t>::do_thousands_sep() const
	_ZNKSt8numpunctIwE16do_thousands_sepEv @ 1788
;	std::numpunct<wchar_t>::grouping() const
	_ZNKSt8numpunctIwE8groupingEv @ 1789
;	std::numpunct<wchar_t>::truename() const
	_ZNKSt8numpunctIwE8truenameEv @ 1790
;	std::numpunct<wchar_t>::falsename() const
	_ZNKSt8numpunctIwE9falsenameEv @ 1791
;	std::time_get<char, std::istreambuf_iterator<char, std::char_traits<char> > >::date_order() const
	_ZNKSt8time_getIcSt19istreambuf_iteratorIcSt11char_traitsIcEEE10date_orderEv @ 1792
;	std::time_get<char, std::istreambuf_iterator<char, std::char_traits<char> > >::do_get_date(std::istreambuf_iterator<char, std::char_traits<char> >, std::istreambuf_iterator<char, std::char_traits<char> >, std::ios_base&, std::_Ios_Iostate&, tm*) const
	_ZNKSt8time_getIcSt19istreambuf_iteratorIcSt11char_traitsIcEEE11do_get_dateES3_S3_RSt8ios_baseRSt12_Ios_IostateP2tm @ 1793
;	std::time_get<char, std::istreambuf_iterator<char, std::char_traits<char> > >::do_get_time(std::istreambuf_iterator<char, std::char_traits<char> >, std::istreambuf_iterator<char, std::char_traits<char> >, std::ios_base&, std::_Ios_Iostate&, tm*) const
	_ZNKSt8time_getIcSt19istreambuf_iteratorIcSt11char_traitsIcEEE11do_get_timeES3_S3_RSt8ios_baseRSt12_Ios_IostateP2tm @ 1794
;	std::time_get<char, std::istreambuf_iterator<char, std::char_traits<char> > >::do_get_year(std::istreambuf_iterator<char, std::char_traits<char> >, std::istreambuf_iterator<char, std::char_traits<char> >, std::ios_base&, std::_Ios_Iostate&, tm*) const
	_ZNKSt8time_getIcSt19istreambuf_iteratorIcSt11char_traitsIcEEE11do_get_yearES3_S3_RSt8ios_baseRSt12_Ios_IostateP2tm @ 1795
;	std::time_get<char, std::istreambuf_iterator<char, std::char_traits<char> > >::get_weekday(std::istreambuf_iterator<char, std::char_traits<char> >, std::istreambuf_iterator<char, std::char_traits<char> >, std::ios_base&, std::_Ios_Iostate&, tm*) const
	_ZNKSt8time_getIcSt19istreambuf_iteratorIcSt11char_traitsIcEEE11get_weekdayES3_S3_RSt8ios_baseRSt12_Ios_IostateP2tm @ 1796
;	std::time_get<char, std::istreambuf_iterator<char, std::char_traits<char> > >::do_date_order() const
	_ZNKSt8time_getIcSt19istreambuf_iteratorIcSt11char_traitsIcEEE13do_date_orderEv @ 1797
;	std::time_get<char, std::istreambuf_iterator<char, std::char_traits<char> > >::get_monthname(std::istreambuf_iterator<char, std::char_traits<char> >, std::istreambuf_iterator<char, std::char_traits<char> >, std::ios_base&, std::_Ios_Iostate&, tm*) const
	_ZNKSt8time_getIcSt19istreambuf_iteratorIcSt11char_traitsIcEEE13get_monthnameES3_S3_RSt8ios_baseRSt12_Ios_IostateP2tm @ 1798
;	std::time_get<char, std::istreambuf_iterator<char, std::char_traits<char> > >::_M_extract_num(std::istreambuf_iterator<char, std::char_traits<char> >, std::istreambuf_iterator<char, std::char_traits<char> >, int&, int, int, unsigned long long, std::ios_base&, std::_Ios_Iostate&) const
	_ZNKSt8time_getIcSt19istreambuf_iteratorIcSt11char_traitsIcEEE14_M_extract_numES3_S3_RiiiyRSt8ios_baseRSt12_Ios_Iostate @ 1799
;	std::time_get<char, std::istreambuf_iterator<char, std::char_traits<char> > >::do_get_weekday(std::istreambuf_iterator<char, std::char_traits<char> >, std::istreambuf_iterator<char, std::char_traits<char> >, std::ios_base&, std::_Ios_Iostate&, tm*) const
	_ZNKSt8time_getIcSt19istreambuf_iteratorIcSt11char_traitsIcEEE14do_get_weekdayES3_S3_RSt8ios_baseRSt12_Ios_IostateP2tm @ 1800
;	std::time_get<char, std::istreambuf_iterator<char, std::char_traits<char> > >::_M_extract_name(std::istreambuf_iterator<char, std::char_traits<char> >, std::istreambuf_iterator<char, std::char_traits<char> >, int&, char const**, unsigned long long, std::ios_base&, std::_Ios_Iostate&) const
	_ZNKSt8time_getIcSt19istreambuf_iteratorIcSt11char_traitsIcEEE15_M_extract_nameES3_S3_RiPPKcyRSt8ios_baseRSt12_Ios_Iostate @ 1801
;	std::time_get<char, std::istreambuf_iterator<char, std::char_traits<char> > >::do_get_monthname(std::istreambuf_iterator<char, std::char_traits<char> >, std::istreambuf_iterator<char, std::char_traits<char> >, std::ios_base&, std::_Ios_Iostate&, tm*) const
	_ZNKSt8time_getIcSt19istreambuf_iteratorIcSt11char_traitsIcEEE16do_get_monthnameES3_S3_RSt8ios_baseRSt12_Ios_IostateP2tm @ 1802
;	std::time_get<char, std::istreambuf_iterator<char, std::char_traits<char> > >::_M_extract_via_format(std::istreambuf_iterator<char, std::char_traits<char> >, std::istreambuf_iterator<char, std::char_traits<char> >, std::ios_base&, std::_Ios_Iostate&, tm*, char const*) const
	_ZNKSt8time_getIcSt19istreambuf_iteratorIcSt11char_traitsIcEEE21_M_extract_via_formatES3_S3_RSt8ios_baseRSt12_Ios_IostateP2tmPKc @ 1803
;	std::time_get<char, std::istreambuf_iterator<char, std::char_traits<char> > >::_M_extract_via_format(std::istreambuf_iterator<char, std::char_traits<char> >, std::istreambuf_iterator<char, std::char_traits<char> >, std::ios_base&, std::_Ios_Iostate&, tm*, char const*, std::__time_get_state&) const
	_ZNKSt8time_getIcSt19istreambuf_iteratorIcSt11char_traitsIcEEE21_M_extract_via_formatES3_S3_RSt8ios_baseRSt12_Ios_IostateP2tmPKcRSt16__time_get_state @ 1804
;	std::time_get<char, std::istreambuf_iterator<char, std::char_traits<char> > >::_M_extract_wday_or_month(std::istreambuf_iterator<char, std::char_traits<char> >, std::istreambuf_iterator<char, std::char_traits<char> >, int&, char const**, unsigned long long, std::ios_base&, std::_Ios_Iostate&) const
	_ZNKSt8time_getIcSt19istreambuf_iteratorIcSt11char_traitsIcEEE24_M_extract_wday_or_monthES3_S3_RiPPKcyRSt8ios_baseRSt12_Ios_Iostate @ 1805
;	std::time_get<char, std::istreambuf_iterator<char, std::char_traits<char> > >::get(std::istreambuf_iterator<char, std::char_traits<char> >, std::istreambuf_iterator<char, std::char_traits<char> >, std::ios_base&, std::_Ios_Iostate&, tm*, char const*, char const*) const
	_ZNKSt8time_getIcSt19istreambuf_iteratorIcSt11char_traitsIcEEE3getES3_S3_RSt8ios_baseRSt12_Ios_IostateP2tmPKcSC_ @ 1806
;	std::time_get<char, std::istreambuf_iterator<char, std::char_traits<char> > >::get(std::istreambuf_iterator<char, std::char_traits<char> >, std::istreambuf_iterator<char, std::char_traits<char> >, std::ios_base&, std::_Ios_Iostate&, tm*, char, char) const
	_ZNKSt8time_getIcSt19istreambuf_iteratorIcSt11char_traitsIcEEE3getES3_S3_RSt8ios_baseRSt12_Ios_IostateP2tmcc @ 1807
;	std::time_get<char, std::istreambuf_iterator<char, std::char_traits<char> > >::do_get(std::istreambuf_iterator<char, std::char_traits<char> >, std::istreambuf_iterator<char, std::char_traits<char> >, std::ios_base&, std::_Ios_Iostate&, tm*, char, char) const
	_ZNKSt8time_getIcSt19istreambuf_iteratorIcSt11char_traitsIcEEE6do_getES3_S3_RSt8ios_baseRSt12_Ios_IostateP2tmcc @ 1808
;	std::time_get<char, std::istreambuf_iterator<char, std::char_traits<char> > >::get_date(std::istreambuf_iterator<char, std::char_traits<char> >, std::istreambuf_iterator<char, std::char_traits<char> >, std::ios_base&, std::_Ios_Iostate&, tm*) const
	_ZNKSt8time_getIcSt19istreambuf_iteratorIcSt11char_traitsIcEEE8get_dateES3_S3_RSt8ios_baseRSt12_Ios_IostateP2tm @ 1809
;	std::time_get<char, std::istreambuf_iterator<char, std::char_traits<char> > >::get_time(std::istreambuf_iterator<char, std::char_traits<char> >, std::istreambuf_iterator<char, std::char_traits<char> >, std::ios_base&, std::_Ios_Iostate&, tm*) const
	_ZNKSt8time_getIcSt19istreambuf_iteratorIcSt11char_traitsIcEEE8get_timeES3_S3_RSt8ios_baseRSt12_Ios_IostateP2tm @ 1810
;	std::time_get<char, std::istreambuf_iterator<char, std::char_traits<char> > >::get_year(std::istreambuf_iterator<char, std::char_traits<char> >, std::istreambuf_iterator<char, std::char_traits<char> >, std::ios_base&, std::_Ios_Iostate&, tm*) const
	_ZNKSt8time_getIcSt19istreambuf_iteratorIcSt11char_traitsIcEEE8get_yearES3_S3_RSt8ios_baseRSt12_Ios_IostateP2tm @ 1811
;	std::time_get<wchar_t, std::istreambuf_iterator<wchar_t, std::char_traits<wchar_t> > >::date_order() const
	_ZNKSt8time_getIwSt19istreambuf_iteratorIwSt11char_traitsIwEEE10date_orderEv @ 1812
;	std::time_get<wchar_t, std::istreambuf_iterator<wchar_t, std::char_traits<wchar_t> > >::do_get_date(std::istreambuf_iterator<wchar_t, std::char_traits<wchar_t> >, std::istreambuf_iterator<wchar_t, std::char_traits<wchar_t> >, std::ios_base&, std::_Ios_Iostate&, tm*) const
	_ZNKSt8time_getIwSt19istreambuf_iteratorIwSt11char_traitsIwEEE11do_get_dateES3_S3_RSt8ios_baseRSt12_Ios_IostateP2tm @ 1813
;	std::time_get<wchar_t, std::istreambuf_iterator<wchar_t, std::char_traits<wchar_t> > >::do_get_time(std::istreambuf_iterator<wchar_t, std::char_traits<wchar_t> >, std::istreambuf_iterator<wchar_t, std::char_traits<wchar_t> >, std::ios_base&, std::_Ios_Iostate&, tm*) const
	_ZNKSt8time_getIwSt19istreambuf_iteratorIwSt11char_traitsIwEEE11do_get_timeES3_S3_RSt8ios_baseRSt12_Ios_IostateP2tm @ 1814
;	std::time_get<wchar_t, std::istreambuf_iterator<wchar_t, std::char_traits<wchar_t> > >::do_get_year(std::istreambuf_iterator<wchar_t, std::char_traits<wchar_t> >, std::istreambuf_iterator<wchar_t, std::char_traits<wchar_t> >, std::ios_base&, std::_Ios_Iostate&, tm*) const
	_ZNKSt8time_getIwSt19istreambuf_iteratorIwSt11char_traitsIwEEE11do_get_yearES3_S3_RSt8ios_baseRSt12_Ios_IostateP2tm @ 1815
;	std::time_get<wchar_t, std::istreambuf_iterator<wchar_t, std::char_traits<wchar_t> > >::get_weekday(std::istreambuf_iterator<wchar_t, std::char_traits<wchar_t> >, std::istreambuf_iterator<wchar_t, std::char_traits<wchar_t> >, std::ios_base&, std::_Ios_Iostate&, tm*) const
	_ZNKSt8time_getIwSt19istreambuf_iteratorIwSt11char_traitsIwEEE11get_weekdayES3_S3_RSt8ios_baseRSt12_Ios_IostateP2tm @ 1816
;	std::time_get<wchar_t, std::istreambuf_iterator<wchar_t, std::char_traits<wchar_t> > >::do_date_order() const
	_ZNKSt8time_getIwSt19istreambuf_iteratorIwSt11char_traitsIwEEE13do_date_orderEv @ 1817
;	std::time_get<wchar_t, std::istreambuf_iterator<wchar_t, std::char_traits<wchar_t> > >::get_monthname(std::istreambuf_iterator<wchar_t, std::char_traits<wchar_t> >, std::istreambuf_iterator<wchar_t, std::char_traits<wchar_t> >, std::ios_base&, std::_Ios_Iostate&, tm*) const
	_ZNKSt8time_getIwSt19istreambuf_iteratorIwSt11char_traitsIwEEE13get_monthnameES3_S3_RSt8ios_baseRSt12_Ios_IostateP2tm @ 1818
;	std::time_get<wchar_t, std::istreambuf_iterator<wchar_t, std::char_traits<wchar_t> > >::_M_extract_num(std::istreambuf_iterator<wchar_t, std::char_traits<wchar_t> >, std::istreambuf_iterator<wchar_t, std::char_traits<wchar_t> >, int&, int, int, unsigned long long, std::ios_base&, std::_Ios_Iostate&) const
	_ZNKSt8time_getIwSt19istreambuf_iteratorIwSt11char_traitsIwEEE14_M_extract_numES3_S3_RiiiyRSt8ios_baseRSt12_Ios_Iostate @ 1819
;	std::time_get<wchar_t, std::istreambuf_iterator<wchar_t, std::char_traits<wchar_t> > >::do_get_weekday(std::istreambuf_iterator<wchar_t, std::char_traits<wchar_t> >, std::istreambuf_iterator<wchar_t, std::char_traits<wchar_t> >, std::ios_base&, std::_Ios_Iostate&, tm*) const
	_ZNKSt8time_getIwSt19istreambuf_iteratorIwSt11char_traitsIwEEE14do_get_weekdayES3_S3_RSt8ios_baseRSt12_Ios_IostateP2tm @ 1820
;	std::time_get<wchar_t, std::istreambuf_iterator<wchar_t, std::char_traits<wchar_t> > >::_M_extract_name(std::istreambuf_iterator<wchar_t, std::char_traits<wchar_t> >, std::istreambuf_iterator<wchar_t, std::char_traits<wchar_t> >, int&, wchar_t const**, unsigned long long, std::ios_base&, std::_Ios_Iostate&) const
	_ZNKSt8time_getIwSt19istreambuf_iteratorIwSt11char_traitsIwEEE15_M_extract_nameES3_S3_RiPPKwyRSt8ios_baseRSt12_Ios_Iostate @ 1821
;	std::time_get<wchar_t, std::istreambuf_iterator<wchar_t, std::char_traits<wchar_t> > >::do_get_monthname(std::istreambuf_iterator<wchar_t, std::char_traits<wchar_t> >, std::istreambuf_iterator<wchar_t, std::char_traits<wchar_t> >, std::ios_base&, std::_Ios_Iostate&, tm*) const
	_ZNKSt8time_getIwSt19istreambuf_iteratorIwSt11char_traitsIwEEE16do_get_monthnameES3_S3_RSt8ios_baseRSt12_Ios_IostateP2tm @ 1822
;	std::time_get<wchar_t, std::istreambuf_iterator<wchar_t, std::char_traits<wchar_t> > >::_M_extract_via_format(std::istreambuf_iterator<wchar_t, std::char_traits<wchar_t> >, std::istreambuf_iterator<wchar_t, std::char_traits<wchar_t> >, std::ios_base&, std::_Ios_Iostate&, tm*, wchar_t const*) const
	_ZNKSt8time_getIwSt19istreambuf_iteratorIwSt11char_traitsIwEEE21_M_extract_via_formatES3_S3_RSt8ios_baseRSt12_Ios_IostateP2tmPKw @ 1823
;	std::time_get<wchar_t, std::istreambuf_iterator<wchar_t, std::char_traits<wchar_t> > >::_M_extract_via_format(std::istreambuf_iterator<wchar_t, std::char_traits<wchar_t> >, std::istreambuf_iterator<wchar_t, std::char_traits<wchar_t> >, std::ios_base&, std::_Ios_Iostate&, tm*, wchar_t const*, std::__time_get_state&) const
	_ZNKSt8time_getIwSt19istreambuf_iteratorIwSt11char_traitsIwEEE21_M_extract_via_formatES3_S3_RSt8ios_baseRSt12_Ios_IostateP2tmPKwRSt16__time_get_state @ 1824
;	std::time_get<wchar_t, std::istreambuf_iterator<wchar_t, std::char_traits<wchar_t> > >::_M_extract_wday_or_month(std::istreambuf_iterator<wchar_t, std::char_traits<wchar_t> >, std::istreambuf_iterator<wchar_t, std::char_traits<wchar_t> >, int&, wchar_t const**, unsigned long long, std::ios_base&, std::_Ios_Iostate&) const
	_ZNKSt8time_getIwSt19istreambuf_iteratorIwSt11char_traitsIwEEE24_M_extract_wday_or_monthES3_S3_RiPPKwyRSt8ios_baseRSt12_Ios_Iostate @ 1825
;	std::time_get<wchar_t, std::istreambuf_iterator<wchar_t, std::char_traits<wchar_t> > >::get(std::istreambuf_iterator<wchar_t, std::char_traits<wchar_t> >, std::istreambuf_iterator<wchar_t, std::char_traits<wchar_t> >, std::ios_base&, std::_Ios_Iostate&, tm*, wchar_t const*, wchar_t const*) const
	_ZNKSt8time_getIwSt19istreambuf_iteratorIwSt11char_traitsIwEEE3getES3_S3_RSt8ios_baseRSt12_Ios_IostateP2tmPKwSC_ @ 1826
;	std::time_get<wchar_t, std::istreambuf_iterator<wchar_t, std::char_traits<wchar_t> > >::get(std::istreambuf_iterator<wchar_t, std::char_traits<wchar_t> >, std::istreambuf_iterator<wchar_t, std::char_traits<wchar_t> >, std::ios_base&, std::_Ios_Iostate&, tm*, char, char) const
	_ZNKSt8time_getIwSt19istreambuf_iteratorIwSt11char_traitsIwEEE3getES3_S3_RSt8ios_baseRSt12_Ios_IostateP2tmcc @ 1827
;	std::time_get<wchar_t, std::istreambuf_iterator<wchar_t, std::char_traits<wchar_t> > >::do_get(std::istreambuf_iterator<wchar_t, std::char_traits<wchar_t> >, std::istreambuf_iterator<wchar_t, std::char_traits<wchar_t> >, std::ios_base&, std::_Ios_Iostate&, tm*, char, char) const
	_ZNKSt8time_getIwSt19istreambuf_iteratorIwSt11char_traitsIwEEE6do_getES3_S3_RSt8ios_baseRSt12_Ios_IostateP2tmcc @ 1828
;	std::time_get<wchar_t, std::istreambuf_iterator<wchar_t, std::char_traits<wchar_t> > >::get_date(std::istreambuf_iterator<wchar_t, std::char_traits<wchar_t> >, std::istreambuf_iterator<wchar_t, std::char_traits<wchar_t> >, std::ios_base&, std::_Ios_Iostate&, tm*) const
	_ZNKSt8time_getIwSt19istreambuf_iteratorIwSt11char_traitsIwEEE8get_dateES3_S3_RSt8ios_baseRSt12_Ios_IostateP2tm @ 1829
;	std::time_get<wchar_t, std::istreambuf_iterator<wchar_t, std::char_traits<wchar_t> > >::get_time(std::istreambuf_iterator<wchar_t, std::char_traits<wchar_t> >, std::istreambuf_iterator<wchar_t, std::char_traits<wchar_t> >, std::ios_base&, std::_Ios_Iostate&, tm*) const
	_ZNKSt8time_getIwSt19istreambuf_iteratorIwSt11char_traitsIwEEE8get_timeES3_S3_RSt8ios_baseRSt12_Ios_IostateP2tm @ 1830
;	std::time_get<wchar_t, std::istreambuf_iterator<wchar_t, std::char_traits<wchar_t> > >::get_year(std::istreambuf_iterator<wchar_t, std::char_traits<wchar_t> >, std::istreambuf_iterator<wchar_t, std::char_traits<wchar_t> >, std::ios_base&, std::_Ios_Iostate&, tm*) const
	_ZNKSt8time_getIwSt19istreambuf_iteratorIwSt11char_traitsIwEEE8get_yearES3_S3_RSt8ios_baseRSt12_Ios_IostateP2tm @ 1831
;	std::time_put<char, std::ostreambuf_iterator<char, std::char_traits<char> > >::put(std::ostreambuf_iterator<char, std::char_traits<char> >, std::ios_base&, char, tm const*, char const*, char const*) const
	_ZNKSt8time_putIcSt19ostreambuf_iteratorIcSt11char_traitsIcEEE3putES3_RSt8ios_basecPK2tmPKcSB_ @ 1832
;	std::time_put<char, std::ostreambuf_iterator<char, std::char_traits<char> > >::put(std::ostreambuf_iterator<char, std::char_traits<char> >, std::ios_base&, char, tm const*, char, char) const
	_ZNKSt8time_putIcSt19ostreambuf_iteratorIcSt11char_traitsIcEEE3putES3_RSt8ios_basecPK2tmcc @ 1833
;	std::time_put<char, std::ostreambuf_iterator<char, std::char_traits<char> > >::do_put(std::ostreambuf_iterator<char, std::char_traits<char> >, std::ios_base&, char, tm const*, char, char) const
	_ZNKSt8time_putIcSt19ostreambuf_iteratorIcSt11char_traitsIcEEE6do_putES3_RSt8ios_basecPK2tmcc @ 1834
;	std::time_put<wchar_t, std::ostreambuf_iterator<wchar_t, std::char_traits<wchar_t> > >::put(std::ostreambuf_iterator<wchar_t, std::char_traits<wchar_t> >, std::ios_base&, wchar_t, tm const*, wchar_t const*, wchar_t const*) const
	_ZNKSt8time_putIwSt19ostreambuf_iteratorIwSt11char_traitsIwEEE3putES3_RSt8ios_basewPK2tmPKwSB_ @ 1835
;	std::time_put<wchar_t, std::ostreambuf_iterator<wchar_t, std::char_traits<wchar_t> > >::put(std::ostreambuf_iterator<wchar_t, std::char_traits<wchar_t> >, std::ios_base&, wchar_t, tm const*, char, char) const
	_ZNKSt8time_putIwSt19ostreambuf_iteratorIwSt11char_traitsIwEEE3putES3_RSt8ios_basewPK2tmcc @ 1836
;	std::time_put<wchar_t, std::ostreambuf_iterator<wchar_t, std::char_traits<wchar_t> > >::do_put(std::ostreambuf_iterator<wchar_t, std::char_traits<wchar_t> >, std::ios_base&, wchar_t, tm const*, char, char) const
	_ZNKSt8time_putIwSt19ostreambuf_iteratorIwSt11char_traitsIwEEE6do_putES3_RSt8ios_basewPK2tmcc @ 1837
;	std::bad_alloc::what() const
	_ZNKSt9bad_alloc4whatEv @ 1838
;	std::basic_ios<char, std::char_traits<char> >::exceptions() const
	_ZNKSt9basic_iosIcSt11char_traitsIcEE10exceptionsEv @ 1839
;	std::basic_ios<char, std::char_traits<char> >::bad() const
	_ZNKSt9basic_iosIcSt11char_traitsIcEE3badEv @ 1840
;	std::basic_ios<char, std::char_traits<char> >::eof() const
	_ZNKSt9basic_iosIcSt11char_traitsIcEE3eofEv @ 1841
;	std::basic_ios<char, std::char_traits<char> >::tie() const
	_ZNKSt9basic_iosIcSt11char_traitsIcEE3tieEv @ 1842
;	std::basic_ios<char, std::char_traits<char> >::fail() const
	_ZNKSt9basic_iosIcSt11char_traitsIcEE4failEv @ 1843
;	std::basic_ios<char, std::char_traits<char> >::fill() const
	_ZNKSt9basic_iosIcSt11char_traitsIcEE4fillEv @ 1844
;	std::basic_ios<char, std::char_traits<char> >::good() const
	_ZNKSt9basic_iosIcSt11char_traitsIcEE4goodEv @ 1845
;	std::basic_ios<char, std::char_traits<char> >::rdbuf() const
	_ZNKSt9basic_iosIcSt11char_traitsIcEE5rdbufEv @ 1846
;	std::basic_ios<char, std::char_traits<char> >::widen(char) const
	_ZNKSt9basic_iosIcSt11char_traitsIcEE5widenEc @ 1847
;	std::basic_ios<char, std::char_traits<char> >::narrow(char, char) const
	_ZNKSt9basic_iosIcSt11char_traitsIcEE6narrowEcc @ 1848
;	std::basic_ios<char, std::char_traits<char> >::rdstate() const
	_ZNKSt9basic_iosIcSt11char_traitsIcEE7rdstateEv @ 1849
;	std::basic_ios<char, std::char_traits<char> >::operator void*() const
	_ZNKSt9basic_iosIcSt11char_traitsIcEEcvPvEv @ 1850
;	std::basic_ios<char, std::char_traits<char> >::operator bool() const
	_ZNKSt9basic_iosIcSt11char_traitsIcEEcvbEv @ 1851
;	std::basic_ios<char, std::char_traits<char> >::operator!() const
	_ZNKSt9basic_iosIcSt11char_traitsIcEEntEv @ 1852
;	std::basic_ios<wchar_t, std::char_traits<wchar_t> >::exceptions() const
	_ZNKSt9basic_iosIwSt11char_traitsIwEE10exceptionsEv @ 1853
;	std::basic_ios<wchar_t, std::char_traits<wchar_t> >::bad() const
	_ZNKSt9basic_iosIwSt11char_traitsIwEE3badEv @ 1854
;	std::basic_ios<wchar_t, std::char_traits<wchar_t> >::eof() const
	_ZNKSt9basic_iosIwSt11char_traitsIwEE3eofEv @ 1855
;	std::basic_ios<wchar_t, std::char_traits<wchar_t> >::tie() const
	_ZNKSt9basic_iosIwSt11char_traitsIwEE3tieEv @ 1856
;	std::basic_ios<wchar_t, std::char_traits<wchar_t> >::fail() const
	_ZNKSt9basic_iosIwSt11char_traitsIwEE4failEv @ 1857
;	std::basic_ios<wchar_t, std::char_traits<wchar_t> >::fill() const
	_ZNKSt9basic_iosIwSt11char_traitsIwEE4fillEv @ 1858
;	std::basic_ios<wchar_t, std::char_traits<wchar_t> >::good() const
	_ZNKSt9basic_iosIwSt11char_traitsIwEE4goodEv @ 1859
;	std::basic_ios<wchar_t, std::char_traits<wchar_t> >::rdbuf() const
	_ZNKSt9basic_iosIwSt11char_traitsIwEE5rdbufEv @ 1860
;	std::basic_ios<wchar_t, std::char_traits<wchar_t> >::widen(char) const
	_ZNKSt9basic_iosIwSt11char_traitsIwEE5widenEc @ 1861
;	std::basic_ios<wchar_t, std::char_traits<wchar_t> >::narrow(wchar_t, char) const
	_ZNKSt9basic_iosIwSt11char_traitsIwEE6narrowEwc @ 1862
;	std::basic_ios<wchar_t, std::char_traits<wchar_t> >::rdstate() const
	_ZNKSt9basic_iosIwSt11char_traitsIwEE7rdstateEv @ 1863
;	std::basic_ios<wchar_t, std::char_traits<wchar_t> >::operator void*() const
	_ZNKSt9basic_iosIwSt11char_traitsIwEEcvPvEv @ 1864
;	std::basic_ios<wchar_t, std::char_traits<wchar_t> >::operator bool() const
	_ZNKSt9basic_iosIwSt11char_traitsIwEEcvbEv @ 1865
;	std::basic_ios<wchar_t, std::char_traits<wchar_t> >::operator!() const
	_ZNKSt9basic_iosIwSt11char_traitsIwEEntEv @ 1866
;	std::exception::what() const
	_ZNKSt9exception4whatEv @ 1867
;	std::istreambuf_iterator<char, std::char_traits<char> > std::money_get<char, std::istreambuf_iterator<char, std::char_traits<char> > >::_M_extract<false>(std::istreambuf_iterator<char, std::char_traits<char> >, std::istreambuf_iterator<char, std::char_traits<char> >, std::ios_base&, std::_Ios_Iostate&, std::string&) const
	_ZNKSt9money_getIcSt19istreambuf_iteratorIcSt11char_traitsIcEEE10_M_extractILb0EEES3_S3_S3_RSt8ios_baseRSt12_Ios_IostateRSs @ 1868
;	std::istreambuf_iterator<char, std::char_traits<char> > std::money_get<char, std::istreambuf_iterator<char, std::char_traits<char> > >::_M_extract<true>(std::istreambuf_iterator<char, std::char_traits<char> >, std::istreambuf_iterator<char, std::char_traits<char> >, std::ios_base&, std::_Ios_Iostate&, std::string&) const
	_ZNKSt9money_getIcSt19istreambuf_iteratorIcSt11char_traitsIcEEE10_M_extractILb1EEES3_S3_S3_RSt8ios_baseRSt12_Ios_IostateRSs @ 1869
;	std::money_get<char, std::istreambuf_iterator<char, std::char_traits<char> > >::get(std::istreambuf_iterator<char, std::char_traits<char> >, std::istreambuf_iterator<char, std::char_traits<char> >, bool, std::ios_base&, std::_Ios_Iostate&, std::string&) const
	_ZNKSt9money_getIcSt19istreambuf_iteratorIcSt11char_traitsIcEEE3getES3_S3_bRSt8ios_baseRSt12_Ios_IostateRSs @ 1870
;	std::money_get<char, std::istreambuf_iterator<char, std::char_traits<char> > >::get(std::istreambuf_iterator<char, std::char_traits<char> >, std::istreambuf_iterator<char, std::char_traits<char> >, bool, std::ios_base&, std::_Ios_Iostate&, long double&) const
	_ZNKSt9money_getIcSt19istreambuf_iteratorIcSt11char_traitsIcEEE3getES3_S3_bRSt8ios_baseRSt12_Ios_IostateRe @ 1871
;	std::money_get<char, std::istreambuf_iterator<char, std::char_traits<char> > >::do_get(std::istreambuf_iterator<char, std::char_traits<char> >, std::istreambuf_iterator<char, std::char_traits<char> >, bool, std::ios_base&, std::_Ios_Iostate&, std::string&) const
	_ZNKSt9money_getIcSt19istreambuf_iteratorIcSt11char_traitsIcEEE6do_getES3_S3_bRSt8ios_baseRSt12_Ios_IostateRSs @ 1872
;	std::money_get<char, std::istreambuf_iterator<char, std::char_traits<char> > >::do_get(std::istreambuf_iterator<char, std::char_traits<char> >, std::istreambuf_iterator<char, std::char_traits<char> >, bool, std::ios_base&, std::_Ios_Iostate&, long double&) const
	_ZNKSt9money_getIcSt19istreambuf_iteratorIcSt11char_traitsIcEEE6do_getES3_S3_bRSt8ios_baseRSt12_Ios_IostateRe @ 1873
;	std::istreambuf_iterator<wchar_t, std::char_traits<wchar_t> > std::money_get<wchar_t, std::istreambuf_iterator<wchar_t, std::char_traits<wchar_t> > >::_M_extract<false>(std::istreambuf_iterator<wchar_t, std::char_traits<wchar_t> >, std::istreambuf_iterator<wchar_t, std::char_traits<wchar_t> >, std::ios_base&, std::_Ios_Iostate&, std::string&) const
	_ZNKSt9money_getIwSt19istreambuf_iteratorIwSt11char_traitsIwEEE10_M_extractILb0EEES3_S3_S3_RSt8ios_baseRSt12_Ios_IostateRSs @ 1874
;	std::istreambuf_iterator<wchar_t, std::char_traits<wchar_t> > std::money_get<wchar_t, std::istreambuf_iterator<wchar_t, std::char_traits<wchar_t> > >::_M_extract<true>(std::istreambuf_iterator<wchar_t, std::char_traits<wchar_t> >, std::istreambuf_iterator<wchar_t, std::char_traits<wchar_t> >, std::ios_base&, std::_Ios_Iostate&, std::string&) const
	_ZNKSt9money_getIwSt19istreambuf_iteratorIwSt11char_traitsIwEEE10_M_extractILb1EEES3_S3_S3_RSt8ios_baseRSt12_Ios_IostateRSs @ 1875
;	std::money_get<wchar_t, std::istreambuf_iterator<wchar_t, std::char_traits<wchar_t> > >::get(std::istreambuf_iterator<wchar_t, std::char_traits<wchar_t> >, std::istreambuf_iterator<wchar_t, std::char_traits<wchar_t> >, bool, std::ios_base&, std::_Ios_Iostate&, std::basic_string<wchar_t, std::char_traits<wchar_t>, std::allocator<wchar_t> >&) const
	_ZNKSt9money_getIwSt19istreambuf_iteratorIwSt11char_traitsIwEEE3getES3_S3_bRSt8ios_baseRSt12_Ios_IostateRSbIwS2_SaIwEE @ 1876
;	std::money_get<wchar_t, std::istreambuf_iterator<wchar_t, std::char_traits<wchar_t> > >::get(std::istreambuf_iterator<wchar_t, std::char_traits<wchar_t> >, std::istreambuf_iterator<wchar_t, std::char_traits<wchar_t> >, bool, std::ios_base&, std::_Ios_Iostate&, long double&) const
	_ZNKSt9money_getIwSt19istreambuf_iteratorIwSt11char_traitsIwEEE3getES3_S3_bRSt8ios_baseRSt12_Ios_IostateRe @ 1877
;	std::money_get<wchar_t, std::istreambuf_iterator<wchar_t, std::char_traits<wchar_t> > >::do_get(std::istreambuf_iterator<wchar_t, std::char_traits<wchar_t> >, std::istreambuf_iterator<wchar_t, std::char_traits<wchar_t> >, bool, std::ios_base&, std::_Ios_Iostate&, std::basic_string<wchar_t, std::char_traits<wchar_t>, std::allocator<wchar_t> >&) const
	_ZNKSt9money_getIwSt19istreambuf_iteratorIwSt11char_traitsIwEEE6do_getES3_S3_bRSt8ios_baseRSt12_Ios_IostateRSbIwS2_SaIwEE @ 1878
;	std::money_get<wchar_t, std::istreambuf_iterator<wchar_t, std::char_traits<wchar_t> > >::do_get(std::istreambuf_iterator<wchar_t, std::char_traits<wchar_t> >, std::istreambuf_iterator<wchar_t, std::char_traits<wchar_t> >, bool, std::ios_base&, std::_Ios_Iostate&, long double&) const
	_ZNKSt9money_getIwSt19istreambuf_iteratorIwSt11char_traitsIwEEE6do_getES3_S3_bRSt8ios_baseRSt12_Ios_IostateRe @ 1879
;	std::money_put<char, std::ostreambuf_iterator<char, std::char_traits<char> > >::put(std::ostreambuf_iterator<char, std::char_traits<char> >, bool, std::ios_base&, char, std::string const&) const
	_ZNKSt9money_putIcSt19ostreambuf_iteratorIcSt11char_traitsIcEEE3putES3_bRSt8ios_basecRKSs @ 1880
;	std::money_put<char, std::ostreambuf_iterator<char, std::char_traits<char> > >::put(std::ostreambuf_iterator<char, std::char_traits<char> >, bool, std::ios_base&, char, long double) const
	_ZNKSt9money_putIcSt19ostreambuf_iteratorIcSt11char_traitsIcEEE3putES3_bRSt8ios_basece @ 1881
;	std::money_put<char, std::ostreambuf_iterator<char, std::char_traits<char> > >::do_put(std::ostreambuf_iterator<char, std::char_traits<char> >, bool, std::ios_base&, char, std::string const&) const
	_ZNKSt9money_putIcSt19ostreambuf_iteratorIcSt11char_traitsIcEEE6do_putES3_bRSt8ios_basecRKSs @ 1882
;	std::money_put<char, std::ostreambuf_iterator<char, std::char_traits<char> > >::do_put(std::ostreambuf_iterator<char, std::char_traits<char> >, bool, std::ios_base&, char, long double) const
	_ZNKSt9money_putIcSt19ostreambuf_iteratorIcSt11char_traitsIcEEE6do_putES3_bRSt8ios_basece @ 1883
;	std::ostreambuf_iterator<char, std::char_traits<char> > std::money_put<char, std::ostreambuf_iterator<char, std::char_traits<char> > >::_M_insert<false>(std::ostreambuf_iterator<char, std::char_traits<char> >, std::ios_base&, char, std::string const&) const
	_ZNKSt9money_putIcSt19ostreambuf_iteratorIcSt11char_traitsIcEEE9_M_insertILb0EEES3_S3_RSt8ios_basecRKSs @ 1884
;	std::ostreambuf_iterator<char, std::char_traits<char> > std::money_put<char, std::ostreambuf_iterator<char, std::char_traits<char> > >::_M_insert<true>(std::ostreambuf_iterator<char, std::char_traits<char> >, std::ios_base&, char, std::string const&) const
	_ZNKSt9money_putIcSt19ostreambuf_iteratorIcSt11char_traitsIcEEE9_M_insertILb1EEES3_S3_RSt8ios_basecRKSs @ 1885
;	std::money_put<wchar_t, std::ostreambuf_iterator<wchar_t, std::char_traits<wchar_t> > >::put(std::ostreambuf_iterator<wchar_t, std::char_traits<wchar_t> >, bool, std::ios_base&, wchar_t, std::basic_string<wchar_t, std::char_traits<wchar_t>, std::allocator<wchar_t> > const&) const
	_ZNKSt9money_putIwSt19ostreambuf_iteratorIwSt11char_traitsIwEEE3putES3_bRSt8ios_basewRKSbIwS2_SaIwEE @ 1886
;	std::money_put<wchar_t, std::ostreambuf_iterator<wchar_t, std::char_traits<wchar_t> > >::put(std::ostreambuf_iterator<wchar_t, std::char_traits<wchar_t> >, bool, std::ios_base&, wchar_t, long double) const
	_ZNKSt9money_putIwSt19ostreambuf_iteratorIwSt11char_traitsIwEEE3putES3_bRSt8ios_basewe @ 1887
;	std::money_put<wchar_t, std::ostreambuf_iterator<wchar_t, std::char_traits<wchar_t> > >::do_put(std::ostreambuf_iterator<wchar_t, std::char_traits<wchar_t> >, bool, std::ios_base&, wchar_t, std::basic_string<wchar_t, std::char_traits<wchar_t>, std::allocator<wchar_t> > const&) const
	_ZNKSt9money_putIwSt19ostreambuf_iteratorIwSt11char_traitsIwEEE6do_putES3_bRSt8ios_basewRKSbIwS2_SaIwEE @ 1888
;	std::money_put<wchar_t, std::ostreambuf_iterator<wchar_t, std::char_traits<wchar_t> > >::do_put(std::ostreambuf_iterator<wchar_t, std::char_traits<wchar_t> >, bool, std::ios_base&, wchar_t, long double) const
	_ZNKSt9money_putIwSt19ostreambuf_iteratorIwSt11char_traitsIwEEE6do_putES3_bRSt8ios_basewe @ 1889
;	std::ostreambuf_iterator<wchar_t, std::char_traits<wchar_t> > std::money_put<wchar_t, std::ostreambuf_iterator<wchar_t, std::char_traits<wchar_t> > >::_M_insert<false>(std::ostreambuf_iterator<wchar_t, std::char_traits<wchar_t> >, std::ios_base&, wchar_t, std::basic_string<wchar_t, std::char_traits<wchar_t>, std::allocator<wchar_t> > const&) const
	_ZNKSt9money_putIwSt19ostreambuf_iteratorIwSt11char_traitsIwEEE9_M_insertILb0EEES3_S3_RSt8ios_basewRKSbIwS2_SaIwEE @ 1890
;	std::ostreambuf_iterator<wchar_t, std::char_traits<wchar_t> > std::money_put<wchar_t, std::ostreambuf_iterator<wchar_t, std::char_traits<wchar_t> > >::_M_insert<true>(std::ostreambuf_iterator<wchar_t, std::char_traits<wchar_t> >, std::ios_base&, wchar_t, std::basic_string<wchar_t, std::char_traits<wchar_t>, std::allocator<wchar_t> > const&) const
	_ZNKSt9money_putIwSt19ostreambuf_iteratorIwSt11char_traitsIwEEE9_M_insertILb1EEES3_S3_RSt8ios_basewRKSbIwS2_SaIwEE @ 1891
;	std::type_info::__do_catch(std::type_info const*, void**, unsigned int) const
	_ZNKSt9type_info10__do_catchEPKS_PPvj @ 1892
;	std::type_info::__do_upcast(__cxxabiv1::__class_type_info const*, void**) const
	_ZNKSt9type_info11__do_upcastEPKN10__cxxabiv117__class_type_infoEPPv @ 1893
;	std::type_info::__is_pointer_p() const
	_ZNKSt9type_info14__is_pointer_pEv @ 1894
;	std::type_info::__is_function_p() const
	_ZNKSt9type_info15__is_function_pEv @ 1895
;	std::type_info::__equal(std::type_info const&) const
	_ZNKSt9type_info7__equalERKS_ @ 1896
;	std::type_info::operator==(std::type_info const&) const
	_ZNKSt9type_infoeqERKS_ @ 1897
;	std::basic_string<wchar_t, std::char_traits<wchar_t>, std::allocator<wchar_t> >::_S_compare(unsigned long long, unsigned long long)
	_ZNSbIwSt11char_traitsIwESaIwEE10_S_compareEyy @ 1898
;	std::basic_string<wchar_t, std::char_traits<wchar_t>, std::allocator<wchar_t> >::_Alloc_hider::_Alloc_hider(wchar_t*, std::allocator<wchar_t> const&)
	_ZNSbIwSt11char_traitsIwESaIwEE12_Alloc_hiderC1EPwRKS1_ @ 1899
;	std::basic_string<wchar_t, std::char_traits<wchar_t>, std::allocator<wchar_t> >::_Alloc_hider::_Alloc_hider(wchar_t*, std::allocator<wchar_t> const&)
	_ZNSbIwSt11char_traitsIwESaIwEE12_Alloc_hiderC2EPwRKS1_ @ 1900
;	std::basic_string<wchar_t, std::char_traits<wchar_t>, std::allocator<wchar_t> >::_M_leak_hard()
	_ZNSbIwSt11char_traitsIwESaIwEE12_M_leak_hardEv @ 1901
;	std::basic_string<wchar_t, std::char_traits<wchar_t>, std::allocator<wchar_t> >::_S_construct(unsigned long long, wchar_t, std::allocator<wchar_t> const&)
	_ZNSbIwSt11char_traitsIwESaIwEE12_S_constructEywRKS1_ @ 1902
;	wchar_t* std::basic_string<wchar_t, std::char_traits<wchar_t>, std::allocator<wchar_t> >::_S_construct<__gnu_cxx::__normal_iterator<wchar_t*, std::basic_string<wchar_t, std::char_traits<wchar_t>, std::allocator<wchar_t> > > >(__gnu_cxx::__normal_iterator<wchar_t*, std::basic_string<wchar_t, std::char_traits<wchar_t>, std::allocator<wchar_t> > >, __gnu_cxx::__normal_iterator<wchar_t*, std::basic_string<wchar_t, std::char_traits<wchar_t>, std::allocator<wchar_t> > >, std::allocator<wchar_t> const&, std::forward_iterator_tag)
	_ZNSbIwSt11char_traitsIwESaIwEE12_S_constructIN9__gnu_cxx17__normal_iteratorIPwS2_EEEES6_T_S8_RKS1_St20forward_iterator_tag @ 1903
;	wchar_t* std::basic_string<wchar_t, std::char_traits<wchar_t>, std::allocator<wchar_t> >::_S_construct<wchar_t const*>(wchar_t const*, wchar_t const*, std::allocator<wchar_t> const&, std::forward_iterator_tag)
	_ZNSbIwSt11char_traitsIwESaIwEE12_S_constructIPKwEEPwT_S7_RKS1_St20forward_iterator_tag @ 1904
;	wchar_t* std::basic_string<wchar_t, std::char_traits<wchar_t>, std::allocator<wchar_t> >::_S_construct<wchar_t*>(wchar_t*, wchar_t*, std::allocator<wchar_t> const&, std::forward_iterator_tag)
	_ZNSbIwSt11char_traitsIwESaIwEE12_S_constructIPwEES4_T_S5_RKS1_St20forward_iterator_tag @ 1905
;	std::basic_string<wchar_t, std::char_traits<wchar_t>, std::allocator<wchar_t> >::_S_empty_rep()
	_ZNSbIwSt11char_traitsIwESaIwEE12_S_empty_repEv @ 1906
;	std::basic_string<wchar_t, std::char_traits<wchar_t>, std::allocator<wchar_t> >::_S_copy_chars(wchar_t*, __gnu_cxx::__normal_iterator<wchar_t const*, std::basic_string<wchar_t, std::char_traits<wchar_t>, std::allocator<wchar_t> > >, __gnu_cxx::__normal_iterator<wchar_t const*, std::basic_string<wchar_t, std::char_traits<wchar_t>, std::allocator<wchar_t> > >)
	_ZNSbIwSt11char_traitsIwESaIwEE13_S_copy_charsEPwN9__gnu_cxx17__normal_iteratorIPKwS2_EES8_ @ 1907
;	std::basic_string<wchar_t, std::char_traits<wchar_t>, std::allocator<wchar_t> >::_S_copy_chars(wchar_t*, __gnu_cxx::__normal_iterator<wchar_t*, std::basic_string<wchar_t, std::char_traits<wchar_t>, std::allocator<wchar_t> > >, __gnu_cxx::__normal_iterator<wchar_t*, std::basic_string<wchar_t, std::char_traits<wchar_t>, std::allocator<wchar_t> > >)
	_ZNSbIwSt11char_traitsIwESaIwEE13_S_copy_charsEPwN9__gnu_cxx17__normal_iteratorIS3_S2_EES6_ @ 1908
;	std::basic_string<wchar_t, std::char_traits<wchar_t>, std::allocator<wchar_t> >::_S_copy_chars(wchar_t*, wchar_t const*, wchar_t const*)
	_ZNSbIwSt11char_traitsIwESaIwEE13_S_copy_charsEPwPKwS5_ @ 1909
;	std::basic_string<wchar_t, std::char_traits<wchar_t>, std::allocator<wchar_t> >::_S_copy_chars(wchar_t*, wchar_t*, wchar_t*)
	_ZNSbIwSt11char_traitsIwESaIwEE13_S_copy_charsEPwS3_S3_ @ 1910
;	std::basic_string<wchar_t, std::char_traits<wchar_t>, std::allocator<wchar_t> >::shrink_to_fit()
	_ZNSbIwSt11char_traitsIwESaIwEE13shrink_to_fitEv @ 1911
;	std::basic_string<wchar_t, std::char_traits<wchar_t>, std::allocator<wchar_t> >::_M_replace_aux(unsigned long long, unsigned long long, unsigned long long, wchar_t)
	_ZNSbIwSt11char_traitsIwESaIwEE14_M_replace_auxEyyyw @ 1912
;	std::basic_string<wchar_t, std::char_traits<wchar_t>, std::allocator<wchar_t> >::_M_replace_safe(unsigned long long, unsigned long long, wchar_t const*, unsigned long long)
	_ZNSbIwSt11char_traitsIwESaIwEE15_M_replace_safeEyyPKwy @ 1913
;	std::basic_string<wchar_t, std::char_traits<wchar_t>, std::allocator<wchar_t> >::_S_construct_aux_2(unsigned long long, wchar_t, std::allocator<wchar_t> const&)
	_ZNSbIwSt11char_traitsIwESaIwEE18_S_construct_aux_2EywRKS1_ @ 1914
;	std::basic_string<wchar_t, std::char_traits<wchar_t>, std::allocator<wchar_t> >::at(unsigned long long)
	_ZNSbIwSt11char_traitsIwESaIwEE2atEy @ 1915
;	std::basic_string<wchar_t, std::char_traits<wchar_t>, std::allocator<wchar_t> >::end()
	_ZNSbIwSt11char_traitsIwESaIwEE3endEv @ 1916
;	std::basic_string<wchar_t, std::char_traits<wchar_t>, std::allocator<wchar_t> >::_Rep::_M_destroy(std::allocator<wchar_t> const&)
	_ZNSbIwSt11char_traitsIwESaIwEE4_Rep10_M_destroyERKS1_ @ 1917
;	std::basic_string<wchar_t, std::char_traits<wchar_t>, std::allocator<wchar_t> >::_Rep::_M_dispose(std::allocator<wchar_t> const&)
	_ZNSbIwSt11char_traitsIwESaIwEE4_Rep10_M_disposeERKS1_ @ 1918
;	std::basic_string<wchar_t, std::char_traits<wchar_t>, std::allocator<wchar_t> >::_Rep::_M_refcopy()
	_ZNSbIwSt11char_traitsIwESaIwEE4_Rep10_M_refcopyEv @ 1919
;	std::basic_string<wchar_t, std::char_traits<wchar_t>, std::allocator<wchar_t> >::_Rep::_M_refdata()
	_ZNSbIwSt11char_traitsIwESaIwEE4_Rep10_M_refdataEv @ 1920
;	std::basic_string<wchar_t, std::char_traits<wchar_t>, std::allocator<wchar_t> >::_Rep::_S_max_size
	_ZNSbIwSt11char_traitsIwESaIwEE4_Rep11_S_max_sizeE @ 1921 DATA
;	std::basic_string<wchar_t, std::char_traits<wchar_t>, std::allocator<wchar_t> >::_Rep::_S_terminal
	_ZNSbIwSt11char_traitsIwESaIwEE4_Rep11_S_terminalE @ 1922 DATA
;	std::basic_string<wchar_t, std::char_traits<wchar_t>, std::allocator<wchar_t> >::_Rep::_S_empty_rep()
	_ZNSbIwSt11char_traitsIwESaIwEE4_Rep12_S_empty_repEv @ 1923
;	std::basic_string<wchar_t, std::char_traits<wchar_t>, std::allocator<wchar_t> >::_Rep::_M_set_leaked()
	_ZNSbIwSt11char_traitsIwESaIwEE4_Rep13_M_set_leakedEv @ 1924
;	std::basic_string<wchar_t, std::char_traits<wchar_t>, std::allocator<wchar_t> >::_Rep::_M_set_sharable()
	_ZNSbIwSt11char_traitsIwESaIwEE4_Rep15_M_set_sharableEv @ 1925
;	std::basic_string<wchar_t, std::char_traits<wchar_t>, std::allocator<wchar_t> >::_Rep::_S_empty_rep_storage
	_ZNSbIwSt11char_traitsIwESaIwEE4_Rep20_S_empty_rep_storageE @ 1926 DATA
;	std::basic_string<wchar_t, std::char_traits<wchar_t>, std::allocator<wchar_t> >::_Rep::_M_set_length_and_sharable(unsigned long long)
	_ZNSbIwSt11char_traitsIwESaIwEE4_Rep26_M_set_length_and_sharableEy @ 1927
;	std::basic_string<wchar_t, std::char_traits<wchar_t>, std::allocator<wchar_t> >::_Rep::_M_grab(std::allocator<wchar_t> const&, std::allocator<wchar_t> const&)
	_ZNSbIwSt11char_traitsIwESaIwEE4_Rep7_M_grabERKS1_S5_ @ 1928
;	std::basic_string<wchar_t, std::char_traits<wchar_t>, std::allocator<wchar_t> >::_Rep::_M_clone(std::allocator<wchar_t> const&, unsigned long long)
	_ZNSbIwSt11char_traitsIwESaIwEE4_Rep8_M_cloneERKS1_y @ 1929
;	std::basic_string<wchar_t, std::char_traits<wchar_t>, std::allocator<wchar_t> >::_Rep::_S_create(unsigned long long, unsigned long long, std::allocator<wchar_t> const&)
	_ZNSbIwSt11char_traitsIwESaIwEE4_Rep9_S_createEyyRKS1_ @ 1930
;	std::basic_string<wchar_t, std::char_traits<wchar_t>, std::allocator<wchar_t> >::back()
	_ZNSbIwSt11char_traitsIwESaIwEE4backEv @ 1931
;	std::basic_string<wchar_t, std::char_traits<wchar_t>, std::allocator<wchar_t> >::npos
	_ZNSbIwSt11char_traitsIwESaIwEE4nposE @ 1932 DATA
;	std::basic_string<wchar_t, std::char_traits<wchar_t>, std::allocator<wchar_t> >::rend()
	_ZNSbIwSt11char_traitsIwESaIwEE4rendEv @ 1933
;	std::basic_string<wchar_t, std::char_traits<wchar_t>, std::allocator<wchar_t> >::swap(std::basic_string<wchar_t, std::char_traits<wchar_t>, std::allocator<wchar_t> >&)
	_ZNSbIwSt11char_traitsIwESaIwEE4swapERS2_ @ 1934
;	std::basic_string<wchar_t, std::char_traits<wchar_t>, std::allocator<wchar_t> >::begin()
	_ZNSbIwSt11char_traitsIwESaIwEE5beginEv @ 1935
;	std::basic_string<wchar_t, std::char_traits<wchar_t>, std::allocator<wchar_t> >::clear()
	_ZNSbIwSt11char_traitsIwESaIwEE5clearEv @ 1936
;	std::basic_string<wchar_t, std::char_traits<wchar_t>, std::allocator<wchar_t> >::erase(__gnu_cxx::__normal_iterator<wchar_t*, std::basic_string<wchar_t, std::char_traits<wchar_t>, std::allocator<wchar_t> > >)
	_ZNSbIwSt11char_traitsIwESaIwEE5eraseEN9__gnu_cxx17__normal_iteratorIPwS2_EE @ 1937
;	std::basic_string<wchar_t, std::char_traits<wchar_t>, std::allocator<wchar_t> >::erase(__gnu_cxx::__normal_iterator<wchar_t*, std::basic_string<wchar_t, std::char_traits<wchar_t>, std::allocator<wchar_t> > >, __gnu_cxx::__normal_iterator<wchar_t*, std::basic_string<wchar_t, std::char_traits<wchar_t>, std::allocator<wchar_t> > >)
	_ZNSbIwSt11char_traitsIwESaIwEE5eraseEN9__gnu_cxx17__normal_iteratorIPwS2_EES6_ @ 1938
;	std::basic_string<wchar_t, std::char_traits<wchar_t>, std::allocator<wchar_t> >::erase(unsigned long long, unsigned long long)
	_ZNSbIwSt11char_traitsIwESaIwEE5eraseEyy @ 1939
;	std::basic_string<wchar_t, std::char_traits<wchar_t>, std::allocator<wchar_t> >::front()
	_ZNSbIwSt11char_traitsIwESaIwEE5frontEv @ 1940
;	std::basic_string<wchar_t, std::char_traits<wchar_t>, std::allocator<wchar_t> >::append(wchar_t const*)
	_ZNSbIwSt11char_traitsIwESaIwEE6appendEPKw @ 1941
;	std::basic_string<wchar_t, std::char_traits<wchar_t>, std::allocator<wchar_t> >::append(wchar_t const*, unsigned long long)
	_ZNSbIwSt11char_traitsIwESaIwEE6appendEPKwy @ 1942
;	std::basic_string<wchar_t, std::char_traits<wchar_t>, std::allocator<wchar_t> >::append(std::basic_string<wchar_t, std::char_traits<wchar_t>, std::allocator<wchar_t> > const&)
	_ZNSbIwSt11char_traitsIwESaIwEE6appendERKS2_ @ 1943
;	std::basic_string<wchar_t, std::char_traits<wchar_t>, std::allocator<wchar_t> >::append(std::basic_string<wchar_t, std::char_traits<wchar_t>, std::allocator<wchar_t> > const&, unsigned long long, unsigned long long)
	_ZNSbIwSt11char_traitsIwESaIwEE6appendERKS2_yy @ 1944
;	std::basic_string<wchar_t, std::char_traits<wchar_t>, std::allocator<wchar_t> >::append(std::initializer_list<wchar_t>)
	_ZNSbIwSt11char_traitsIwESaIwEE6appendESt16initializer_listIwE @ 1945
;	std::basic_string<wchar_t, std::char_traits<wchar_t>, std::allocator<wchar_t> >::append(unsigned long long, wchar_t)
	_ZNSbIwSt11char_traitsIwESaIwEE6appendEyw @ 1946
;	std::basic_string<wchar_t, std::char_traits<wchar_t>, std::allocator<wchar_t> >::assign(std::basic_string<wchar_t, std::char_traits<wchar_t>, std::allocator<wchar_t> >&&)
	_ZNSbIwSt11char_traitsIwESaIwEE6assignEOS2_ @ 1947
;	std::basic_string<wchar_t, std::char_traits<wchar_t>, std::allocator<wchar_t> >::assign(wchar_t const*)
	_ZNSbIwSt11char_traitsIwESaIwEE6assignEPKw @ 1948
;	std::basic_string<wchar_t, std::char_traits<wchar_t>, std::allocator<wchar_t> >::assign(wchar_t const*, unsigned long long)
	_ZNSbIwSt11char_traitsIwESaIwEE6assignEPKwy @ 1949
;	std::basic_string<wchar_t, std::char_traits<wchar_t>, std::allocator<wchar_t> >::assign(std::basic_string<wchar_t, std::char_traits<wchar_t>, std::allocator<wchar_t> > const&)
	_ZNSbIwSt11char_traitsIwESaIwEE6assignERKS2_ @ 1950
;	std::basic_string<wchar_t, std::char_traits<wchar_t>, std::allocator<wchar_t> >::assign(std::basic_string<wchar_t, std::char_traits<wchar_t>, std::allocator<wchar_t> > const&, unsigned long long, unsigned long long)
	_ZNSbIwSt11char_traitsIwESaIwEE6assignERKS2_yy @ 1951
;	std::basic_string<wchar_t, std::char_traits<wchar_t>, std::allocator<wchar_t> >::assign(std::initializer_list<wchar_t>)
	_ZNSbIwSt11char_traitsIwESaIwEE6assignESt16initializer_listIwE @ 1952
;	std::basic_string<wchar_t, std::char_traits<wchar_t>, std::allocator<wchar_t> >::assign(unsigned long long, wchar_t)
	_ZNSbIwSt11char_traitsIwESaIwEE6assignEyw @ 1953
;	std::basic_string<wchar_t, std::char_traits<wchar_t>, std::allocator<wchar_t> >::insert(__gnu_cxx::__normal_iterator<wchar_t*, std::basic_string<wchar_t, std::char_traits<wchar_t>, std::allocator<wchar_t> > >, std::initializer_list<wchar_t>)
	_ZNSbIwSt11char_traitsIwESaIwEE6insertEN9__gnu_cxx17__normal_iteratorIPwS2_EESt16initializer_listIwE @ 1954
;	std::basic_string<wchar_t, std::char_traits<wchar_t>, std::allocator<wchar_t> >::insert(__gnu_cxx::__normal_iterator<wchar_t*, std::basic_string<wchar_t, std::char_traits<wchar_t>, std::allocator<wchar_t> > >, wchar_t)
	_ZNSbIwSt11char_traitsIwESaIwEE6insertEN9__gnu_cxx17__normal_iteratorIPwS2_EEw @ 1955
;	std::basic_string<wchar_t, std::char_traits<wchar_t>, std::allocator<wchar_t> >::insert(__gnu_cxx::__normal_iterator<wchar_t*, std::basic_string<wchar_t, std::char_traits<wchar_t>, std::allocator<wchar_t> > >, unsigned long long, wchar_t)
	_ZNSbIwSt11char_traitsIwESaIwEE6insertEN9__gnu_cxx17__normal_iteratorIPwS2_EEyw @ 1956
;	std::basic_string<wchar_t, std::char_traits<wchar_t>, std::allocator<wchar_t> >::insert(unsigned long long, wchar_t const*)
	_ZNSbIwSt11char_traitsIwESaIwEE6insertEyPKw @ 1957
;	std::basic_string<wchar_t, std::char_traits<wchar_t>, std::allocator<wchar_t> >::insert(unsigned long long, wchar_t const*, unsigned long long)
	_ZNSbIwSt11char_traitsIwESaIwEE6insertEyPKwy @ 1958
;	std::basic_string<wchar_t, std::char_traits<wchar_t>, std::allocator<wchar_t> >::insert(unsigned long long, std::basic_string<wchar_t, std::char_traits<wchar_t>, std::allocator<wchar_t> > const&)
	_ZNSbIwSt11char_traitsIwESaIwEE6insertEyRKS2_ @ 1959
;	std::basic_string<wchar_t, std::char_traits<wchar_t>, std::allocator<wchar_t> >::insert(unsigned long long, std::basic_string<wchar_t, std::char_traits<wchar_t>, std::allocator<wchar_t> > const&, unsigned long long, unsigned long long)
	_ZNSbIwSt11char_traitsIwESaIwEE6insertEyRKS2_yy @ 1960
;	std::basic_string<wchar_t, std::char_traits<wchar_t>, std::allocator<wchar_t> >::insert(unsigned long long, unsigned long long, wchar_t)
	_ZNSbIwSt11char_traitsIwESaIwEE6insertEyyw @ 1961
;	std::basic_string<wchar_t, std::char_traits<wchar_t>, std::allocator<wchar_t> >::rbegin()
	_ZNSbIwSt11char_traitsIwESaIwEE6rbeginEv @ 1962
;	std::basic_string<wchar_t, std::char_traits<wchar_t>, std::allocator<wchar_t> >::resize(unsigned long long)
	_ZNSbIwSt11char_traitsIwESaIwEE6resizeEy @ 1963
;	std::basic_string<wchar_t, std::char_traits<wchar_t>, std::allocator<wchar_t> >::resize(unsigned long long, wchar_t)
	_ZNSbIwSt11char_traitsIwESaIwEE6resizeEyw @ 1964
;	std::basic_string<wchar_t, std::char_traits<wchar_t>, std::allocator<wchar_t> >::_M_copy(wchar_t*, wchar_t const*, unsigned long long)
	_ZNSbIwSt11char_traitsIwESaIwEE7_M_copyEPwPKwy @ 1965
;	std::basic_string<wchar_t, std::char_traits<wchar_t>, std::allocator<wchar_t> >::_M_data(wchar_t*)
	_ZNSbIwSt11char_traitsIwESaIwEE7_M_dataEPw @ 1966
;	std::basic_string<wchar_t, std::char_traits<wchar_t>, std::allocator<wchar_t> >::_M_leak()
	_ZNSbIwSt11char_traitsIwESaIwEE7_M_leakEv @ 1967
;	std::basic_string<wchar_t, std::char_traits<wchar_t>, std::allocator<wchar_t> >::_M_move(wchar_t*, wchar_t const*, unsigned long long)
	_ZNSbIwSt11char_traitsIwESaIwEE7_M_moveEPwPKwy @ 1968
;	std::basic_string<wchar_t, std::char_traits<wchar_t>, std::allocator<wchar_t> >::replace(__gnu_cxx::__normal_iterator<wchar_t*, std::basic_string<wchar_t, std::char_traits<wchar_t>, std::allocator<wchar_t> > >, __gnu_cxx::__normal_iterator<wchar_t*, std::basic_string<wchar_t, std::char_traits<wchar_t>, std::allocator<wchar_t> > >, __gnu_cxx::__normal_iterator<wchar_t const*, std::basic_string<wchar_t, std::char_traits<wchar_t>, std::allocator<wchar_t> > >, __gnu_cxx::__normal_iterator<wchar_t const*, std::basic_string<wchar_t, std::char_traits<wchar_t>, std::allocator<wchar_t> > >)
	_ZNSbIwSt11char_traitsIwESaIwEE7replaceEN9__gnu_cxx17__normal_iteratorIPwS2_EES6_NS4_IPKwS2_EES9_ @ 1969
;	std::basic_string<wchar_t, std::char_traits<wchar_t>, std::allocator<wchar_t> >::replace(__gnu_cxx::__normal_iterator<wchar_t*, std::basic_string<wchar_t, std::char_traits<wchar_t>, std::allocator<wchar_t> > >, __gnu_cxx::__normal_iterator<wchar_t*, std::basic_string<wchar_t, std::char_traits<wchar_t>, std::allocator<wchar_t> > >, wchar_t const*)
	_ZNSbIwSt11char_traitsIwESaIwEE7replaceEN9__gnu_cxx17__normal_iteratorIPwS2_EES6_PKw @ 1970
;	std::basic_string<wchar_t, std::char_traits<wchar_t>, std::allocator<wchar_t> >::replace(__gnu_cxx::__normal_iterator<wchar_t*, std::basic_string<wchar_t, std::char_traits<wchar_t>, std::allocator<wchar_t> > >, __gnu_cxx::__normal_iterator<wchar_t*, std::basic_string<wchar_t, std::char_traits<wchar_t>, std::allocator<wchar_t> > >, wchar_t const*, wchar_t const*)
	_ZNSbIwSt11char_traitsIwESaIwEE7replaceEN9__gnu_cxx17__normal_iteratorIPwS2_EES6_PKwS8_ @ 1971
;	std::basic_string<wchar_t, std::char_traits<wchar_t>, std::allocator<wchar_t> >::replace(__gnu_cxx::__normal_iterator<wchar_t*, std::basic_string<wchar_t, std::char_traits<wchar_t>, std::allocator<wchar_t> > >, __gnu_cxx::__normal_iterator<wchar_t*, std::basic_string<wchar_t, std::char_traits<wchar_t>, std::allocator<wchar_t> > >, wchar_t const*, unsigned long long)
	_ZNSbIwSt11char_traitsIwESaIwEE7replaceEN9__gnu_cxx17__normal_iteratorIPwS2_EES6_PKwy @ 1972
;	std::basic_string<wchar_t, std::char_traits<wchar_t>, std::allocator<wchar_t> >::replace(__gnu_cxx::__normal_iterator<wchar_t*, std::basic_string<wchar_t, std::char_traits<wchar_t>, std::allocator<wchar_t> > >, __gnu_cxx::__normal_iterator<wchar_t*, std::basic_string<wchar_t, std::char_traits<wchar_t>, std::allocator<wchar_t> > >, std::basic_string<wchar_t, std::char_traits<wchar_t>, std::allocator<wchar_t> > const&)
	_ZNSbIwSt11char_traitsIwESaIwEE7replaceEN9__gnu_cxx17__normal_iteratorIPwS2_EES6_RKS2_ @ 1973
;	std::basic_string<wchar_t, std::char_traits<wchar_t>, std::allocator<wchar_t> >::replace(__gnu_cxx::__normal_iterator<wchar_t*, std::basic_string<wchar_t, std::char_traits<wchar_t>, std::allocator<wchar_t> > >, __gnu_cxx::__normal_iterator<wchar_t*, std::basic_string<wchar_t, std::char_traits<wchar_t>, std::allocator<wchar_t> > >, wchar_t*, wchar_t*)
	_ZNSbIwSt11char_traitsIwESaIwEE7replaceEN9__gnu_cxx17__normal_iteratorIPwS2_EES6_S5_S5_ @ 1974
;	std::basic_string<wchar_t, std::char_traits<wchar_t>, std::allocator<wchar_t> >::replace(__gnu_cxx::__normal_iterator<wchar_t*, std::basic_string<wchar_t, std::char_traits<wchar_t>, std::allocator<wchar_t> > >, __gnu_cxx::__normal_iterator<wchar_t*, std::basic_string<wchar_t, std::char_traits<wchar_t>, std::allocator<wchar_t> > >, __gnu_cxx::__normal_iterator<wchar_t*, std::basic_string<wchar_t, std::char_traits<wchar_t>, std::allocator<wchar_t> > >, __gnu_cxx::__normal_iterator<wchar_t*, std::basic_string<wchar_t, std::char_traits<wchar_t>, std::allocator<wchar_t> > >)
	_ZNSbIwSt11char_traitsIwESaIwEE7replaceEN9__gnu_cxx17__normal_iteratorIPwS2_EES6_S6_S6_ @ 1975
;	std::basic_string<wchar_t, std::char_traits<wchar_t>, std::allocator<wchar_t> >::replace(__gnu_cxx::__normal_iterator<wchar_t*, std::basic_string<wchar_t, std::char_traits<wchar_t>, std::allocator<wchar_t> > >, __gnu_cxx::__normal_iterator<wchar_t*, std::basic_string<wchar_t, std::char_traits<wchar_t>, std::allocator<wchar_t> > >, std::initializer_list<wchar_t>)
	_ZNSbIwSt11char_traitsIwESaIwEE7replaceEN9__gnu_cxx17__normal_iteratorIPwS2_EES6_St16initializer_listIwE @ 1976
;	std::basic_string<wchar_t, std::char_traits<wchar_t>, std::allocator<wchar_t> >::replace(__gnu_cxx::__normal_iterator<wchar_t*, std::basic_string<wchar_t, std::char_traits<wchar_t>, std::allocator<wchar_t> > >, __gnu_cxx::__normal_iterator<wchar_t*, std::basic_string<wchar_t, std::char_traits<wchar_t>, std::allocator<wchar_t> > >, unsigned long long, wchar_t)
	_ZNSbIwSt11char_traitsIwESaIwEE7replaceEN9__gnu_cxx17__normal_iteratorIPwS2_EES6_yw @ 1977
;	std::basic_string<wchar_t, std::char_traits<wchar_t>, std::allocator<wchar_t> >::replace(unsigned long long, unsigned long long, wchar_t const*)
	_ZNSbIwSt11char_traitsIwESaIwEE7replaceEyyPKw @ 1978
;	std::basic_string<wchar_t, std::char_traits<wchar_t>, std::allocator<wchar_t> >::replace(unsigned long long, unsigned long long, wchar_t const*, unsigned long long)
	_ZNSbIwSt11char_traitsIwESaIwEE7replaceEyyPKwy @ 1979
;	std::basic_string<wchar_t, std::char_traits<wchar_t>, std::allocator<wchar_t> >::replace(unsigned long long, unsigned long long, std::basic_string<wchar_t, std::char_traits<wchar_t>, std::allocator<wchar_t> > const&)
	_ZNSbIwSt11char_traitsIwESaIwEE7replaceEyyRKS2_ @ 1980
;	std::basic_string<wchar_t, std::char_traits<wchar_t>, std::allocator<wchar_t> >::replace(unsigned long long, unsigned long long, std::basic_string<wchar_t, std::char_traits<wchar_t>, std::allocator<wchar_t> > const&, unsigned long long, unsigned long long)
	_ZNSbIwSt11char_traitsIwESaIwEE7replaceEyyRKS2_yy @ 1981
;	std::basic_string<wchar_t, std::char_traits<wchar_t>, std::allocator<wchar_t> >::replace(unsigned long long, unsigned long long, unsigned long long, wchar_t)
	_ZNSbIwSt11char_traitsIwESaIwEE7replaceEyyyw @ 1982
;	std::basic_string<wchar_t, std::char_traits<wchar_t>, std::allocator<wchar_t> >::reserve()
	_ZNSbIwSt11char_traitsIwESaIwEE7reserveEv @ 1983
;	std::basic_string<wchar_t, std::char_traits<wchar_t>, std::allocator<wchar_t> >::reserve(unsigned long long)
	_ZNSbIwSt11char_traitsIwESaIwEE7reserveEy @ 1984
;	std::basic_string<wchar_t, std::char_traits<wchar_t>, std::allocator<wchar_t> >::pop_back()
	_ZNSbIwSt11char_traitsIwESaIwEE8pop_backEv @ 1985
;	std::basic_string<wchar_t, std::char_traits<wchar_t>, std::allocator<wchar_t> >::_M_assign(wchar_t*, unsigned long long, wchar_t)
	_ZNSbIwSt11char_traitsIwESaIwEE9_M_assignEPwyw @ 1986
;	std::basic_string<wchar_t, std::char_traits<wchar_t>, std::allocator<wchar_t> >::_M_mutate(unsigned long long, unsigned long long, unsigned long long)
	_ZNSbIwSt11char_traitsIwESaIwEE9_M_mutateEyyy @ 1987
;	std::basic_string<wchar_t, std::char_traits<wchar_t>, std::allocator<wchar_t> >::push_back(wchar_t)
	_ZNSbIwSt11char_traitsIwESaIwEE9push_backEw @ 1988
;	std::basic_string<wchar_t, std::char_traits<wchar_t>, std::allocator<wchar_t> >::basic_string(std::basic_string<wchar_t, std::char_traits<wchar_t>, std::allocator<wchar_t> >&&)
	_ZNSbIwSt11char_traitsIwESaIwEEC1EOS2_ @ 1989
;	std::basic_string<wchar_t, std::char_traits<wchar_t>, std::allocator<wchar_t> >::basic_string(std::basic_string<wchar_t, std::char_traits<wchar_t>, std::allocator<wchar_t> >&&, std::allocator<wchar_t> const&)
	_ZNSbIwSt11char_traitsIwESaIwEEC1EOS2_RKS1_ @ 1990
;	std::basic_string<wchar_t, std::char_traits<wchar_t>, std::allocator<wchar_t> >::basic_string(wchar_t const*, std::allocator<wchar_t> const&)
	_ZNSbIwSt11char_traitsIwESaIwEEC1EPKwRKS1_ @ 1991
;	std::basic_string<wchar_t, std::char_traits<wchar_t>, std::allocator<wchar_t> >::basic_string(wchar_t const*, unsigned long long, std::allocator<wchar_t> const&)
	_ZNSbIwSt11char_traitsIwESaIwEEC1EPKwyRKS1_ @ 1992
;	std::basic_string<wchar_t, std::char_traits<wchar_t>, std::allocator<wchar_t> >::basic_string(std::allocator<wchar_t> const&)
	_ZNSbIwSt11char_traitsIwESaIwEEC1ERKS1_ @ 1993
;	std::basic_string<wchar_t, std::char_traits<wchar_t>, std::allocator<wchar_t> >::basic_string(std::basic_string<wchar_t, std::char_traits<wchar_t>, std::allocator<wchar_t> > const&)
	_ZNSbIwSt11char_traitsIwESaIwEEC1ERKS2_ @ 1994
;	std::basic_string<wchar_t, std::char_traits<wchar_t>, std::allocator<wchar_t> >::basic_string(std::basic_string<wchar_t, std::char_traits<wchar_t>, std::allocator<wchar_t> > const&, std::allocator<wchar_t> const&)
	_ZNSbIwSt11char_traitsIwESaIwEEC1ERKS2_RKS1_ @ 1995
;	std::basic_string<wchar_t, std::char_traits<wchar_t>, std::allocator<wchar_t> >::basic_string(std::basic_string<wchar_t, std::char_traits<wchar_t>, std::allocator<wchar_t> > const&, unsigned long long, std::allocator<wchar_t> const&)
	_ZNSbIwSt11char_traitsIwESaIwEEC1ERKS2_yRKS1_ @ 1996
;	std::basic_string<wchar_t, std::char_traits<wchar_t>, std::allocator<wchar_t> >::basic_string(std::basic_string<wchar_t, std::char_traits<wchar_t>, std::allocator<wchar_t> > const&, unsigned long long, unsigned long long)
	_ZNSbIwSt11char_traitsIwESaIwEEC1ERKS2_yy @ 1997
;	std::basic_string<wchar_t, std::char_traits<wchar_t>, std::allocator<wchar_t> >::basic_string(std::basic_string<wchar_t, std::char_traits<wchar_t>, std::allocator<wchar_t> > const&, unsigned long long, unsigned long long, std::allocator<wchar_t> const&)
	_ZNSbIwSt11char_traitsIwESaIwEEC1ERKS2_yyRKS1_ @ 1998
;	std::basic_string<wchar_t, std::char_traits<wchar_t>, std::allocator<wchar_t> >::basic_string(std::initializer_list<wchar_t>, std::allocator<wchar_t> const&)
	_ZNSbIwSt11char_traitsIwESaIwEEC1ESt16initializer_listIwERKS1_ @ 1999
;	std::basic_string<wchar_t, std::char_traits<wchar_t>, std::allocator<wchar_t> >::basic_string()
	_ZNSbIwSt11char_traitsIwESaIwEEC1Ev @ 2000
;	std::basic_string<wchar_t, std::char_traits<wchar_t>, std::allocator<wchar_t> >::basic_string(unsigned long long, wchar_t, std::allocator<wchar_t> const&)
	_ZNSbIwSt11char_traitsIwESaIwEEC1EywRKS1_ @ 2001
;	std::basic_string<wchar_t, std::char_traits<wchar_t>, std::allocator<wchar_t> >::basic_string<__gnu_cxx::__normal_iterator<wchar_t*, std::basic_string<wchar_t, std::char_traits<wchar_t>, std::allocator<wchar_t> > > >(__gnu_cxx::__normal_iterator<wchar_t*, std::basic_string<wchar_t, std::char_traits<wchar_t>, std::allocator<wchar_t> > >, __gnu_cxx::__normal_iterator<wchar_t*, std::basic_string<wchar_t, std::char_traits<wchar_t>, std::allocator<wchar_t> > >, std::allocator<wchar_t> const&)
	_ZNSbIwSt11char_traitsIwESaIwEEC1IN9__gnu_cxx17__normal_iteratorIPwS2_EEEET_S8_RKS1_ @ 2002
;	std::basic_string<wchar_t, std::char_traits<wchar_t>, std::allocator<wchar_t> >::basic_string<wchar_t const*>(wchar_t const*, wchar_t const*, std::allocator<wchar_t> const&)
	_ZNSbIwSt11char_traitsIwESaIwEEC1IPKwEET_S6_RKS1_ @ 2003
;	std::basic_string<wchar_t, std::char_traits<wchar_t>, std::allocator<wchar_t> >::basic_string<wchar_t*>(wchar_t*, wchar_t*, std::allocator<wchar_t> const&)
	_ZNSbIwSt11char_traitsIwESaIwEEC1IPwEET_S5_RKS1_ @ 2004
;	std::basic_string<wchar_t, std::char_traits<wchar_t>, std::allocator<wchar_t> >::basic_string(std::basic_string<wchar_t, std::char_traits<wchar_t>, std::allocator<wchar_t> >&&)
	_ZNSbIwSt11char_traitsIwESaIwEEC2EOS2_ @ 2005
;	std::basic_string<wchar_t, std::char_traits<wchar_t>, std::allocator<wchar_t> >::basic_string(std::basic_string<wchar_t, std::char_traits<wchar_t>, std::allocator<wchar_t> >&&, std::allocator<wchar_t> const&)
	_ZNSbIwSt11char_traitsIwESaIwEEC2EOS2_RKS1_ @ 2006
;	std::basic_string<wchar_t, std::char_traits<wchar_t>, std::allocator<wchar_t> >::basic_string(wchar_t const*, std::allocator<wchar_t> const&)
	_ZNSbIwSt11char_traitsIwESaIwEEC2EPKwRKS1_ @ 2007
;	std::basic_string<wchar_t, std::char_traits<wchar_t>, std::allocator<wchar_t> >::basic_string(wchar_t const*, unsigned long long, std::allocator<wchar_t> const&)
	_ZNSbIwSt11char_traitsIwESaIwEEC2EPKwyRKS1_ @ 2008
;	std::basic_string<wchar_t, std::char_traits<wchar_t>, std::allocator<wchar_t> >::basic_string(std::allocator<wchar_t> const&)
	_ZNSbIwSt11char_traitsIwESaIwEEC2ERKS1_ @ 2009
;	std::basic_string<wchar_t, std::char_traits<wchar_t>, std::allocator<wchar_t> >::basic_string(std::basic_string<wchar_t, std::char_traits<wchar_t>, std::allocator<wchar_t> > const&)
	_ZNSbIwSt11char_traitsIwESaIwEEC2ERKS2_ @ 2010
;	std::basic_string<wchar_t, std::char_traits<wchar_t>, std::allocator<wchar_t> >::basic_string(std::basic_string<wchar_t, std::char_traits<wchar_t>, std::allocator<wchar_t> > const&, std::allocator<wchar_t> const&)
	_ZNSbIwSt11char_traitsIwESaIwEEC2ERKS2_RKS1_ @ 2011
;	std::basic_string<wchar_t, std::char_traits<wchar_t>, std::allocator<wchar_t> >::basic_string(std::basic_string<wchar_t, std::char_traits<wchar_t>, std::allocator<wchar_t> > const&, unsigned long long, std::allocator<wchar_t> const&)
	_ZNSbIwSt11char_traitsIwESaIwEEC2ERKS2_yRKS1_ @ 2012
;	std::basic_string<wchar_t, std::char_traits<wchar_t>, std::allocator<wchar_t> >::basic_string(std::basic_string<wchar_t, std::char_traits<wchar_t>, std::allocator<wchar_t> > const&, unsigned long long, unsigned long long)
	_ZNSbIwSt11char_traitsIwESaIwEEC2ERKS2_yy @ 2013
;	std::basic_string<wchar_t, std::char_traits<wchar_t>, std::allocator<wchar_t> >::basic_string(std::basic_string<wchar_t, std::char_traits<wchar_t>, std::allocator<wchar_t> > const&, unsigned long long, unsigned long long, std::allocator<wchar_t> const&)
	_ZNSbIwSt11char_traitsIwESaIwEEC2ERKS2_yyRKS1_ @ 2014
;	std::basic_string<wchar_t, std::char_traits<wchar_t>, std::allocator<wchar_t> >::basic_string(std::initializer_list<wchar_t>, std::allocator<wchar_t> const&)
	_ZNSbIwSt11char_traitsIwESaIwEEC2ESt16initializer_listIwERKS1_ @ 2015
;	std::basic_string<wchar_t, std::char_traits<wchar_t>, std::allocator<wchar_t> >::basic_string()
	_ZNSbIwSt11char_traitsIwESaIwEEC2Ev @ 2016
;	std::basic_string<wchar_t, std::char_traits<wchar_t>, std::allocator<wchar_t> >::basic_string(unsigned long long, wchar_t, std::allocator<wchar_t> const&)
	_ZNSbIwSt11char_traitsIwESaIwEEC2EywRKS1_ @ 2017
;	std::basic_string<wchar_t, std::char_traits<wchar_t>, std::allocator<wchar_t> >::basic_string<__gnu_cxx::__normal_iterator<wchar_t*, std::basic_string<wchar_t, std::char_traits<wchar_t>, std::allocator<wchar_t> > > >(__gnu_cxx::__normal_iterator<wchar_t*, std::basic_string<wchar_t, std::char_traits<wchar_t>, std::allocator<wchar_t> > >, __gnu_cxx::__normal_iterator<wchar_t*, std::basic_string<wchar_t, std::char_traits<wchar_t>, std::allocator<wchar_t> > >, std::allocator<wchar_t> const&)
	_ZNSbIwSt11char_traitsIwESaIwEEC2IN9__gnu_cxx17__normal_iteratorIPwS2_EEEET_S8_RKS1_ @ 2018
;	std::basic_string<wchar_t, std::char_traits<wchar_t>, std::allocator<wchar_t> >::basic_string<wchar_t const*>(wchar_t const*, wchar_t const*, std::allocator<wchar_t> const&)
	_ZNSbIwSt11char_traitsIwESaIwEEC2IPKwEET_S6_RKS1_ @ 2019
;	std::basic_string<wchar_t, std::char_traits<wchar_t>, std::allocator<wchar_t> >::basic_string<wchar_t*>(wchar_t*, wchar_t*, std::allocator<wchar_t> const&)
	_ZNSbIwSt11char_traitsIwESaIwEEC2IPwEET_S5_RKS1_ @ 2020
;	std::basic_string<wchar_t, std::char_traits<wchar_t>, std::allocator<wchar_t> >::~basic_string()
	_ZNSbIwSt11char_traitsIwESaIwEED1Ev @ 2021
;	std::basic_string<wchar_t, std::char_traits<wchar_t>, std::allocator<wchar_t> >::~basic_string()
	_ZNSbIwSt11char_traitsIwESaIwEED2Ev @ 2022
;	std::basic_string<wchar_t, std::char_traits<wchar_t>, std::allocator<wchar_t> >::operator=(std::basic_string<wchar_t, std::char_traits<wchar_t>, std::allocator<wchar_t> >&&)
	_ZNSbIwSt11char_traitsIwESaIwEEaSEOS2_ @ 2023
;	std::basic_string<wchar_t, std::char_traits<wchar_t>, std::allocator<wchar_t> >::operator=(wchar_t const*)
	_ZNSbIwSt11char_traitsIwESaIwEEaSEPKw @ 2024
;	std::basic_string<wchar_t, std::char_traits<wchar_t>, std::allocator<wchar_t> >::operator=(std::basic_string<wchar_t, std::char_traits<wchar_t>, std::allocator<wchar_t> > const&)
	_ZNSbIwSt11char_traitsIwESaIwEEaSERKS2_ @ 2025
;	std::basic_string<wchar_t, std::char_traits<wchar_t>, std::allocator<wchar_t> >::operator=(std::initializer_list<wchar_t>)
	_ZNSbIwSt11char_traitsIwESaIwEEaSESt16initializer_listIwE @ 2026
;	std::basic_string<wchar_t, std::char_traits<wchar_t>, std::allocator<wchar_t> >::operator=(wchar_t)
	_ZNSbIwSt11char_traitsIwESaIwEEaSEw @ 2027
;	std::basic_string<wchar_t, std::char_traits<wchar_t>, std::allocator<wchar_t> >::operator[](unsigned long long)
	_ZNSbIwSt11char_traitsIwESaIwEEixEy @ 2028
;	std::basic_string<wchar_t, std::char_traits<wchar_t>, std::allocator<wchar_t> >::operator+=(wchar_t const*)
	_ZNSbIwSt11char_traitsIwESaIwEEpLEPKw @ 2029
;	std::basic_string<wchar_t, std::char_traits<wchar_t>, std::allocator<wchar_t> >::operator+=(std::basic_string<wchar_t, std::char_traits<wchar_t>, std::allocator<wchar_t> > const&)
	_ZNSbIwSt11char_traitsIwESaIwEEpLERKS2_ @ 2030
;	std::basic_string<wchar_t, std::char_traits<wchar_t>, std::allocator<wchar_t> >::operator+=(std::initializer_list<wchar_t>)
	_ZNSbIwSt11char_traitsIwESaIwEEpLESt16initializer_listIwE @ 2031
;	std::basic_string<wchar_t, std::char_traits<wchar_t>, std::allocator<wchar_t> >::operator+=(wchar_t)
	_ZNSbIwSt11char_traitsIwESaIwEEpLEw @ 2032
;	std::iostream::swap(std::iostream&)
	_ZNSd4swapERSd @ 2033
;	std::basic_iostream<char, std::char_traits<char> >::basic_iostream(std::iostream&&)
	_ZNSdC1EOSd @ 2034
;	std::basic_iostream<char, std::char_traits<char> >::basic_iostream(std::basic_streambuf<char, std::char_traits<char> >*)
	_ZNSdC1EPSt15basic_streambufIcSt11char_traitsIcEE @ 2035
;	std::basic_iostream<char, std::char_traits<char> >::basic_iostream()
	_ZNSdC1Ev @ 2036
;	std::basic_iostream<char, std::char_traits<char> >::basic_iostream(std::iostream&&)
	_ZNSdC2EOSd @ 2037
;	std::basic_iostream<char, std::char_traits<char> >::basic_iostream(std::basic_streambuf<char, std::char_traits<char> >*)
	_ZNSdC2EPSt15basic_streambufIcSt11char_traitsIcEE @ 2038
;	std::basic_iostream<char, std::char_traits<char> >::basic_iostream()
	_ZNSdC2Ev @ 2039
;	std::basic_iostream<char, std::char_traits<char> >::~basic_iostream()
	_ZNSdD0Ev @ 2040
;	std::basic_iostream<char, std::char_traits<char> >::~basic_iostream()
	_ZNSdD1Ev @ 2041
;	std::basic_iostream<char, std::char_traits<char> >::~basic_iostream()
	_ZNSdD2Ev @ 2042
;	std::iostream::operator=(std::iostream&&)
	_ZNSdaSEOSd @ 2043
;	std::istream& std::istream::_M_extract<void*>(void*&)
	_ZNSi10_M_extractIPvEERSiRT_ @ 2044
;	std::istream& std::istream::_M_extract<bool>(bool&)
	_ZNSi10_M_extractIbEERSiRT_ @ 2045
;	std::istream& std::istream::_M_extract<double>(double&)
	_ZNSi10_M_extractIdEERSiRT_ @ 2046
;	std::istream& std::istream::_M_extract<long double>(long double&)
	_ZNSi10_M_extractIeEERSiRT_ @ 2047
;	std::istream& std::istream::_M_extract<float>(float&)
	_ZNSi10_M_extractIfEERSiRT_ @ 2048
;	std::istream& std::istream::_M_extract<unsigned int>(unsigned int&)
	_ZNSi10_M_extractIjEERSiRT_ @ 2049
;	std::istream& std::istream::_M_extract<long>(long&)
	_ZNSi10_M_extractIlEERSiRT_ @ 2050
;	std::istream& std::istream::_M_extract<unsigned long>(unsigned long&)
	_ZNSi10_M_extractImEERSiRT_ @ 2051
;	std::istream& std::istream::_M_extract<unsigned short>(unsigned short&)
	_ZNSi10_M_extractItEERSiRT_ @ 2052
;	std::istream& std::istream::_M_extract<long long>(long long&)
	_ZNSi10_M_extractIxEERSiRT_ @ 2053
;	std::istream& std::istream::_M_extract<unsigned long long>(unsigned long long&)
	_ZNSi10_M_extractIyEERSiRT_ @ 2054
;	std::istream::get(char*, long long)
	_ZNSi3getEPcx @ 2055
;	std::istream::get(char*, long long, char)
	_ZNSi3getEPcxc @ 2056
;	std::istream::get(std::basic_streambuf<char, std::char_traits<char> >&)
	_ZNSi3getERSt15basic_streambufIcSt11char_traitsIcEE @ 2057
;	std::istream::get(std::basic_streambuf<char, std::char_traits<char> >&, char)
	_ZNSi3getERSt15basic_streambufIcSt11char_traitsIcEEc @ 2058
;	std::istream::get(char&)
	_ZNSi3getERc @ 2059
;	std::istream::get()
	_ZNSi3getEv @ 2060
;	std::istream::peek()
	_ZNSi4peekEv @ 2061
;	std::istream::read(char*, long long)
	_ZNSi4readEPcx @ 2062
;	std::istream::swap(std::istream&)
	_ZNSi4swapERSi @ 2063
;	std::istream::sync()
	_ZNSi4syncEv @ 2064
;	std::istream::seekg(std::fpos<_Mbstatet>)
	_ZNSi5seekgESt4fposI9_MbstatetE @ 2065
;	std::istream::seekg(long long, std::_Ios_Seekdir)
	_ZNSi5seekgExSt12_Ios_Seekdir @ 2066
;	std::istream::tellg()
	_ZNSi5tellgEv @ 2067
;	std::istream::unget()
	_ZNSi5ungetEv @ 2068
;	std::istream::ignore()
	_ZNSi6ignoreEv @ 2069
;	std::istream::ignore(long long)
	_ZNSi6ignoreEx @ 2070
;	std::istream::ignore(long long, int)
	_ZNSi6ignoreExi @ 2071
;	std::istream::sentry::sentry(std::istream&, bool)
	_ZNSi6sentryC1ERSib @ 2072
;	std::istream::sentry::sentry(std::istream&, bool)
	_ZNSi6sentryC2ERSib @ 2073
;	std::istream::getline(char*, long long)
	_ZNSi7getlineEPcx @ 2074
;	std::istream::getline(char*, long long, char)
	_ZNSi7getlineEPcxc @ 2075
;	std::istream::putback(char)
	_ZNSi7putbackEc @ 2076
;	std::istream::readsome(char*, long long)
	_ZNSi8readsomeEPcx @ 2077
;	std::basic_istream<char, std::char_traits<char> >::basic_istream(std::istream&&)
	_ZNSiC1EOSi @ 2078
;	std::basic_istream<char, std::char_traits<char> >::basic_istream(std::basic_streambuf<char, std::char_traits<char> >*)
	_ZNSiC1EPSt15basic_streambufIcSt11char_traitsIcEE @ 2079
;	std::basic_istream<char, std::char_traits<char> >::basic_istream()
	_ZNSiC1Ev @ 2080
;	std::basic_istream<char, std::char_traits<char> >::basic_istream(std::istream&&)
	_ZNSiC2EOSi @ 2081
;	std::basic_istream<char, std::char_traits<char> >::basic_istream(std::basic_streambuf<char, std::char_traits<char> >*)
	_ZNSiC2EPSt15basic_streambufIcSt11char_traitsIcEE @ 2082
;	std::basic_istream<char, std::char_traits<char> >::basic_istream()
	_ZNSiC2Ev @ 2083
;	std::basic_istream<char, std::char_traits<char> >::~basic_istream()
	_ZNSiD0Ev @ 2084
;	std::basic_istream<char, std::char_traits<char> >::~basic_istream()
	_ZNSiD1Ev @ 2085
;	std::basic_istream<char, std::char_traits<char> >::~basic_istream()
	_ZNSiD2Ev @ 2086
;	std::istream::operator=(std::istream&&)
	_ZNSiaSEOSi @ 2087
;	std::istream::operator>>(std::istream& (*)(std::istream&))
	_ZNSirsEPFRSiS_E @ 2088
;	std::istream::operator>>(std::ios_base& (*)(std::ios_base&))
	_ZNSirsEPFRSt8ios_baseS0_E @ 2089
;	std::istream::operator>>(std::basic_ios<char, std::char_traits<char> >& (*)(std::basic_ios<char, std::char_traits<char> >&))
	_ZNSirsEPFRSt9basic_iosIcSt11char_traitsIcEES3_E @ 2090
;	std::istream::operator>>(std::basic_streambuf<char, std::char_traits<char> >*)
	_ZNSirsEPSt15basic_streambufIcSt11char_traitsIcEE @ 2091
;	std::istream::operator>>(void*&)
	_ZNSirsERPv @ 2092
;	std::istream::operator>>(bool&)
	_ZNSirsERb @ 2093
;	std::istream::operator>>(double&)
	_ZNSirsERd @ 2094
;	std::istream::operator>>(long double&)
	_ZNSirsERe @ 2095
;	std::istream::operator>>(float&)
	_ZNSirsERf @ 2096
;	std::istream::operator>>(int&)
	_ZNSirsERi @ 2097
;	std::istream::operator>>(unsigned int&)
	_ZNSirsERj @ 2098
;	std::istream::operator>>(long&)
	_ZNSirsERl @ 2099
;	std::istream::operator>>(unsigned long&)
	_ZNSirsERm @ 2100
;	std::istream::operator>>(short&)
	_ZNSirsERs @ 2101
;	std::istream::operator>>(unsigned short&)
	_ZNSirsERt @ 2102
;	std::istream::operator>>(long long&)
	_ZNSirsERx @ 2103
;	std::istream::operator>>(unsigned long long&)
	_ZNSirsERy @ 2104
;	std::ostream::put(char)
	_ZNSo3putEc @ 2105
;	std::ostream::swap(std::ostream&)
	_ZNSo4swapERSo @ 2106
;	std::ostream::flush()
	_ZNSo5flushEv @ 2107
;	std::ostream::seekp(std::fpos<_Mbstatet>)
	_ZNSo5seekpESt4fposI9_MbstatetE @ 2108
;	std::ostream::seekp(long long, std::_Ios_Seekdir)
	_ZNSo5seekpExSt12_Ios_Seekdir @ 2109
;	std::ostream::tellp()
	_ZNSo5tellpEv @ 2110
;	std::ostream::write(char const*, long long)
	_ZNSo5writeEPKcx @ 2111
;	std::ostream::sentry::sentry(std::ostream&)
	_ZNSo6sentryC1ERSo @ 2112
;	std::ostream::sentry::sentry(std::ostream&)
	_ZNSo6sentryC2ERSo @ 2113
;	std::ostream::sentry::~sentry()
	_ZNSo6sentryD1Ev @ 2114
;	std::ostream::sentry::~sentry()
	_ZNSo6sentryD2Ev @ 2115
;	std::ostream::_M_write(char const*, long long)
	_ZNSo8_M_writeEPKcx @ 2116
;	std::ostream& std::ostream::_M_insert<void const*>(void const*)
	_ZNSo9_M_insertIPKvEERSoT_ @ 2117
;	std::ostream& std::ostream::_M_insert<bool>(bool)
	_ZNSo9_M_insertIbEERSoT_ @ 2118
;	std::ostream& std::ostream::_M_insert<double>(double)
	_ZNSo9_M_insertIdEERSoT_ @ 2119
;	std::ostream& std::ostream::_M_insert<long double>(long double)
	_ZNSo9_M_insertIeEERSoT_ @ 2120
;	std::ostream& std::ostream::_M_insert<long>(long)
	_ZNSo9_M_insertIlEERSoT_ @ 2121
;	std::ostream& std::ostream::_M_insert<unsigned long>(unsigned long)
	_ZNSo9_M_insertImEERSoT_ @ 2122
;	std::ostream& std::ostream::_M_insert<long long>(long long)
	_ZNSo9_M_insertIxEERSoT_ @ 2123
;	std::ostream& std::ostream::_M_insert<unsigned long long>(unsigned long long)
	_ZNSo9_M_insertIyEERSoT_ @ 2124
;	std::basic_ostream<char, std::char_traits<char> >::basic_ostream(std::ostream&&)
	_ZNSoC1EOSo @ 2125
;	std::basic_ostream<char, std::char_traits<char> >::basic_ostream(std::basic_streambuf<char, std::char_traits<char> >*)
	_ZNSoC1EPSt15basic_streambufIcSt11char_traitsIcEE @ 2126
;	std::basic_ostream<char, std::char_traits<char> >::basic_ostream(std::iostream&)
	_ZNSoC1ERSd @ 2127
;	std::basic_ostream<char, std::char_traits<char> >::basic_ostream()
	_ZNSoC1Ev @ 2128
;	std::basic_ostream<char, std::char_traits<char> >::basic_ostream(std::ostream&&)
	_ZNSoC2EOSo @ 2129
;	std::basic_ostream<char, std::char_traits<char> >::basic_ostream(std::basic_streambuf<char, std::char_traits<char> >*)
	_ZNSoC2EPSt15basic_streambufIcSt11char_traitsIcEE @ 2130
;	std::basic_ostream<char, std::char_traits<char> >::basic_ostream(std::iostream&)
	_ZNSoC2ERSd @ 2131
;	std::basic_ostream<char, std::char_traits<char> >::basic_ostream()
	_ZNSoC2Ev @ 2132
;	std::basic_ostream<char, std::char_traits<char> >::~basic_ostream()
	_ZNSoD0Ev @ 2133
;	std::basic_ostream<char, std::char_traits<char> >::~basic_ostream()
	_ZNSoD1Ev @ 2134
;	std::basic_ostream<char, std::char_traits<char> >::~basic_ostream()
	_ZNSoD2Ev @ 2135
;	std::ostream::operator=(std::ostream&&)
	_ZNSoaSEOSo @ 2136
;	std::ostream::operator<<(std::ostream& (*)(std::ostream&))
	_ZNSolsEPFRSoS_E @ 2137
;	std::ostream::operator<<(std::ios_base& (*)(std::ios_base&))
	_ZNSolsEPFRSt8ios_baseS0_E @ 2138
;	std::ostream::operator<<(std::basic_ios<char, std::char_traits<char> >& (*)(std::basic_ios<char, std::char_traits<char> >&))
	_ZNSolsEPFRSt9basic_iosIcSt11char_traitsIcEES3_E @ 2139
;	std::ostream::operator<<(void const*)
	_ZNSolsEPKv @ 2140
;	std::ostream::operator<<(std::basic_streambuf<char, std::char_traits<char> >*)
	_ZNSolsEPSt15basic_streambufIcSt11char_traitsIcEE @ 2141
;	std::ostream::operator<<(bool)
	_ZNSolsEb @ 2142
;	std::ostream::operator<<(double)
	_ZNSolsEd @ 2143
;	std::ostream::operator<<(long double)
	_ZNSolsEe @ 2144
;	std::ostream::operator<<(float)
	_ZNSolsEf @ 2145
;	std::ostream::operator<<(int)
	_ZNSolsEi @ 2146
;	std::ostream::operator<<(unsigned int)
	_ZNSolsEj @ 2147
;	std::ostream::operator<<(long)
	_ZNSolsEl @ 2148
;	std::ostream::operator<<(unsigned long)
	_ZNSolsEm @ 2149
;	std::ostream::operator<<(short)
	_ZNSolsEs @ 2150
;	std::ostream::operator<<(unsigned short)
	_ZNSolsEt @ 2151
;	std::ostream::operator<<(long long)
	_ZNSolsEx @ 2152
;	std::ostream::operator<<(unsigned long long)
	_ZNSolsEy @ 2153
;	std::string::_S_compare(unsigned long long, unsigned long long)
	_ZNSs10_S_compareEyy @ 2154
;	std::string::_Alloc_hider::_Alloc_hider(char*, std::allocator<char> const&)
	_ZNSs12_Alloc_hiderC1EPcRKSaIcE @ 2155
;	std::string::_Alloc_hider::_Alloc_hider(char*, std::allocator<char> const&)
	_ZNSs12_Alloc_hiderC2EPcRKSaIcE @ 2156
;	std::string::_M_leak_hard()
	_ZNSs12_M_leak_hardEv @ 2157
;	std::string::_S_construct(unsigned long long, char, std::allocator<char> const&)
	_ZNSs12_S_constructEycRKSaIcE @ 2158
;	char* std::string::_S_construct<__gnu_cxx::__normal_iterator<char*, std::string> >(__gnu_cxx::__normal_iterator<char*, std::string>, __gnu_cxx::__normal_iterator<char*, std::string>, std::allocator<char> const&, std::forward_iterator_tag)
	_ZNSs12_S_constructIN9__gnu_cxx17__normal_iteratorIPcSsEEEES2_T_S4_RKSaIcESt20forward_iterator_tag @ 2159
;	char* std::string::_S_construct<char const*>(char const*, char const*, std::allocator<char> const&, std::forward_iterator_tag)
	_ZNSs12_S_constructIPKcEEPcT_S3_RKSaIcESt20forward_iterator_tag @ 2160
;	char* std::string::_S_construct<char*>(char*, char*, std::allocator<char> const&, std::forward_iterator_tag)
	_ZNSs12_S_constructIPcEES0_T_S1_RKSaIcESt20forward_iterator_tag @ 2161
;	std::string::_S_empty_rep()
	_ZNSs12_S_empty_repEv @ 2162
;	std::string::_S_copy_chars(char*, __gnu_cxx::__normal_iterator<char const*, std::string>, __gnu_cxx::__normal_iterator<char const*, std::string>)
	_ZNSs13_S_copy_charsEPcN9__gnu_cxx17__normal_iteratorIPKcSsEES4_ @ 2163
;	std::string::_S_copy_chars(char*, __gnu_cxx::__normal_iterator<char*, std::string>, __gnu_cxx::__normal_iterator<char*, std::string>)
	_ZNSs13_S_copy_charsEPcN9__gnu_cxx17__normal_iteratorIS_SsEES2_ @ 2164
;	std::string::_S_copy_chars(char*, char const*, char const*)
	_ZNSs13_S_copy_charsEPcPKcS1_ @ 2165
;	std::string::_S_copy_chars(char*, char*, char*)
	_ZNSs13_S_copy_charsEPcS_S_ @ 2166
;	std::string::shrink_to_fit()
	_ZNSs13shrink_to_fitEv @ 2167
;	std::string::_M_replace_aux(unsigned long long, unsigned long long, unsigned long long, char)
	_ZNSs14_M_replace_auxEyyyc @ 2168
;	std::string::_M_replace_safe(unsigned long long, unsigned long long, char const*, unsigned long long)
	_ZNSs15_M_replace_safeEyyPKcy @ 2169
;	std::string::_S_construct_aux_2(unsigned long long, char, std::allocator<char> const&)
	_ZNSs18_S_construct_aux_2EycRKSaIcE @ 2170
;	std::string::at(unsigned long long)
	_ZNSs2atEy @ 2171
;	std::string::end()
	_ZNSs3endEv @ 2172
;	std::string::_Rep::_M_destroy(std::allocator<char> const&)
	_ZNSs4_Rep10_M_destroyERKSaIcE @ 2173
;	std::string::_Rep::_M_dispose(std::allocator<char> const&)
	_ZNSs4_Rep10_M_disposeERKSaIcE @ 2174
;	std::string::_Rep::_M_refcopy()
	_ZNSs4_Rep10_M_refcopyEv @ 2175
;	std::string::_Rep::_M_refdata()
	_ZNSs4_Rep10_M_refdataEv @ 2176
;	std::string::_Rep::_S_max_size
	_ZNSs4_Rep11_S_max_sizeE @ 2177 DATA
;	std::string::_Rep::_S_terminal
	_ZNSs4_Rep11_S_terminalE @ 2178 DATA
;	std::string::_Rep::_S_empty_rep()
	_ZNSs4_Rep12_S_empty_repEv @ 2179
;	std::string::_Rep::_M_set_leaked()
	_ZNSs4_Rep13_M_set_leakedEv @ 2180
;	std::string::_Rep::_M_set_sharable()
	_ZNSs4_Rep15_M_set_sharableEv @ 2181
;	std::string::_Rep::_S_empty_rep_storage
	_ZNSs4_Rep20_S_empty_rep_storageE @ 2182 DATA
;	std::string::_Rep::_M_set_length_and_sharable(unsigned long long)
	_ZNSs4_Rep26_M_set_length_and_sharableEy @ 2183
;	std::string::_Rep::_M_grab(std::allocator<char> const&, std::allocator<char> const&)
	_ZNSs4_Rep7_M_grabERKSaIcES2_ @ 2184
;	std::string::_Rep::_M_clone(std::allocator<char> const&, unsigned long long)
	_ZNSs4_Rep8_M_cloneERKSaIcEy @ 2185
;	std::string::_Rep::_S_create(unsigned long long, unsigned long long, std::allocator<char> const&)
	_ZNSs4_Rep9_S_createEyyRKSaIcE @ 2186
;	std::string::back()
	_ZNSs4backEv @ 2187
;	std::string::npos
	_ZNSs4nposE @ 2188 DATA
;	std::string::rend()
	_ZNSs4rendEv @ 2189
;	std::string::swap(std::string&)
	_ZNSs4swapERSs @ 2190
;	std::string::begin()
	_ZNSs5beginEv @ 2191
;	std::string::clear()
	_ZNSs5clearEv @ 2192
;	std::string::erase(__gnu_cxx::__normal_iterator<char*, std::string>)
	_ZNSs5eraseEN9__gnu_cxx17__normal_iteratorIPcSsEE @ 2193
;	std::string::erase(__gnu_cxx::__normal_iterator<char*, std::string>, __gnu_cxx::__normal_iterator<char*, std::string>)
	_ZNSs5eraseEN9__gnu_cxx17__normal_iteratorIPcSsEES2_ @ 2194
;	std::string::erase(unsigned long long, unsigned long long)
	_ZNSs5eraseEyy @ 2195
;	std::string::front()
	_ZNSs5frontEv @ 2196
;	std::string::append(char const*)
	_ZNSs6appendEPKc @ 2197
;	std::string::append(char const*, unsigned long long)
	_ZNSs6appendEPKcy @ 2198
;	std::string::append(std::string const&)
	_ZNSs6appendERKSs @ 2199
;	std::string::append(std::string const&, unsigned long long, unsigned long long)
	_ZNSs6appendERKSsyy @ 2200
;	std::string::append(std::initializer_list<char>)
	_ZNSs6appendESt16initializer_listIcE @ 2201
;	std::string::append(unsigned long long, char)
	_ZNSs6appendEyc @ 2202
;	std::string::assign(std::string&&)
	_ZNSs6assignEOSs @ 2203
;	std::string::assign(char const*)
	_ZNSs6assignEPKc @ 2204
;	std::string::assign(char const*, unsigned long long)
	_ZNSs6assignEPKcy @ 2205
;	std::string::assign(std::string const&)
	_ZNSs6assignERKSs @ 2206
;	std::string::assign(std::string const&, unsigned long long, unsigned long long)
	_ZNSs6assignERKSsyy @ 2207
;	std::string::assign(std::initializer_list<char>)
	_ZNSs6assignESt16initializer_listIcE @ 2208
;	std::string::assign(unsigned long long, char)
	_ZNSs6assignEyc @ 2209
;	std::string::insert(__gnu_cxx::__normal_iterator<char*, std::string>, std::initializer_list<char>)
	_ZNSs6insertEN9__gnu_cxx17__normal_iteratorIPcSsEESt16initializer_listIcE @ 2210
;	std::string::insert(__gnu_cxx::__normal_iterator<char*, std::string>, char)
	_ZNSs6insertEN9__gnu_cxx17__normal_iteratorIPcSsEEc @ 2211
;	std::string::insert(__gnu_cxx::__normal_iterator<char*, std::string>, unsigned long long, char)
	_ZNSs6insertEN9__gnu_cxx17__normal_iteratorIPcSsEEyc @ 2212
;	std::string::insert(unsigned long long, char const*)
	_ZNSs6insertEyPKc @ 2213
;	std::string::insert(unsigned long long, char const*, unsigned long long)
	_ZNSs6insertEyPKcy @ 2214
;	std::string::insert(unsigned long long, std::string const&)
	_ZNSs6insertEyRKSs @ 2215
;	std::string::insert(unsigned long long, std::string const&, unsigned long long, unsigned long long)
	_ZNSs6insertEyRKSsyy @ 2216
;	std::string::insert(unsigned long long, unsigned long long, char)
	_ZNSs6insertEyyc @ 2217
;	std::string::rbegin()
	_ZNSs6rbeginEv @ 2218
;	std::string::resize(unsigned long long)
	_ZNSs6resizeEy @ 2219
;	std::string::resize(unsigned long long, char)
	_ZNSs6resizeEyc @ 2220
;	std::string::_M_copy(char*, char const*, unsigned long long)
	_ZNSs7_M_copyEPcPKcy @ 2221
;	std::string::_M_data(char*)
	_ZNSs7_M_dataEPc @ 2222
;	std::string::_M_leak()
	_ZNSs7_M_leakEv @ 2223
;	std::string::_M_move(char*, char const*, unsigned long long)
	_ZNSs7_M_moveEPcPKcy @ 2224
;	std::string::replace(__gnu_cxx::__normal_iterator<char*, std::string>, __gnu_cxx::__normal_iterator<char*, std::string>, __gnu_cxx::__normal_iterator<char const*, std::string>, __gnu_cxx::__normal_iterator<char const*, std::string>)
	_ZNSs7replaceEN9__gnu_cxx17__normal_iteratorIPcSsEES2_NS0_IPKcSsEES5_ @ 2225
;	std::string::replace(__gnu_cxx::__normal_iterator<char*, std::string>, __gnu_cxx::__normal_iterator<char*, std::string>, char const*)
	_ZNSs7replaceEN9__gnu_cxx17__normal_iteratorIPcSsEES2_PKc @ 2226
;	std::string::replace(__gnu_cxx::__normal_iterator<char*, std::string>, __gnu_cxx::__normal_iterator<char*, std::string>, char const*, char const*)
	_ZNSs7replaceEN9__gnu_cxx17__normal_iteratorIPcSsEES2_PKcS4_ @ 2227
;	std::string::replace(__gnu_cxx::__normal_iterator<char*, std::string>, __gnu_cxx::__normal_iterator<char*, std::string>, char const*, unsigned long long)
	_ZNSs7replaceEN9__gnu_cxx17__normal_iteratorIPcSsEES2_PKcy @ 2228
;	std::string::replace(__gnu_cxx::__normal_iterator<char*, std::string>, __gnu_cxx::__normal_iterator<char*, std::string>, std::string const&)
	_ZNSs7replaceEN9__gnu_cxx17__normal_iteratorIPcSsEES2_RKSs @ 2229
;	std::string::replace(__gnu_cxx::__normal_iterator<char*, std::string>, __gnu_cxx::__normal_iterator<char*, std::string>, char*, char*)
	_ZNSs7replaceEN9__gnu_cxx17__normal_iteratorIPcSsEES2_S1_S1_ @ 2230
;	std::string::replace(__gnu_cxx::__normal_iterator<char*, std::string>, __gnu_cxx::__normal_iterator<char*, std::string>, __gnu_cxx::__normal_iterator<char*, std::string>, __gnu_cxx::__normal_iterator<char*, std::string>)
	_ZNSs7replaceEN9__gnu_cxx17__normal_iteratorIPcSsEES2_S2_S2_ @ 2231
;	std::string::replace(__gnu_cxx::__normal_iterator<char*, std::string>, __gnu_cxx::__normal_iterator<char*, std::string>, std::initializer_list<char>)
	_ZNSs7replaceEN9__gnu_cxx17__normal_iteratorIPcSsEES2_St16initializer_listIcE @ 2232
;	std::string::replace(__gnu_cxx::__normal_iterator<char*, std::string>, __gnu_cxx::__normal_iterator<char*, std::string>, unsigned long long, char)
	_ZNSs7replaceEN9__gnu_cxx17__normal_iteratorIPcSsEES2_yc @ 2233
;	std::string::replace(unsigned long long, unsigned long long, char const*)
	_ZNSs7replaceEyyPKc @ 2234
;	std::string::replace(unsigned long long, unsigned long long, char const*, unsigned long long)
	_ZNSs7replaceEyyPKcy @ 2235
;	std::string::replace(unsigned long long, unsigned long long, std::string const&)
	_ZNSs7replaceEyyRKSs @ 2236
;	std::string::replace(unsigned long long, unsigned long long, std::string const&, unsigned long long, unsigned long long)
	_ZNSs7replaceEyyRKSsyy @ 2237
;	std::string::replace(unsigned long long, unsigned long long, unsigned long long, char)
	_ZNSs7replaceEyyyc @ 2238
;	std::string::reserve()
	_ZNSs7reserveEv @ 2239
;	std::string::reserve(unsigned long long)
	_ZNSs7reserveEy @ 2240
;	std::string::pop_back()
	_ZNSs8pop_backEv @ 2241
;	std::string::_M_assign(char*, unsigned long long, char)
	_ZNSs9_M_assignEPcyc @ 2242
;	std::string::_M_mutate(unsigned long long, unsigned long long, unsigned long long)
	_ZNSs9_M_mutateEyyy @ 2243
;	std::string::push_back(char)
	_ZNSs9push_backEc @ 2244
;	std::basic_string<char, std::char_traits<char>, std::allocator<char> >::basic_string(std::string&&)
	_ZNSsC1EOSs @ 2245
;	std::basic_string<char, std::char_traits<char>, std::allocator<char> >::basic_string(std::string&&, std::allocator<char> const&)
	_ZNSsC1EOSsRKSaIcE @ 2246
;	std::basic_string<char, std::char_traits<char>, std::allocator<char> >::basic_string(char const*, std::allocator<char> const&)
	_ZNSsC1EPKcRKSaIcE @ 2247
;	std::basic_string<char, std::char_traits<char>, std::allocator<char> >::basic_string(char const*, unsigned long long, std::allocator<char> const&)
	_ZNSsC1EPKcyRKSaIcE @ 2248
;	std::basic_string<char, std::char_traits<char>, std::allocator<char> >::basic_string(std::allocator<char> const&)
	_ZNSsC1ERKSaIcE @ 2249
;	std::basic_string<char, std::char_traits<char>, std::allocator<char> >::basic_string(std::string const&)
	_ZNSsC1ERKSs @ 2250
;	std::basic_string<char, std::char_traits<char>, std::allocator<char> >::basic_string(std::string const&, std::allocator<char> const&)
	_ZNSsC1ERKSsRKSaIcE @ 2251
;	std::basic_string<char, std::char_traits<char>, std::allocator<char> >::basic_string(std::string const&, unsigned long long, std::allocator<char> const&)
	_ZNSsC1ERKSsyRKSaIcE @ 2252
;	std::basic_string<char, std::char_traits<char>, std::allocator<char> >::basic_string(std::string const&, unsigned long long, unsigned long long)
	_ZNSsC1ERKSsyy @ 2253
;	std::basic_string<char, std::char_traits<char>, std::allocator<char> >::basic_string(std::string const&, unsigned long long, unsigned long long, std::allocator<char> const&)
	_ZNSsC1ERKSsyyRKSaIcE @ 2254
;	std::basic_string<char, std::char_traits<char>, std::allocator<char> >::basic_string(std::initializer_list<char>, std::allocator<char> const&)
	_ZNSsC1ESt16initializer_listIcERKSaIcE @ 2255
;	std::basic_string<char, std::char_traits<char>, std::allocator<char> >::basic_string()
	_ZNSsC1Ev @ 2256
;	std::basic_string<char, std::char_traits<char>, std::allocator<char> >::basic_string(unsigned long long, char, std::allocator<char> const&)
	_ZNSsC1EycRKSaIcE @ 2257
;	std::basic_string<char, std::char_traits<char>, std::allocator<char> >::basic_string<__gnu_cxx::__normal_iterator<char*, std::string> >(__gnu_cxx::__normal_iterator<char*, std::string>, __gnu_cxx::__normal_iterator<char*, std::string>, std::allocator<char> const&)
	_ZNSsC1IN9__gnu_cxx17__normal_iteratorIPcSsEEEET_S4_RKSaIcE @ 2258
;	std::basic_string<char, std::char_traits<char>, std::allocator<char> >::basic_string<char const*>(char const*, char const*, std::allocator<char> const&)
	_ZNSsC1IPKcEET_S2_RKSaIcE @ 2259
;	std::basic_string<char, std::char_traits<char>, std::allocator<char> >::basic_string<char*>(char*, char*, std::allocator<char> const&)
	_ZNSsC1IPcEET_S1_RKSaIcE @ 2260
;	std::basic_string<char, std::char_traits<char>, std::allocator<char> >::basic_string(std::string&&)
	_ZNSsC2EOSs @ 2261
;	std::basic_string<char, std::char_traits<char>, std::allocator<char> >::basic_string(std::string&&, std::allocator<char> const&)
	_ZNSsC2EOSsRKSaIcE @ 2262
;	std::basic_string<char, std::char_traits<char>, std::allocator<char> >::basic_string(char const*, std::allocator<char> const&)
	_ZNSsC2EPKcRKSaIcE @ 2263
;	std::basic_string<char, std::char_traits<char>, std::allocator<char> >::basic_string(char const*, unsigned long long, std::allocator<char> const&)
	_ZNSsC2EPKcyRKSaIcE @ 2264
;	std::basic_string<char, std::char_traits<char>, std::allocator<char> >::basic_string(std::allocator<char> const&)
	_ZNSsC2ERKSaIcE @ 2265
;	std::basic_string<char, std::char_traits<char>, std::allocator<char> >::basic_string(std::string const&)
	_ZNSsC2ERKSs @ 2266
;	std::basic_string<char, std::char_traits<char>, std::allocator<char> >::basic_string(std::string const&, std::allocator<char> const&)
	_ZNSsC2ERKSsRKSaIcE @ 2267
;	std::basic_string<char, std::char_traits<char>, std::allocator<char> >::basic_string(std::string const&, unsigned long long, std::allocator<char> const&)
	_ZNSsC2ERKSsyRKSaIcE @ 2268
;	std::basic_string<char, std::char_traits<char>, std::allocator<char> >::basic_string(std::string const&, unsigned long long, unsigned long long)
	_ZNSsC2ERKSsyy @ 2269
;	std::basic_string<char, std::char_traits<char>, std::allocator<char> >::basic_string(std::string const&, unsigned long long, unsigned long long, std::allocator<char> const&)
	_ZNSsC2ERKSsyyRKSaIcE @ 2270
;	std::basic_string<char, std::char_traits<char>, std::allocator<char> >::basic_string(std::initializer_list<char>, std::allocator<char> const&)
	_ZNSsC2ESt16initializer_listIcERKSaIcE @ 2271
;	std::basic_string<char, std::char_traits<char>, std::allocator<char> >::basic_string()
	_ZNSsC2Ev @ 2272
;	std::basic_string<char, std::char_traits<char>, std::allocator<char> >::basic_string(unsigned long long, char, std::allocator<char> const&)
	_ZNSsC2EycRKSaIcE @ 2273
;	std::basic_string<char, std::char_traits<char>, std::allocator<char> >::basic_string<__gnu_cxx::__normal_iterator<char*, std::string> >(__gnu_cxx::__normal_iterator<char*, std::string>, __gnu_cxx::__normal_iterator<char*, std::string>, std::allocator<char> const&)
	_ZNSsC2IN9__gnu_cxx17__normal_iteratorIPcSsEEEET_S4_RKSaIcE @ 2274
;	std::basic_string<char, std::char_traits<char>, std::allocator<char> >::basic_string<char const*>(char const*, char const*, std::allocator<char> const&)
	_ZNSsC2IPKcEET_S2_RKSaIcE @ 2275
;	std::basic_string<char, std::char_traits<char>, std::allocator<char> >::basic_string<char*>(char*, char*, std::allocator<char> const&)
	_ZNSsC2IPcEET_S1_RKSaIcE @ 2276
;	std::basic_string<char, std::char_traits<char>, std::allocator<char> >::~basic_string()
	_ZNSsD1Ev @ 2277
;	std::basic_string<char, std::char_traits<char>, std::allocator<char> >::~basic_string()
	_ZNSsD2Ev @ 2278
;	std::string::operator=(std::string&&)
	_ZNSsaSEOSs @ 2279
;	std::string::operator=(char const*)
	_ZNSsaSEPKc @ 2280
;	std::string::operator=(std::string const&)
	_ZNSsaSERKSs @ 2281
;	std::string::operator=(std::initializer_list<char>)
	_ZNSsaSESt16initializer_listIcE @ 2282
;	std::string::operator=(char)
	_ZNSsaSEc @ 2283
;	std::string::operator[](unsigned long long)
	_ZNSsixEy @ 2284
;	std::string::operator+=(char const*)
	_ZNSspLEPKc @ 2285
;	std::string::operator+=(std::string const&)
	_ZNSspLERKSs @ 2286
;	std::string::operator+=(std::initializer_list<char>)
	_ZNSspLESt16initializer_listIcE @ 2287
;	std::string::operator+=(char)
	_ZNSspLEc @ 2288
;	std::_Hashtable<std::thread::id, std::pair<std::thread::id const, std::unique_ptr<stan::math::AutodiffStackSingleton<stan::math::vari_base, stan::math::chainable_alloc>, std::default_delete<stan::math::AutodiffStackSingleton<stan::math::vari_base, stan::math::chainable_alloc> > > >, std::allocator<std::pair<std::thread::id const, std::unique_ptr<stan::math::AutodiffStackSingleton<stan::math::vari_base, stan::math::chainable_alloc>, std::default_delete<stan::math::AutodiffStackSingleton<stan::math::vari_base, stan::math::chainable_alloc> > > > >, std::__detail::_Select1st, std::equal_to<std::thread::id>, std::hash<std::thread::id>, std::__detail::_Mod_range_hashing, std::__detail::_Default_ranged_hash, std::__detail::_Prime_rehash_policy, std::__detail::_Hashtable_traits<false, false, true> >::_Scoped_node::~_Scoped_node()
	_ZNSt10_HashtableINSt6thread2idESt4pairIKS1_St10unique_ptrIN4stan4math22AutodiffStackSingletonINS6_9vari_baseENS6_15chainable_allocEEESt14default_deleteISA_EEESaISE_ENSt8__detail10_Select1stESt8equal_toIS1_ESt4hashIS1_ENSG_18_Mod_range_hashingENSG_20_Default_ranged_hashENSG_20_Prime_rehash_policyENSG_17_Hashtable_traitsILb0ELb0ELb1EEEE12_Scoped_nodeD1Ev @ 2289
;	std::_Hashtable<std::thread::id, std::pair<std::thread::id const, std::unique_ptr<stan::math::AutodiffStackSingleton<stan::math::vari_base, stan::math::chainable_alloc>, std::default_delete<stan::math::AutodiffStackSingleton<stan::math::vari_base, stan::math::chainable_alloc> > > >, std::allocator<std::pair<std::thread::id const, std::unique_ptr<stan::math::AutodiffStackSingleton<stan::math::vari_base, stan::math::chainable_alloc>, std::default_delete<stan::math::AutodiffStackSingleton<stan::math::vari_base, stan::math::chainable_alloc> > > > >, std::__detail::_Select1st, std::equal_to<std::thread::id>, std::hash<std::thread::id>, std::__detail::_Mod_range_hashing, std::__detail::_Default_ranged_hash, std::__detail::_Prime_rehash_policy, std::__detail::_Hashtable_traits<false, false, true> >::find(std::thread::id const&)
	_ZNSt10_HashtableINSt6thread2idESt4pairIKS1_St10unique_ptrIN4stan4math22AutodiffStackSingletonINS6_9vari_baseENS6_15chainable_allocEEESt14default_deleteISA_EEESaISE_ENSt8__detail10_Select1stESt8equal_toIS1_ESt4hashIS1_ENSG_18_Mod_range_hashingENSG_20_Default_ranged_hashENSG_20_Prime_rehash_policyENSG_17_Hashtable_traitsILb0ELb0ELb1EEEE4findERS3_ @ 2290
;	std::_Hashtable<std::thread::id, std::pair<std::thread::id const, std::unique_ptr<stan::math::AutodiffStackSingleton<stan::math::vari_base, stan::math::chainable_alloc>, std::default_delete<stan::math::AutodiffStackSingleton<stan::math::vari_base, stan::math::chainable_alloc> > > >, std::allocator<std::pair<std::thread::id const, std::unique_ptr<stan::math::AutodiffStackSingleton<stan::math::vari_base, stan::math::chainable_alloc>, std::default_delete<stan::math::AutodiffStackSingleton<stan::math::vari_base, stan::math::chainable_alloc> > > > >, std::__detail::_Select1st, std::equal_to<std::thread::id>, std::hash<std::thread::id>, std::__detail::_Mod_range_hashing, std::__detail::_Default_ranged_hash, std::__detail::_Prime_rehash_policy, std::__detail::_Hashtable_traits<false, false, true> >::clear()
	_ZNSt10_HashtableINSt6thread2idESt4pairIKS1_St10unique_ptrIN4stan4math22AutodiffStackSingletonINS6_9vari_baseENS6_15chainable_allocEEESt14default_deleteISA_EEESaISE_ENSt8__detail10_Select1stESt8equal_toIS1_ESt4hashIS1_ENSG_18_Mod_range_hashingENSG_20_Default_ranged_hashENSG_20_Prime_rehash_policyENSG_17_Hashtable_traitsILb0ELb0ELb1EEEE5clearEv @ 2291
;	std::_Hashtable<std::thread::id, std::pair<std::thread::id const, std::unique_ptr<stan::math::AutodiffStackSingleton<stan::math::vari_base, stan::math::chainable_alloc>, std::default_delete<stan::math::AutodiffStackSingleton<stan::math::vari_base, stan::math::chainable_alloc> > > >, std::allocator<std::pair<std::thread::id const, std::unique_ptr<stan::math::AutodiffStackSingleton<stan::math::vari_base, stan::math::chainable_alloc>, std::default_delete<stan::math::AutodiffStackSingleton<stan::math::vari_base, stan::math::chainable_alloc> > > > >, std::__detail::_Select1st, std::equal_to<std::thread::id>, std::hash<std::thread::id>, std::__detail::_Mod_range_hashing, std::__detail::_Default_ranged_hash, std::__detail::_Prime_rehash_policy, std::__detail::_Hashtable_traits<false, false, true> >::_M_rehash(unsigned long long, unsigned long long const&)
	_ZNSt10_HashtableINSt6thread2idESt4pairIKS1_St10unique_ptrIN4stan4math22AutodiffStackSingletonINS6_9vari_baseENS6_15chainable_allocEEESt14default_deleteISA_EEESaISE_ENSt8__detail10_Select1stESt8equal_toIS1_ESt4hashIS1_ENSG_18_Mod_range_hashingENSG_20_Default_ranged_hashENSG_20_Prime_rehash_policyENSG_17_Hashtable_traitsILb0ELb0ELb1EEEE9_M_rehashEyRKy @ 2292
;	std::__num_base::_S_atoms_in
	_ZNSt10__num_base11_S_atoms_inE @ 2293 DATA
;	std::__num_base::_S_atoms_out
	_ZNSt10__num_base12_S_atoms_outE @ 2294 DATA
;	std::__num_base::_S_format_float(std::ios_base const&, char*, char)
	_ZNSt10__num_base15_S_format_floatERKSt8ios_basePcc @ 2295
;	std::bad_typeid::~bad_typeid()
	_ZNSt10bad_typeidD0Ev @ 2296
;	std::bad_typeid::~bad_typeid()
	_ZNSt10bad_typeidD1Ev @ 2297
;	std::bad_typeid::~bad_typeid()
	_ZNSt10bad_typeidD2Ev @ 2298
;	std::ctype_base::alnum
	_ZNSt10ctype_base5alnumE @ 2299 DATA
;	std::ctype_base::alpha
	_ZNSt10ctype_base5alphaE @ 2300 DATA
;	std::ctype_base::blank
	_ZNSt10ctype_base5blankE @ 2301 DATA
;	std::ctype_base::cntrl
	_ZNSt10ctype_base5cntrlE @ 2302 DATA
;	std::ctype_base::digit
	_ZNSt10ctype_base5digitE @ 2303 DATA
;	std::ctype_base::graph
	_ZNSt10ctype_base5graphE @ 2304 DATA
;	std::ctype_base::lower
	_ZNSt10ctype_base5lowerE @ 2305 DATA
;	std::ctype_base::print
	_ZNSt10ctype_base5printE @ 2306 DATA
;	std::ctype_base::punct
	_ZNSt10ctype_base5punctE @ 2307 DATA
;	std::ctype_base::space
	_ZNSt10ctype_base5spaceE @ 2308 DATA
;	std::ctype_base::upper
	_ZNSt10ctype_base5upperE @ 2309 DATA
;	std::ctype_base::xdigit
	_ZNSt10ctype_base6xdigitE @ 2310 DATA
;	std::money_base::_S_default_pattern
	_ZNSt10money_base18_S_default_patternE @ 2311 DATA
;	std::money_base::_S_construct_pattern(char, char, char)
	_ZNSt10money_base20_S_construct_patternEccc @ 2312
;	std::money_base::_S_atoms
	_ZNSt10money_base8_S_atomsE @ 2313 DATA
;	std::moneypunct<char, false>::_M_initialize_moneypunct(int*, char const*)
	_ZNSt10moneypunctIcLb0EE24_M_initialize_moneypunctEPiPKc @ 2314
;	std::moneypunct<char, false>::id
	_ZNSt10moneypunctIcLb0EE2idE @ 2315 DATA
;	std::moneypunct<char, false>::intl
	_ZNSt10moneypunctIcLb0EE4intlE @ 2316 DATA
;	std::moneypunct<char, false>::moneypunct(std::__moneypunct_cache<char, false>*, unsigned long long)
	_ZNSt10moneypunctIcLb0EEC1EPSt18__moneypunct_cacheIcLb0EEy @ 2317
;	std::moneypunct<char, false>::moneypunct(int*, char const*, unsigned long long)
	_ZNSt10moneypunctIcLb0EEC1EPiPKcy @ 2318
;	std::moneypunct<char, false>::moneypunct(unsigned long long)
	_ZNSt10moneypunctIcLb0EEC1Ey @ 2319
;	std::moneypunct<char, false>::moneypunct(std::__moneypunct_cache<char, false>*, unsigned long long)
	_ZNSt10moneypunctIcLb0EEC2EPSt18__moneypunct_cacheIcLb0EEy @ 2320
;	std::moneypunct<char, false>::moneypunct(int*, char const*, unsigned long long)
	_ZNSt10moneypunctIcLb0EEC2EPiPKcy @ 2321
;	std::moneypunct<char, false>::moneypunct(unsigned long long)
	_ZNSt10moneypunctIcLb0EEC2Ey @ 2322
;	std::moneypunct<char, false>::~moneypunct()
	_ZNSt10moneypunctIcLb0EED0Ev @ 2323
;	std::moneypunct<char, false>::~moneypunct()
	_ZNSt10moneypunctIcLb0EED1Ev @ 2324
;	std::moneypunct<char, false>::~moneypunct()
	_ZNSt10moneypunctIcLb0EED2Ev @ 2325
;	std::moneypunct<char, true>::_M_initialize_moneypunct(int*, char const*)
	_ZNSt10moneypunctIcLb1EE24_M_initialize_moneypunctEPiPKc @ 2326
;	std::moneypunct<char, true>::id
	_ZNSt10moneypunctIcLb1EE2idE @ 2327 DATA
;	std::moneypunct<char, true>::intl
	_ZNSt10moneypunctIcLb1EE4intlE @ 2328 DATA
;	std::moneypunct<char, true>::moneypunct(std::__moneypunct_cache<char, true>*, unsigned long long)
	_ZNSt10moneypunctIcLb1EEC1EPSt18__moneypunct_cacheIcLb1EEy @ 2329
;	std::moneypunct<char, true>::moneypunct(int*, char const*, unsigned long long)
	_ZNSt10moneypunctIcLb1EEC1EPiPKcy @ 2330
;	std::moneypunct<char, true>::moneypunct(unsigned long long)
	_ZNSt10moneypunctIcLb1EEC1Ey @ 2331
;	std::moneypunct<char, true>::moneypunct(std::__moneypunct_cache<char, true>*, unsigned long long)
	_ZNSt10moneypunctIcLb1EEC2EPSt18__moneypunct_cacheIcLb1EEy @ 2332
;	std::moneypunct<char, true>::moneypunct(int*, char const*, unsigned long long)
	_ZNSt10moneypunctIcLb1EEC2EPiPKcy @ 2333
;	std::moneypunct<char, true>::moneypunct(unsigned long long)
	_ZNSt10moneypunctIcLb1EEC2Ey @ 2334
;	std::moneypunct<char, true>::~moneypunct()
	_ZNSt10moneypunctIcLb1EED0Ev @ 2335
;	std::moneypunct<char, true>::~moneypunct()
	_ZNSt10moneypunctIcLb1EED1Ev @ 2336
;	std::moneypunct<char, true>::~moneypunct()
	_ZNSt10moneypunctIcLb1EED2Ev @ 2337
;	std::moneypunct<wchar_t, false>::_M_initialize_moneypunct(int*, char const*)
	_ZNSt10moneypunctIwLb0EE24_M_initialize_moneypunctEPiPKc @ 2338
;	std::moneypunct<wchar_t, false>::id
	_ZNSt10moneypunctIwLb0EE2idE @ 2339 DATA
;	std::moneypunct<wchar_t, false>::intl
	_ZNSt10moneypunctIwLb0EE4intlE @ 2340 DATA
;	std::moneypunct<wchar_t, false>::moneypunct(std::__moneypunct_cache<wchar_t, false>*, unsigned long long)
	_ZNSt10moneypunctIwLb0EEC1EPSt18__moneypunct_cacheIwLb0EEy @ 2341
;	std::moneypunct<wchar_t, false>::moneypunct(int*, char const*, unsigned long long)
	_ZNSt10moneypunctIwLb0EEC1EPiPKcy @ 2342
;	std::moneypunct<wchar_t, false>::moneypunct(unsigned long long)
	_ZNSt10moneypunctIwLb0EEC1Ey @ 2343
;	std::moneypunct<wchar_t, false>::moneypunct(std::__moneypunct_cache<wchar_t, false>*, unsigned long long)
	_ZNSt10moneypunctIwLb0EEC2EPSt18__moneypunct_cacheIwLb0EEy @ 2344
;	std::moneypunct<wchar_t, false>::moneypunct(int*, char const*, unsigned long long)
	_ZNSt10moneypunctIwLb0EEC2EPiPKcy @ 2345
;	std::moneypunct<wchar_t, false>::moneypunct(unsigned long long)
	_ZNSt10moneypunctIwLb0EEC2Ey @ 2346
;	std::moneypunct<wchar_t, false>::~moneypunct()
	_ZNSt10moneypunctIwLb0EED0Ev @ 2347
;	std::moneypunct<wchar_t, false>::~moneypunct()
	_ZNSt10moneypunctIwLb0EED1Ev @ 2348
;	std::moneypunct<wchar_t, false>::~moneypunct()
	_ZNSt10moneypunctIwLb0EED2Ev @ 2349
;	std::moneypunct<wchar_t, true>::_M_initialize_moneypunct(int*, char const*)
	_ZNSt10moneypunctIwLb1EE24_M_initialize_moneypunctEPiPKc @ 2350
;	std::moneypunct<wchar_t, true>::id
	_ZNSt10moneypunctIwLb1EE2idE @ 2351 DATA
;	std::moneypunct<wchar_t, true>::intl
	_ZNSt10moneypunctIwLb1EE4intlE @ 2352 DATA
;	std::moneypunct<wchar_t, true>::moneypunct(std::__moneypunct_cache<wchar_t, true>*, unsigned long long)
	_ZNSt10moneypunctIwLb1EEC1EPSt18__moneypunct_cacheIwLb1EEy @ 2353
;	std::moneypunct<wchar_t, true>::moneypunct(int*, char const*, unsigned long long)
	_ZNSt10moneypunctIwLb1EEC1EPiPKcy @ 2354
;	std::moneypunct<wchar_t, true>::moneypunct(unsigned long long)
	_ZNSt10moneypunctIwLb1EEC1Ey @ 2355
;	std::moneypunct<wchar_t, true>::moneypunct(std::__moneypunct_cache<wchar_t, true>*, unsigned long long)
	_ZNSt10moneypunctIwLb1EEC2EPSt18__moneypunct_cacheIwLb1EEy @ 2356
;	std::moneypunct<wchar_t, true>::moneypunct(int*, char const*, unsigned long long)
	_ZNSt10moneypunctIwLb1EEC2EPiPKcy @ 2357
;	std::moneypunct<wchar_t, true>::moneypunct(unsigned long long)
	_ZNSt10moneypunctIwLb1EEC2Ey @ 2358
;	std::moneypunct<wchar_t, true>::~moneypunct()
	_ZNSt10moneypunctIwLb1EED0Ev @ 2359
;	std::moneypunct<wchar_t, true>::~moneypunct()
	_ZNSt10moneypunctIwLb1EED1Ev @ 2360
;	std::moneypunct<wchar_t, true>::~moneypunct()
	_ZNSt10moneypunctIwLb1EED2Ev @ 2361
;	std::__timepunct<char>::_M_initialize_timepunct(int*)
	_ZNSt11__timepunctIcE23_M_initialize_timepunctEPi @ 2362
;	std::__timepunct<char>::id
	_ZNSt11__timepunctIcE2idE @ 2363 DATA
;	std::__timepunct<char>::__timepunct(std::__timepunct_cache<char>*, unsigned long long)
	_ZNSt11__timepunctIcEC1EPSt17__timepunct_cacheIcEy @ 2364
;	std::__timepunct<char>::__timepunct(int*, char const*, unsigned long long)
	_ZNSt11__timepunctIcEC1EPiPKcy @ 2365
;	std::__timepunct<char>::__timepunct(unsigned long long)
	_ZNSt11__timepunctIcEC1Ey @ 2366
;	std::__timepunct<char>::__timepunct(std::__timepunct_cache<char>*, unsigned long long)
	_ZNSt11__timepunctIcEC2EPSt17__timepunct_cacheIcEy @ 2367
;	std::__timepunct<char>::__timepunct(int*, char const*, unsigned long long)
	_ZNSt11__timepunctIcEC2EPiPKcy @ 2368
;	std::__timepunct<char>::__timepunct(unsigned long long)
	_ZNSt11__timepunctIcEC2Ey @ 2369
;	std::__timepunct<char>::~__timepunct()
	_ZNSt11__timepunctIcED0Ev @ 2370
;	std::__timepunct<char>::~__timepunct()
	_ZNSt11__timepunctIcED1Ev @ 2371
;	std::__timepunct<char>::~__timepunct()
	_ZNSt11__timepunctIcED2Ev @ 2372
;	std::__timepunct<wchar_t>::_M_initialize_timepunct(int*)
	_ZNSt11__timepunctIwE23_M_initialize_timepunctEPi @ 2373
;	std::__timepunct<wchar_t>::id
	_ZNSt11__timepunctIwE2idE @ 2374 DATA
;	std::__timepunct<wchar_t>::__timepunct(std::__timepunct_cache<wchar_t>*, unsigned long long)
	_ZNSt11__timepunctIwEC1EPSt17__timepunct_cacheIwEy @ 2375
;	std::__timepunct<wchar_t>::__timepunct(int*, char const*, unsigned long long)
	_ZNSt11__timepunctIwEC1EPiPKcy @ 2376
;	std::__timepunct<wchar_t>::__timepunct(unsigned long long)
	_ZNSt11__timepunctIwEC1Ey @ 2377
;	std::__timepunct<wchar_t>::__timepunct(std::__timepunct_cache<wchar_t>*, unsigned long long)
	_ZNSt11__timepunctIwEC2EPSt17__timepunct_cacheIwEy @ 2378
;	std::__timepunct<wchar_t>::__timepunct(int*, char const*, unsigned long long)
	_ZNSt11__timepunctIwEC2EPiPKcy @ 2379
;	std::__timepunct<wchar_t>::__timepunct(unsigned long long)
	_ZNSt11__timepunctIwEC2Ey @ 2380
;	std::__timepunct<wchar_t>::~__timepunct()
	_ZNSt11__timepunctIwED0Ev @ 2381
;	std::__timepunct<wchar_t>::~__timepunct()
	_ZNSt11__timepunctIwED1Ev @ 2382
;	std::__timepunct<wchar_t>::~__timepunct()
	_ZNSt11__timepunctIwED2Ev @ 2383
;	std::logic_error::logic_error(std::logic_error&&)
	_ZNSt11logic_errorC1EOS_ @ 2384
;	std::logic_error::logic_error(char const*)
	_ZNSt11logic_errorC1EPKc @ 2385
;	std::logic_error::logic_error(std::__cxx11::basic_string<char, std::char_traits<char>, std::allocator<char> > const&)
	_ZNSt11logic_errorC1ERKNSt7__cxx1112basic_stringIcSt11char_traitsIcESaIcEEE @ 2386
;	std::logic_error::logic_error(std::logic_error const&)
	_ZNSt11logic_errorC1ERKS_ @ 2387
;	std::logic_error::logic_error(std::string const&)
	_ZNSt11logic_errorC1ERKSs @ 2388
;	std::logic_error::logic_error(std::logic_error&&)
	_ZNSt11logic_errorC2EOS_ @ 2389
;	std::logic_error::logic_error(char const*)
	_ZNSt11logic_errorC2EPKc @ 2390
;	std::logic_error::logic_error(std::__cxx11::basic_string<char, std::char_traits<char>, std::allocator<char> > const&)
	_ZNSt11logic_errorC2ERKNSt7__cxx1112basic_stringIcSt11char_traitsIcESaIcEEE @ 2391
;	std::logic_error::logic_error(std::logic_error const&)
	_ZNSt11logic_errorC2ERKS_ @ 2392
;	std::logic_error::logic_error(std::string const&)
	_ZNSt11logic_errorC2ERKSs @ 2393
;	std::logic_error::~logic_error()
	_ZNSt11logic_errorD0Ev @ 2394
;	std::logic_error::~logic_error()
	_ZNSt11logic_errorD1Ev @ 2395
;	std::logic_error::~logic_error()
	_ZNSt11logic_errorD2Ev @ 2396
;	std::logic_error::operator=(std::logic_error&&)
	_ZNSt11logic_erroraSEOS_ @ 2397
;	std::logic_error::operator=(std::logic_error const&)
	_ZNSt11logic_erroraSERKS_ @ 2398
;	std::range_error::range_error(char const*)
	_ZNSt11range_errorC1EPKc @ 2399
;	std::range_error::range_error(std::__cxx11::basic_string<char, std::char_traits<char>, std::allocator<char> > const&)
	_ZNSt11range_errorC1ERKNSt7__cxx1112basic_stringIcSt11char_traitsIcESaIcEEE @ 2400
;	std::range_error::range_error(std::string const&)
	_ZNSt11range_errorC1ERKSs @ 2401
;	std::range_error::range_error(char const*)
	_ZNSt11range_errorC2EPKc @ 2402
;	std::range_error::range_error(std::__cxx11::basic_string<char, std::char_traits<char>, std::allocator<char> > const&)
	_ZNSt11range_errorC2ERKNSt7__cxx1112basic_stringIcSt11char_traitsIcESaIcEEE @ 2403
;	std::range_error::range_error(std::string const&)
	_ZNSt11range_errorC2ERKSs @ 2404
;	std::range_error::~range_error()
	_ZNSt11range_errorD0Ev @ 2405
;	std::range_error::~range_error()
	_ZNSt11range_errorD1Ev @ 2406
;	std::range_error::~range_error()
	_ZNSt11range_errorD2Ev @ 2407
;	std::_Vector_base<stan::math::chainable_alloc*, std::allocator<stan::math::chainable_alloc*> >::~_Vector_base()
	_ZNSt12_Vector_baseIPN4stan4math15chainable_allocESaIS3_EED2Ev @ 2408
;	std::_Vector_base<stan::math::vari_base*, std::allocator<stan::math::vari_base*> >::~_Vector_base()
	_ZNSt12_Vector_baseIPN4stan4math9vari_baseESaIS3_EED2Ev @ 2409
;	std::__basic_file<char>::fd()
	_ZNSt12__basic_fileIcE2fdEv @ 2410
;	std::__basic_file<char>::file()
	_ZNSt12__basic_fileIcE4fileEv @ 2411
;	std::__basic_file<char>::open(char const*, std::_Ios_Openmode, int)
	_ZNSt12__basic_fileIcE4openEPKcSt13_Ios_Openmodei @ 2412
;	std::__basic_file<char>::open(wchar_t const*, std::_Ios_Openmode)
	_ZNSt12__basic_fileIcE4openEPKwSt13_Ios_Openmode @ 2413
;	std::__basic_file<char>::sync()
	_ZNSt12__basic_fileIcE4syncEv @ 2414
;	std::__basic_file<char>::close()
	_ZNSt12__basic_fileIcE5closeEv @ 2415
;	std::__basic_file<char>::xsgetn(char*, long long)
	_ZNSt12__basic_fileIcE6xsgetnEPcx @ 2416
;	std::__basic_file<char>::xsputn(char const*, long long)
	_ZNSt12__basic_fileIcE6xsputnEPKcx @ 2417
;	std::__basic_file<char>::seekoff(long long, std::_Ios_Seekdir)
	_ZNSt12__basic_fileIcE7seekoffExSt12_Ios_Seekdir @ 2418
;	std::__basic_file<char>::sys_open(_iobuf*, std::_Ios_Openmode)
	_ZNSt12__basic_fileIcE8sys_openEP6_iobufSt13_Ios_Openmode @ 2419
;	std::__basic_file<char>::sys_open(int, std::_Ios_Openmode)
	_ZNSt12__basic_fileIcE8sys_openEiSt13_Ios_Openmode @ 2420
;	std::__basic_file<char>::xsputn_2(char const*, long long, char const*, long long)
	_ZNSt12__basic_fileIcE8xsputn_2EPKcxS2_x @ 2421
;	std::__basic_file<char>::showmanyc()
	_ZNSt12__basic_fileIcE9showmanycEv @ 2422
;	std::__basic_file<char>::__basic_file(long long*)
	_ZNSt12__basic_fileIcEC1EPx @ 2423
;	std::__basic_file<char>::__basic_file(long long*)
	_ZNSt12__basic_fileIcEC2EPx @ 2424
;	std::__basic_file<char>::~__basic_file()
	_ZNSt12__basic_fileIcED1Ev @ 2425
;	std::__basic_file<char>::~__basic_file()
	_ZNSt12__basic_fileIcED2Ev @ 2426
;	std::__cow_string::__cow_string(std::__cow_string&&)
	_ZNSt12__cow_stringC1EOS_ @ 2427
;	std::__cow_string::__cow_string(char const*, unsigned long long)
	_ZNSt12__cow_stringC1EPKcy @ 2428
;	std::__cow_string::__cow_string(std::__cxx11::basic_string<char, std::char_traits<char>, std::allocator<char> > const&)
	_ZNSt12__cow_stringC1ERKNSt7__cxx1112basic_stringIcSt11char_traitsIcESaIcEEE @ 2429
;	std::__cow_string::__cow_string(std::__cow_string const&)
	_ZNSt12__cow_stringC1ERKS_ @ 2430
;	std::__cow_string::__cow_string(std::string const&)
	_ZNSt12__cow_stringC1ERKSs @ 2431
;	std::__cow_string::__cow_string()
	_ZNSt12__cow_stringC1Ev @ 2432
;	std::__cow_string::__cow_string(std::__cow_string&&)
	_ZNSt12__cow_stringC2EOS_ @ 2433
;	std::__cow_string::__cow_string(char const*, unsigned long long)
	_ZNSt12__cow_stringC2EPKcy @ 2434
;	std::__cow_string::__cow_string(std::__cxx11::basic_string<char, std::char_traits<char>, std::allocator<char> > const&)
	_ZNSt12__cow_stringC2ERKNSt7__cxx1112basic_stringIcSt11char_traitsIcESaIcEEE @ 2435
;	std::__cow_string::__cow_string(std::__cow_string const&)
	_ZNSt12__cow_stringC2ERKS_ @ 2436
;	std::__cow_string::__cow_string(std::string const&)
	_ZNSt12__cow_stringC2ERKSs @ 2437
;	std::__cow_string::__cow_string()
	_ZNSt12__cow_stringC2Ev @ 2438
;	std::__cow_string::~__cow_string()
	_ZNSt12__cow_stringD1Ev @ 2439
;	std::__cow_string::~__cow_string()
	_ZNSt12__cow_stringD2Ev @ 2440
;	std::__cow_string::operator=(std::__cow_string&&)
	_ZNSt12__cow_stringaSEOS_ @ 2441
;	std::__cow_string::operator=(std::__cow_string const&)
	_ZNSt12__cow_stringaSERKS_ @ 2442
;	std::__sso_string::__sso_string(std::__sso_string&&)
	_ZNSt12__sso_stringC1EOS_ @ 2443
;	std::__sso_string::__sso_string(char const*, unsigned long long)
	_ZNSt12__sso_stringC1EPKcy @ 2444
;	std::__sso_string::__sso_string(std::__cxx11::basic_string<char, std::char_traits<char>, std::allocator<char> > const&)
	_ZNSt12__sso_stringC1ERKNSt7__cxx1112basic_stringIcSt11char_traitsIcESaIcEEE @ 2445
;	std::__sso_string::__sso_string(std::__sso_string const&)
	_ZNSt12__sso_stringC1ERKS_ @ 2446
;	std::__sso_string::__sso_string(std::string const&)
	_ZNSt12__sso_stringC1ERKSs @ 2447
;	std::__sso_string::__sso_string()
	_ZNSt12__sso_stringC1Ev @ 2448
;	std::__sso_string::__sso_string(std::__sso_string&&)
	_ZNSt12__sso_stringC2EOS_ @ 2449
;	std::__sso_string::__sso_string(char const*, unsigned long long)
	_ZNSt12__sso_stringC2EPKcy @ 2450
;	std::__sso_string::__sso_string(std::__cxx11::basic_string<char, std::char_traits<char>, std::allocator<char> > const&)
	_ZNSt12__sso_stringC2ERKNSt7__cxx1112basic_stringIcSt11char_traitsIcESaIcEEE @ 2451
;	std::__sso_string::__sso_string(std::__sso_string const&)
	_ZNSt12__sso_stringC2ERKS_ @ 2452
;	std::__sso_string::__sso_string(std::string const&)
	_ZNSt12__sso_stringC2ERKSs @ 2453
;	std::__sso_string::__sso_string()
	_ZNSt12__sso_stringC2Ev @ 2454
;	std::__sso_string::~__sso_string()
	_ZNSt12__sso_stringD1Ev @ 2455
;	std::__sso_string::~__sso_string()
	_ZNSt12__sso_stringD2Ev @ 2456
;	std::__sso_string::operator=(std::__sso_string&&)
	_ZNSt12__sso_stringaSEOS_ @ 2457
;	std::__sso_string::operator=(std::__sso_string const&)
	_ZNSt12__sso_stringaSERKS_ @ 2458
;	std::ctype_byname<char>::ctype_byname(char const*, unsigned long long)
	_ZNSt12ctype_bynameIcEC1EPKcy @ 2459
;	std::ctype_byname<char>::ctype_byname(std::__cxx11::basic_string<char, std::char_traits<char>, std::allocator<char> > const&, unsigned long long)
	_ZNSt12ctype_bynameIcEC1ERKNSt7__cxx1112basic_stringIcSt11char_traitsIcESaIcEEEy @ 2460
;	std::ctype_byname<char>::ctype_byname(std::string const&, unsigned long long)
	_ZNSt12ctype_bynameIcEC1ERKSsy @ 2461
;	std::ctype_byname<char>::ctype_byname(char const*, unsigned long long)
	_ZNSt12ctype_bynameIcEC2EPKcy @ 2462
;	std::ctype_byname<char>::ctype_byname(std::__cxx11::basic_string<char, std::char_traits<char>, std::allocator<char> > const&, unsigned long long)
	_ZNSt12ctype_bynameIcEC2ERKNSt7__cxx1112basic_stringIcSt11char_traitsIcESaIcEEEy @ 2463
;	std::ctype_byname<char>::ctype_byname(std::string const&, unsigned long long)
	_ZNSt12ctype_bynameIcEC2ERKSsy @ 2464
;	std::ctype_byname<char>::~ctype_byname()
	_ZNSt12ctype_bynameIcED0Ev @ 2465
;	std::ctype_byname<char>::~ctype_byname()
	_ZNSt12ctype_bynameIcED1Ev @ 2466
;	std::ctype_byname<char>::~ctype_byname()
	_ZNSt12ctype_bynameIcED2Ev @ 2467
;	std::ctype_byname<wchar_t>::ctype_byname(char const*, unsigned long long)
	_ZNSt12ctype_bynameIwEC1EPKcy @ 2468
;	std::ctype_byname<wchar_t>::ctype_byname(std::__cxx11::basic_string<char, std::char_traits<char>, std::allocator<char> > const&, unsigned long long)
	_ZNSt12ctype_bynameIwEC1ERKNSt7__cxx1112basic_stringIcSt11char_traitsIcESaIcEEEy @ 2469
;	std::ctype_byname<wchar_t>::ctype_byname(std::string const&, unsigned long long)
	_ZNSt12ctype_bynameIwEC1ERKSsy @ 2470
;	std::ctype_byname<wchar_t>::ctype_byname(char const*, unsigned long long)
	_ZNSt12ctype_bynameIwEC2EPKcy @ 2471
;	std::ctype_byname<wchar_t>::ctype_byname(std::__cxx11::basic_string<char, std::char_traits<char>, std::allocator<char> > const&, unsigned long long)
	_ZNSt12ctype_bynameIwEC2ERKNSt7__cxx1112basic_stringIcSt11char_traitsIcESaIcEEEy @ 2472
;	std::ctype_byname<wchar_t>::ctype_byname(std::string const&, unsigned long long)
	_ZNSt12ctype_bynameIwEC2ERKSsy @ 2473
;	std::ctype_byname<wchar_t>::~ctype_byname()
	_ZNSt12ctype_bynameIwED0Ev @ 2474
;	std::ctype_byname<wchar_t>::~ctype_byname()
	_ZNSt12ctype_bynameIwED1Ev @ 2475
;	std::ctype_byname<wchar_t>::~ctype_byname()
	_ZNSt12ctype_bynameIwED2Ev @ 2476
;	std::domain_error::domain_error(char const*)
	_ZNSt12domain_errorC1EPKc @ 2477
;	std::domain_error::domain_error(std::__cxx11::basic_string<char, std::char_traits<char>, std::allocator<char> > const&)
	_ZNSt12domain_errorC1ERKNSt7__cxx1112basic_stringIcSt11char_traitsIcESaIcEEE @ 2478
;	std::domain_error::domain_error(std::string const&)
	_ZNSt12domain_errorC1ERKSs @ 2479
;	std::domain_error::domain_error(char const*)
	_ZNSt12domain_errorC2EPKc @ 2480
;	std::domain_error::domain_error(std::__cxx11::basic_string<char, std::char_traits<char>, std::allocator<char> > const&)
	_ZNSt12domain_errorC2ERKNSt7__cxx1112basic_stringIcSt11char_traitsIcESaIcEEE @ 2481
;	std::domain_error::domain_error(std::string const&)
	_ZNSt12domain_errorC2ERKSs @ 2482
;	std::domain_error::~domain_error()
	_ZNSt12domain_errorD0Ev @ 2483
;	std::domain_error::~domain_error()
	_ZNSt12domain_errorD1Ev @ 2484
;	std::domain_error::~domain_error()
	_ZNSt12domain_errorD2Ev @ 2485
;	std::length_error::length_error(char const*)
	_ZNSt12length_errorC1EPKc @ 2486
;	std::length_error::length_error(std::__cxx11::basic_string<char, std::char_traits<char>, std::allocator<char> > const&)
	_ZNSt12length_errorC1ERKNSt7__cxx1112basic_stringIcSt11char_traitsIcESaIcEEE @ 2487
;	std::length_error::length_error(std::string const&)
	_ZNSt12length_errorC1ERKSs @ 2488
;	std::length_error::length_error(char const*)
	_ZNSt12length_errorC2EPKc @ 2489
;	std::length_error::length_error(std::__cxx11::basic_string<char, std::char_traits<char>, std::allocator<char> > const&)
	_ZNSt12length_errorC2ERKNSt7__cxx1112basic_stringIcSt11char_traitsIcESaIcEEE @ 2490
;	std::length_error::length_error(std::string const&)
	_ZNSt12length_errorC2ERKSs @ 2491
;	std::length_error::~length_error()
	_ZNSt12length_errorD0Ev @ 2492
;	std::length_error::~length_error()
	_ZNSt12length_errorD1Ev @ 2493
;	std::length_error::~length_error()
	_ZNSt12length_errorD2Ev @ 2494
;	std::out_of_range::out_of_range(char const*)
	_ZNSt12out_of_rangeC1EPKc @ 2495
;	std::out_of_range::out_of_range(std::__cxx11::basic_string<char, std::char_traits<char>, std::allocator<char> > const&)
	_ZNSt12out_of_rangeC1ERKNSt7__cxx1112basic_stringIcSt11char_traitsIcESaIcEEE @ 2496
;	std::out_of_range::out_of_range(std::string const&)
	_ZNSt12out_of_rangeC1ERKSs @ 2497
;	std::out_of_range::out_of_range(char const*)
	_ZNSt12out_of_rangeC2EPKc @ 2498
;	std::out_of_range::out_of_range(std::__cxx11::basic_string<char, std::char_traits<char>, std::allocator<char> > const&)
	_ZNSt12out_of_rangeC2ERKNSt7__cxx1112basic_stringIcSt11char_traitsIcESaIcEEE @ 2499
;	std::out_of_range::out_of_range(std::string const&)
	_ZNSt12out_of_rangeC2ERKSs @ 2500
;	std::out_of_range::~out_of_range()
	_ZNSt12out_of_rangeD0Ev @ 2501
;	std::out_of_range::~out_of_range()
	_ZNSt12out_of_rangeD1Ev @ 2502
;	std::out_of_range::~out_of_range()
	_ZNSt12out_of_rangeD2Ev @ 2503
;	std::system_error::system_error(std::error_code, char const*)
	_ZNSt12system_errorC2ESt10error_codePKc @ 2504
;	std::system_error::system_error(std::error_code, std::__cxx11::basic_string<char, std::char_traits<char>, std::allocator<char> > const&)
	_ZNSt12system_errorC2ESt10error_codeRKNSt7__cxx1112basic_stringIcSt11char_traitsIcESaIcEEE @ 2505
;	std::system_error::~system_error()
	_ZNSt12system_errorD0Ev @ 2506
;	std::system_error::~system_error()
	_ZNSt12system_errorD1Ev @ 2507
;	std::system_error::~system_error()
	_ZNSt12system_errorD2Ev @ 2508
;	std::istreambuf_iterator<char, std::char_traits<char> > std::__facet_shims::__time_get<char>(std::integral_constant<bool, false>, std::locale::facet const*, std::istreambuf_iterator<char, std::char_traits<char> >, std::istreambuf_iterator<char, std::char_traits<char> >, std::ios_base&, std::_Ios_Iostate&, tm*, char)
	_ZNSt13__facet_shims10__time_getIcEESt19istreambuf_iteratorIT_St11char_traitsIS2_EESt17integral_constantIbLb0EEPKNSt6locale5facetES5_S5_RSt8ios_baseRSt12_Ios_IostateP2tmc @ 2509
;	std::istreambuf_iterator<char, std::char_traits<char> > std::__facet_shims::__time_get<char>(std::integral_constant<bool, true>, std::locale::facet const*, std::istreambuf_iterator<char, std::char_traits<char> >, std::istreambuf_iterator<char, std::char_traits<char> >, std::ios_base&, std::_Ios_Iostate&, tm*, char)
	_ZNSt13__facet_shims10__time_getIcEESt19istreambuf_iteratorIT_St11char_traitsIS2_EESt17integral_constantIbLb1EEPKNSt6locale5facetES5_S5_RSt8ios_baseRSt12_Ios_IostateP2tmc @ 2510
;	std::istreambuf_iterator<wchar_t, std::char_traits<wchar_t> > std::__facet_shims::__time_get<wchar_t>(std::integral_constant<bool, false>, std::locale::facet const*, std::istreambuf_iterator<wchar_t, std::char_traits<wchar_t> >, std::istreambuf_iterator<wchar_t, std::char_traits<wchar_t> >, std::ios_base&, std::_Ios_Iostate&, tm*, char)
	_ZNSt13__facet_shims10__time_getIwEESt19istreambuf_iteratorIT_St11char_traitsIS2_EESt17integral_constantIbLb0EEPKNSt6locale5facetES5_S5_RSt8ios_baseRSt12_Ios_IostateP2tmc @ 2511
;	std::istreambuf_iterator<wchar_t, std::char_traits<wchar_t> > std::__facet_shims::__time_get<wchar_t>(std::integral_constant<bool, true>, std::locale::facet const*, std::istreambuf_iterator<wchar_t, std::char_traits<wchar_t> >, std::istreambuf_iterator<wchar_t, std::char_traits<wchar_t> >, std::ios_base&, std::_Ios_Iostate&, tm*, char)
	_ZNSt13__facet_shims10__time_getIwEESt19istreambuf_iteratorIT_St11char_traitsIS2_EESt17integral_constantIbLb1EEPKNSt6locale5facetES5_S5_RSt8ios_baseRSt12_Ios_IostateP2tmc @ 2512
;	std::istreambuf_iterator<char, std::char_traits<char> > std::__facet_shims::__money_get<char>(std::integral_constant<bool, false>, std::locale::facet const*, std::istreambuf_iterator<char, std::char_traits<char> >, std::istreambuf_iterator<char, std::char_traits<char> >, bool, std::ios_base&, std::_Ios_Iostate&, long double*, std::__facet_shims::__any_string*)
	_ZNSt13__facet_shims11__money_getIcEESt19istreambuf_iteratorIT_St11char_traitsIS2_EESt17integral_constantIbLb0EEPKNSt6locale5facetES5_S5_bRSt8ios_baseRSt12_Ios_IostatePePNS_12__any_stringE @ 2513
;	std::istreambuf_iterator<char, std::char_traits<char> > std::__facet_shims::__money_get<char>(std::integral_constant<bool, true>, std::locale::facet const*, std::istreambuf_iterator<char, std::char_traits<char> >, std::istreambuf_iterator<char, std::char_traits<char> >, bool, std::ios_base&, std::_Ios_Iostate&, long double*, std::__facet_shims::__any_string*)
	_ZNSt13__facet_shims11__money_getIcEESt19istreambuf_iteratorIT_St11char_traitsIS2_EESt17integral_constantIbLb1EEPKNSt6locale5facetES5_S5_bRSt8ios_baseRSt12_Ios_IostatePePNS_12__any_stringE @ 2514
;	std::istreambuf_iterator<wchar_t, std::char_traits<wchar_t> > std::__facet_shims::__money_get<wchar_t>(std::integral_constant<bool, false>, std::locale::facet const*, std::istreambuf_iterator<wchar_t, std::char_traits<wchar_t> >, std::istreambuf_iterator<wchar_t, std::char_traits<wchar_t> >, bool, std::ios_base&, std::_Ios_Iostate&, long double*, std::__facet_shims::__any_string*)
	_ZNSt13__facet_shims11__money_getIwEESt19istreambuf_iteratorIT_St11char_traitsIS2_EESt17integral_constantIbLb0EEPKNSt6locale5facetES5_S5_bRSt8ios_baseRSt12_Ios_IostatePePNS_12__any_stringE @ 2515
;	std::istreambuf_iterator<wchar_t, std::char_traits<wchar_t> > std::__facet_shims::__money_get<wchar_t>(std::integral_constant<bool, true>, std::locale::facet const*, std::istreambuf_iterator<wchar_t, std::char_traits<wchar_t> >, std::istreambuf_iterator<wchar_t, std::char_traits<wchar_t> >, bool, std::ios_base&, std::_Ios_Iostate&, long double*, std::__facet_shims::__any_string*)
	_ZNSt13__facet_shims11__money_getIwEESt19istreambuf_iteratorIT_St11char_traitsIS2_EESt17integral_constantIbLb1EEPKNSt6locale5facetES5_S5_bRSt8ios_baseRSt12_Ios_IostatePePNS_12__any_stringE @ 2516
;	std::ostreambuf_iterator<char, std::char_traits<char> > std::__facet_shims::__money_put<char>(std::integral_constant<bool, false>, std::locale::facet const*, std::ostreambuf_iterator<char, std::char_traits<char> >, bool, std::ios_base&, char, long double, std::__facet_shims::__any_string const*)
	_ZNSt13__facet_shims11__money_putIcEESt19ostreambuf_iteratorIT_St11char_traitsIS2_EESt17integral_constantIbLb0EEPKNSt6locale5facetES5_bRSt8ios_baseS2_ePKNS_12__any_stringE @ 2517
;	std::ostreambuf_iterator<char, std::char_traits<char> > std::__facet_shims::__money_put<char>(std::integral_constant<bool, true>, std::locale::facet const*, std::ostreambuf_iterator<char, std::char_traits<char> >, bool, std::ios_base&, char, long double, std::__facet_shims::__any_string const*)
	_ZNSt13__facet_shims11__money_putIcEESt19ostreambuf_iteratorIT_St11char_traitsIS2_EESt17integral_constantIbLb1EEPKNSt6locale5facetES5_bRSt8ios_baseS2_ePKNS_12__any_stringE @ 2518
;	std::ostreambuf_iterator<wchar_t, std::char_traits<wchar_t> > std::__facet_shims::__money_put<wchar_t>(std::integral_constant<bool, false>, std::locale::facet const*, std::ostreambuf_iterator<wchar_t, std::char_traits<wchar_t> >, bool, std::ios_base&, wchar_t, long double, std::__facet_shims::__any_string const*)
	_ZNSt13__facet_shims11__money_putIwEESt19ostreambuf_iteratorIT_St11char_traitsIS2_EESt17integral_constantIbLb0EEPKNSt6locale5facetES5_bRSt8ios_baseS2_ePKNS_12__any_stringE @ 2519
;	std::ostreambuf_iterator<wchar_t, std::char_traits<wchar_t> > std::__facet_shims::__money_put<wchar_t>(std::integral_constant<bool, true>, std::locale::facet const*, std::ostreambuf_iterator<wchar_t, std::char_traits<wchar_t> >, bool, std::ios_base&, wchar_t, long double, std::__facet_shims::__any_string const*)
	_ZNSt13__facet_shims11__money_putIwEESt19ostreambuf_iteratorIT_St11char_traitsIS2_EESt17integral_constantIbLb1EEPKNSt6locale5facetES5_bRSt8ios_baseS2_ePKNS_12__any_stringE @ 2520
;	void std::__facet_shims::__messages_get<char>(std::integral_constant<bool, false>, std::locale::facet const*, std::__facet_shims::__any_string&, int, int, int, char const*, unsigned long long)
	_ZNSt13__facet_shims14__messages_getIcEEvSt17integral_constantIbLb0EEPKNSt6locale5facetERNS_12__any_stringEiiiPKT_y @ 2521
;	void std::__facet_shims::__messages_get<char>(std::integral_constant<bool, true>, std::locale::facet const*, std::__facet_shims::__any_string&, int, int, int, char const*, unsigned long long)
	_ZNSt13__facet_shims14__messages_getIcEEvSt17integral_constantIbLb1EEPKNSt6locale5facetERNS_12__any_stringEiiiPKT_y @ 2522
;	void std::__facet_shims::__messages_get<wchar_t>(std::integral_constant<bool, false>, std::locale::facet const*, std::__facet_shims::__any_string&, int, int, int, wchar_t const*, unsigned long long)
	_ZNSt13__facet_shims14__messages_getIwEEvSt17integral_constantIbLb0EEPKNSt6locale5facetERNS_12__any_stringEiiiPKT_y @ 2523
;	void std::__facet_shims::__messages_get<wchar_t>(std::integral_constant<bool, true>, std::locale::facet const*, std::__facet_shims::__any_string&, int, int, int, wchar_t const*, unsigned long long)
	_ZNSt13__facet_shims14__messages_getIwEEvSt17integral_constantIbLb1EEPKNSt6locale5facetERNS_12__any_stringEiiiPKT_y @ 2524
;	int std::__facet_shims::__messages_open<char>(std::integral_constant<bool, false>, std::locale::facet const*, char const*, unsigned long long, std::locale const&)
	_ZNSt13__facet_shims15__messages_openIcEEiSt17integral_constantIbLb0EEPKNSt6locale5facetEPKcyRKS3_ @ 2525
;	int std::__facet_shims::__messages_open<char>(std::integral_constant<bool, true>, std::locale::facet const*, char const*, unsigned long long, std::locale const&)
	_ZNSt13__facet_shims15__messages_openIcEEiSt17integral_constantIbLb1EEPKNSt6locale5facetEPKcyRKS3_ @ 2526
;	int std::__facet_shims::__messages_open<wchar_t>(std::integral_constant<bool, false>, std::locale::facet const*, char const*, unsigned long long, std::locale const&)
	_ZNSt13__facet_shims15__messages_openIwEEiSt17integral_constantIbLb0EEPKNSt6locale5facetEPKcyRKS3_ @ 2527
;	int std::__facet_shims::__messages_open<wchar_t>(std::integral_constant<bool, true>, std::locale::facet const*, char const*, unsigned long long, std::locale const&)
	_ZNSt13__facet_shims15__messages_openIwEEiSt17integral_constantIbLb1EEPKNSt6locale5facetEPKcyRKS3_ @ 2528
;	void std::__facet_shims::__messages_close<char>(std::integral_constant<bool, false>, std::locale::facet const*, int)
	_ZNSt13__facet_shims16__messages_closeIcEEvSt17integral_constantIbLb0EEPKNSt6locale5facetEi @ 2529
;	void std::__facet_shims::__messages_close<char>(std::integral_constant<bool, true>, std::locale::facet const*, int)
	_ZNSt13__facet_shims16__messages_closeIcEEvSt17integral_constantIbLb1EEPKNSt6locale5facetEi @ 2530
;	void std::__facet_shims::__messages_close<wchar_t>(std::integral_constant<bool, false>, std::locale::facet const*, int)
	_ZNSt13__facet_shims16__messages_closeIwEEvSt17integral_constantIbLb0EEPKNSt6locale5facetEi @ 2531
;	void std::__facet_shims::__messages_close<wchar_t>(std::integral_constant<bool, true>, std::locale::facet const*, int)
	_ZNSt13__facet_shims16__messages_closeIwEEvSt17integral_constantIbLb1EEPKNSt6locale5facetEi @ 2532
;	int std::__facet_shims::__collate_compare<char>(std::integral_constant<bool, false>, std::locale::facet const*, char const*, char const*, char const*, char const*)
	_ZNSt13__facet_shims17__collate_compareIcEEiSt17integral_constantIbLb0EEPKNSt6locale5facetEPKT_S9_S9_S9_ @ 2533
;	int std::__facet_shims::__collate_compare<char>(std::integral_constant<bool, true>, std::locale::facet const*, char const*, char const*, char const*, char const*)
	_ZNSt13__facet_shims17__collate_compareIcEEiSt17integral_constantIbLb1EEPKNSt6locale5facetEPKT_S9_S9_S9_ @ 2534
;	int std::__facet_shims::__collate_compare<wchar_t>(std::integral_constant<bool, false>, std::locale::facet const*, wchar_t const*, wchar_t const*, wchar_t const*, wchar_t const*)
	_ZNSt13__facet_shims17__collate_compareIwEEiSt17integral_constantIbLb0EEPKNSt6locale5facetEPKT_S9_S9_S9_ @ 2535
;	int std::__facet_shims::__collate_compare<wchar_t>(std::integral_constant<bool, true>, std::locale::facet const*, wchar_t const*, wchar_t const*, wchar_t const*, wchar_t const*)
	_ZNSt13__facet_shims17__collate_compareIwEEiSt17integral_constantIbLb1EEPKNSt6locale5facetEPKT_S9_S9_S9_ @ 2536
;	void std::__facet_shims::__collate_transform<char>(std::integral_constant<bool, false>, std::locale::facet const*, std::__facet_shims::__any_string&, char const*, char const*)
	_ZNSt13__facet_shims19__collate_transformIcEEvSt17integral_constantIbLb0EEPKNSt6locale5facetERNS_12__any_stringEPKT_SB_ @ 2537
;	void std::__facet_shims::__collate_transform<char>(std::integral_constant<bool, true>, std::locale::facet const*, std::__facet_shims::__any_string&, char const*, char const*)
	_ZNSt13__facet_shims19__collate_transformIcEEvSt17integral_constantIbLb1EEPKNSt6locale5facetERNS_12__any_stringEPKT_SB_ @ 2538
;	void std::__facet_shims::__collate_transform<wchar_t>(std::integral_constant<bool, false>, std::locale::facet const*, std::__facet_shims::__any_string&, wchar_t const*, wchar_t const*)
	_ZNSt13__facet_shims19__collate_transformIwEEvSt17integral_constantIbLb0EEPKNSt6locale5facetERNS_12__any_stringEPKT_SB_ @ 2539
;	void std::__facet_shims::__collate_transform<wchar_t>(std::integral_constant<bool, true>, std::locale::facet const*, std::__facet_shims::__any_string&, wchar_t const*, wchar_t const*)
	_ZNSt13__facet_shims19__collate_transformIwEEvSt17integral_constantIbLb1EEPKNSt6locale5facetERNS_12__any_stringEPKT_SB_ @ 2540
;	std::time_base::dateorder std::__facet_shims::__time_get_dateorder<char>(std::integral_constant<bool, false>, std::locale::facet const*)
	_ZNSt13__facet_shims20__time_get_dateorderIcEENSt9time_base9dateorderESt17integral_constantIbLb0EEPKNSt6locale5facetE @ 2541
;	std::time_base::dateorder std::__facet_shims::__time_get_dateorder<char>(std::integral_constant<bool, true>, std::locale::facet const*)
	_ZNSt13__facet_shims20__time_get_dateorderIcEENSt9time_base9dateorderESt17integral_constantIbLb1EEPKNSt6locale5facetE @ 2542
;	std::time_base::dateorder std::__facet_shims::__time_get_dateorder<wchar_t>(std::integral_constant<bool, false>, std::locale::facet const*)
	_ZNSt13__facet_shims20__time_get_dateorderIwEENSt9time_base9dateorderESt17integral_constantIbLb0EEPKNSt6locale5facetE @ 2543
;	std::time_base::dateorder std::__facet_shims::__time_get_dateorder<wchar_t>(std::integral_constant<bool, true>, std::locale::facet const*)
	_ZNSt13__facet_shims20__time_get_dateorderIwEENSt9time_base9dateorderESt17integral_constantIbLb1EEPKNSt6locale5facetE @ 2544
;	void std::__facet_shims::__numpunct_fill_cache<char>(std::integral_constant<bool, false>, std::locale::facet const*, std::__numpunct_cache<char>*)
	_ZNSt13__facet_shims21__numpunct_fill_cacheIcEEvSt17integral_constantIbLb0EEPKNSt6locale5facetEPSt16__numpunct_cacheIT_E @ 2545
;	void std::__facet_shims::__numpunct_fill_cache<char>(std::integral_constant<bool, true>, std::locale::facet const*, std::__numpunct_cache<char>*)
	_ZNSt13__facet_shims21__numpunct_fill_cacheIcEEvSt17integral_constantIbLb1EEPKNSt6locale5facetEPSt16__numpunct_cacheIT_E @ 2546
;	void std::__facet_shims::__numpunct_fill_cache<wchar_t>(std::integral_constant<bool, false>, std::locale::facet const*, std::__numpunct_cache<wchar_t>*)
	_ZNSt13__facet_shims21__numpunct_fill_cacheIwEEvSt17integral_constantIbLb0EEPKNSt6locale5facetEPSt16__numpunct_cacheIT_E @ 2547
;	void std::__facet_shims::__numpunct_fill_cache<wchar_t>(std::integral_constant<bool, true>, std::locale::facet const*, std::__numpunct_cache<wchar_t>*)
	_ZNSt13__facet_shims21__numpunct_fill_cacheIwEEvSt17integral_constantIbLb1EEPKNSt6locale5facetEPSt16__numpunct_cacheIT_E @ 2548
;	void std::__facet_shims::__moneypunct_fill_cache<char, false>(std::integral_constant<bool, false>, std::locale::facet const*, std::__moneypunct_cache<char, false>*)
	_ZNSt13__facet_shims23__moneypunct_fill_cacheIcLb0EEEvSt17integral_constantIbLb0EEPKNSt6locale5facetEPSt18__moneypunct_cacheIT_XT0_EE @ 2549
;	void std::__facet_shims::__moneypunct_fill_cache<char, false>(std::integral_constant<bool, true>, std::locale::facet const*, std::__moneypunct_cache<char, false>*)
	_ZNSt13__facet_shims23__moneypunct_fill_cacheIcLb0EEEvSt17integral_constantIbLb1EEPKNSt6locale5facetEPSt18__moneypunct_cacheIT_XT0_EE @ 2550
;	void std::__facet_shims::__moneypunct_fill_cache<char, true>(std::integral_constant<bool, false>, std::locale::facet const*, std::__moneypunct_cache<char, true>*)
	_ZNSt13__facet_shims23__moneypunct_fill_cacheIcLb1EEEvSt17integral_constantIbLb0EEPKNSt6locale5facetEPSt18__moneypunct_cacheIT_XT0_EE @ 2551
;	void std::__facet_shims::__moneypunct_fill_cache<char, true>(std::integral_constant<bool, true>, std::locale::facet const*, std::__moneypunct_cache<char, true>*)
	_ZNSt13__facet_shims23__moneypunct_fill_cacheIcLb1EEEvSt17integral_constantIbLb1EEPKNSt6locale5facetEPSt18__moneypunct_cacheIT_XT0_EE @ 2552
;	void std::__facet_shims::__moneypunct_fill_cache<wchar_t, false>(std::integral_constant<bool, false>, std::locale::facet const*, std::__moneypunct_cache<wchar_t, false>*)
	_ZNSt13__facet_shims23__moneypunct_fill_cacheIwLb0EEEvSt17integral_constantIbLb0EEPKNSt6locale5facetEPSt18__moneypunct_cacheIT_XT0_EE @ 2553
;	void std::__facet_shims::__moneypunct_fill_cache<wchar_t, false>(std::integral_constant<bool, true>, std::locale::facet const*, std::__moneypunct_cache<wchar_t, false>*)
	_ZNSt13__facet_shims23__moneypunct_fill_cacheIwLb0EEEvSt17integral_constantIbLb1EEPKNSt6locale5facetEPSt18__moneypunct_cacheIT_XT0_EE @ 2554
;	void std::__facet_shims::__moneypunct_fill_cache<wchar_t, true>(std::integral_constant<bool, false>, std::locale::facet const*, std::__moneypunct_cache<wchar_t, true>*)
	_ZNSt13__facet_shims23__moneypunct_fill_cacheIwLb1EEEvSt17integral_constantIbLb0EEPKNSt6locale5facetEPSt18__moneypunct_cacheIT_XT0_EE @ 2555
;	void std::__facet_shims::__moneypunct_fill_cache<wchar_t, true>(std::integral_constant<bool, true>, std::locale::facet const*, std::__moneypunct_cache<wchar_t, true>*)
	_ZNSt13__facet_shims23__moneypunct_fill_cacheIwLb1EEEvSt17integral_constantIbLb1EEPKNSt6locale5facetEPSt18__moneypunct_cacheIT_XT0_EE @ 2556
;	std::__ios_failure::~__ios_failure()
	_ZNSt13__ios_failureD0Ev @ 2557
;	std::__ios_failure::~__ios_failure()
	_ZNSt13__ios_failureD1Ev @ 2558
;	std::bad_exception::~bad_exception()
	_ZNSt13bad_exceptionD0Ev @ 2559
;	std::bad_exception::~bad_exception()
	_ZNSt13bad_exceptionD1Ev @ 2560
;	std::bad_exception::~bad_exception()
	_ZNSt13bad_exceptionD2Ev @ 2561
;	std::basic_filebuf<char, std::char_traits<char> >::_M_set_buffer(long long)
	_ZNSt13basic_filebufIcSt11char_traitsIcEE13_M_set_bufferEx @ 2562
;	std::basic_filebuf<char, std::char_traits<char> >::_M_get_ext_pos(_Mbstatet&)
	_ZNSt13basic_filebufIcSt11char_traitsIcEE14_M_get_ext_posER9_Mbstatet @ 2563
;	std::basic_filebuf<char, std::char_traits<char> >::_M_create_pback()
	_ZNSt13basic_filebufIcSt11char_traitsIcEE15_M_create_pbackEv @ 2564
;	std::basic_filebuf<char, std::char_traits<char> >::_M_destroy_pback()
	_ZNSt13basic_filebufIcSt11char_traitsIcEE16_M_destroy_pbackEv @ 2565
;	std::basic_filebuf<char, std::char_traits<char> >::_M_terminate_output()
	_ZNSt13basic_filebufIcSt11char_traitsIcEE19_M_terminate_outputEv @ 2566
;	std::basic_filebuf<char, std::char_traits<char> >::_M_convert_to_external(char*, long long)
	_ZNSt13basic_filebufIcSt11char_traitsIcEE22_M_convert_to_externalEPcx @ 2567
;	std::basic_filebuf<char, std::char_traits<char> >::_M_destroy_internal_buffer()
	_ZNSt13basic_filebufIcSt11char_traitsIcEE26_M_destroy_internal_bufferEv @ 2568
;	std::basic_filebuf<char, std::char_traits<char> >::_M_allocate_internal_buffer()
	_ZNSt13basic_filebufIcSt11char_traitsIcEE27_M_allocate_internal_bufferEv @ 2569
;	std::basic_filebuf<char, std::char_traits<char> >::open(char const*, std::_Ios_Openmode)
	_ZNSt13basic_filebufIcSt11char_traitsIcEE4openEPKcSt13_Ios_Openmode @ 2570
;	std::basic_filebuf<char, std::char_traits<char> >::open(wchar_t const*, std::_Ios_Openmode)
	_ZNSt13basic_filebufIcSt11char_traitsIcEE4openEPKwSt13_Ios_Openmode @ 2571
;	std::basic_filebuf<char, std::char_traits<char> >::open(std::__cxx11::basic_string<char, std::char_traits<char>, std::allocator<char> > const&, std::_Ios_Openmode)
	_ZNSt13basic_filebufIcSt11char_traitsIcEE4openERKNSt7__cxx1112basic_stringIcS1_SaIcEEESt13_Ios_Openmode @ 2572
;	std::basic_filebuf<char, std::char_traits<char> >::swap(std::basic_filebuf<char, std::char_traits<char> >&)
	_ZNSt13basic_filebufIcSt11char_traitsIcEE4swapERS2_ @ 2573
;	std::basic_filebuf<char, std::char_traits<char> >::sync()
	_ZNSt13basic_filebufIcSt11char_traitsIcEE4syncEv @ 2574
;	std::basic_filebuf<char, std::char_traits<char> >::close()
	_ZNSt13basic_filebufIcSt11char_traitsIcEE5closeEv @ 2575
;	std::basic_filebuf<char, std::char_traits<char> >::imbue(std::locale const&)
	_ZNSt13basic_filebufIcSt11char_traitsIcEE5imbueERKSt6locale @ 2576
;	std::basic_filebuf<char, std::char_traits<char> >::setbuf(char*, long long)
	_ZNSt13basic_filebufIcSt11char_traitsIcEE6setbufEPcx @ 2577
;	std::basic_filebuf<char, std::char_traits<char> >::xsgetn(char*, long long)
	_ZNSt13basic_filebufIcSt11char_traitsIcEE6xsgetnEPcx @ 2578
;	std::basic_filebuf<char, std::char_traits<char> >::xsputn(char const*, long long)
	_ZNSt13basic_filebufIcSt11char_traitsIcEE6xsputnEPKcx @ 2579
;	std::basic_filebuf<char, std::char_traits<char> >::_M_seek(long long, std::_Ios_Seekdir, _Mbstatet)
	_ZNSt13basic_filebufIcSt11char_traitsIcEE7_M_seekExSt12_Ios_Seekdir9_Mbstatet @ 2580
;	std::basic_filebuf<char, std::char_traits<char> >::seekoff(long long, std::_Ios_Seekdir, std::_Ios_Openmode)
	_ZNSt13basic_filebufIcSt11char_traitsIcEE7seekoffExSt12_Ios_SeekdirSt13_Ios_Openmode @ 2581
;	std::basic_filebuf<char, std::char_traits<char> >::seekpos(std::fpos<_Mbstatet>, std::_Ios_Openmode)
	_ZNSt13basic_filebufIcSt11char_traitsIcEE7seekposESt4fposI9_MbstatetESt13_Ios_Openmode @ 2582
;	std::basic_filebuf<char, std::char_traits<char> >::overflow(int)
	_ZNSt13basic_filebufIcSt11char_traitsIcEE8overflowEi @ 2583
;	std::basic_filebuf<char, std::char_traits<char> >::pbackfail(int)
	_ZNSt13basic_filebufIcSt11char_traitsIcEE9pbackfailEi @ 2584
;	std::basic_filebuf<char, std::char_traits<char> >::showmanyc()
	_ZNSt13basic_filebufIcSt11char_traitsIcEE9showmanycEv @ 2585
;	std::basic_filebuf<char, std::char_traits<char> >::underflow()
	_ZNSt13basic_filebufIcSt11char_traitsIcEE9underflowEv @ 2586
;	std::basic_filebuf<char, std::char_traits<char> >::basic_filebuf(std::basic_filebuf<char, std::char_traits<char> >&&)
	_ZNSt13basic_filebufIcSt11char_traitsIcEEC1EOS2_ @ 2587
;	std::basic_filebuf<char, std::char_traits<char> >::basic_filebuf()
	_ZNSt13basic_filebufIcSt11char_traitsIcEEC1Ev @ 2588
;	std::basic_filebuf<char, std::char_traits<char> >::basic_filebuf(std::basic_filebuf<char, std::char_traits<char> >&&)
	_ZNSt13basic_filebufIcSt11char_traitsIcEEC2EOS2_ @ 2589
;	std::basic_filebuf<char, std::char_traits<char> >::basic_filebuf()
	_ZNSt13basic_filebufIcSt11char_traitsIcEEC2Ev @ 2590
;	std::basic_filebuf<char, std::char_traits<char> >::~basic_filebuf()
	_ZNSt13basic_filebufIcSt11char_traitsIcEED0Ev @ 2591
;	std::basic_filebuf<char, std::char_traits<char> >::~basic_filebuf()
	_ZNSt13basic_filebufIcSt11char_traitsIcEED1Ev @ 2592
;	std::basic_filebuf<char, std::char_traits<char> >::~basic_filebuf()
	_ZNSt13basic_filebufIcSt11char_traitsIcEED2Ev @ 2593
;	std::basic_filebuf<char, std::char_traits<char> >::operator=(std::basic_filebuf<char, std::char_traits<char> >&&)
	_ZNSt13basic_filebufIcSt11char_traitsIcEEaSEOS2_ @ 2594
;	std::basic_filebuf<wchar_t, std::char_traits<wchar_t> >::_M_set_buffer(long long)
	_ZNSt13basic_filebufIwSt11char_traitsIwEE13_M_set_bufferEx @ 2595
;	std::basic_filebuf<wchar_t, std::char_traits<wchar_t> >::_M_get_ext_pos(_Mbstatet&)
	_ZNSt13basic_filebufIwSt11char_traitsIwEE14_M_get_ext_posER9_Mbstatet @ 2596
;	std::basic_filebuf<wchar_t, std::char_traits<wchar_t> >::_M_create_pback()
	_ZNSt13basic_filebufIwSt11char_traitsIwEE15_M_create_pbackEv @ 2597
;	std::basic_filebuf<wchar_t, std::char_traits<wchar_t> >::_M_destroy_pback()
	_ZNSt13basic_filebufIwSt11char_traitsIwEE16_M_destroy_pbackEv @ 2598
;	std::basic_filebuf<wchar_t, std::char_traits<wchar_t> >::_M_terminate_output()
	_ZNSt13basic_filebufIwSt11char_traitsIwEE19_M_terminate_outputEv @ 2599
;	std::basic_filebuf<wchar_t, std::char_traits<wchar_t> >::_M_convert_to_external(wchar_t*, long long)
	_ZNSt13basic_filebufIwSt11char_traitsIwEE22_M_convert_to_externalEPwx @ 2600
;	std::basic_filebuf<wchar_t, std::char_traits<wchar_t> >::_M_destroy_internal_buffer()
	_ZNSt13basic_filebufIwSt11char_traitsIwEE26_M_destroy_internal_bufferEv @ 2601
;	std::basic_filebuf<wchar_t, std::char_traits<wchar_t> >::_M_allocate_internal_buffer()
	_ZNSt13basic_filebufIwSt11char_traitsIwEE27_M_allocate_internal_bufferEv @ 2602
;	std::basic_filebuf<wchar_t, std::char_traits<wchar_t> >::open(char const*, std::_Ios_Openmode)
	_ZNSt13basic_filebufIwSt11char_traitsIwEE4openEPKcSt13_Ios_Openmode @ 2603
;	std::basic_filebuf<wchar_t, std::char_traits<wchar_t> >::open(wchar_t const*, std::_Ios_Openmode)
	_ZNSt13basic_filebufIwSt11char_traitsIwEE4openEPKwSt13_Ios_Openmode @ 2604
;	std::basic_filebuf<wchar_t, std::char_traits<wchar_t> >::open(std::__cxx11::basic_string<char, std::char_traits<char>, std::allocator<char> > const&, std::_Ios_Openmode)
	_ZNSt13basic_filebufIwSt11char_traitsIwEE4openERKNSt7__cxx1112basic_stringIcS0_IcESaIcEEESt13_Ios_Openmode @ 2605
;	std::basic_filebuf<wchar_t, std::char_traits<wchar_t> >::swap(std::basic_filebuf<wchar_t, std::char_traits<wchar_t> >&)
	_ZNSt13basic_filebufIwSt11char_traitsIwEE4swapERS2_ @ 2606
;	std::basic_filebuf<wchar_t, std::char_traits<wchar_t> >::sync()
	_ZNSt13basic_filebufIwSt11char_traitsIwEE4syncEv @ 2607
;	std::basic_filebuf<wchar_t, std::char_traits<wchar_t> >::close()
	_ZNSt13basic_filebufIwSt11char_traitsIwEE5closeEv @ 2608
;	std::basic_filebuf<wchar_t, std::char_traits<wchar_t> >::imbue(std::locale const&)
	_ZNSt13basic_filebufIwSt11char_traitsIwEE5imbueERKSt6locale @ 2609
;	std::basic_filebuf<wchar_t, std::char_traits<wchar_t> >::setbuf(wchar_t*, long long)
	_ZNSt13basic_filebufIwSt11char_traitsIwEE6setbufEPwx @ 2610
;	std::basic_filebuf<wchar_t, std::char_traits<wchar_t> >::xsgetn(wchar_t*, long long)
	_ZNSt13basic_filebufIwSt11char_traitsIwEE6xsgetnEPwx @ 2611
;	std::basic_filebuf<wchar_t, std::char_traits<wchar_t> >::xsputn(wchar_t const*, long long)
	_ZNSt13basic_filebufIwSt11char_traitsIwEE6xsputnEPKwx @ 2612
;	std::basic_filebuf<wchar_t, std::char_traits<wchar_t> >::_M_seek(long long, std::_Ios_Seekdir, _Mbstatet)
	_ZNSt13basic_filebufIwSt11char_traitsIwEE7_M_seekExSt12_Ios_Seekdir9_Mbstatet @ 2613
;	std::basic_filebuf<wchar_t, std::char_traits<wchar_t> >::seekoff(long long, std::_Ios_Seekdir, std::_Ios_Openmode)
	_ZNSt13basic_filebufIwSt11char_traitsIwEE7seekoffExSt12_Ios_SeekdirSt13_Ios_Openmode @ 2614
;	std::basic_filebuf<wchar_t, std::char_traits<wchar_t> >::seekpos(std::fpos<_Mbstatet>, std::_Ios_Openmode)
	_ZNSt13basic_filebufIwSt11char_traitsIwEE7seekposESt4fposI9_MbstatetESt13_Ios_Openmode @ 2615
;	std::basic_filebuf<wchar_t, std::char_traits<wchar_t> >::overflow(unsigned short)
	_ZNSt13basic_filebufIwSt11char_traitsIwEE8overflowEt @ 2616
;	std::basic_filebuf<wchar_t, std::char_traits<wchar_t> >::pbackfail(unsigned short)
	_ZNSt13basic_filebufIwSt11char_traitsIwEE9pbackfailEt @ 2617
;	std::basic_filebuf<wchar_t, std::char_traits<wchar_t> >::showmanyc()
	_ZNSt13basic_filebufIwSt11char_traitsIwEE9showmanycEv @ 2618
;	std::basic_filebuf<wchar_t, std::char_traits<wchar_t> >::underflow()
	_ZNSt13basic_filebufIwSt11char_traitsIwEE9underflowEv @ 2619
;	std::basic_filebuf<wchar_t, std::char_traits<wchar_t> >::basic_filebuf(std::basic_filebuf<wchar_t, std::char_traits<wchar_t> >&&)
	_ZNSt13basic_filebufIwSt11char_traitsIwEEC1EOS2_ @ 2620
;	std::basic_filebuf<wchar_t, std::char_traits<wchar_t> >::basic_filebuf()
	_ZNSt13basic_filebufIwSt11char_traitsIwEEC1Ev @ 2621
;	std::basic_filebuf<wchar_t, std::char_traits<wchar_t> >::basic_filebuf(std::basic_filebuf<wchar_t, std::char_traits<wchar_t> >&&)
	_ZNSt13basic_filebufIwSt11char_traitsIwEEC2EOS2_ @ 2622
;	std::basic_filebuf<wchar_t, std::char_traits<wchar_t> >::basic_filebuf()
	_ZNSt13basic_filebufIwSt11char_traitsIwEEC2Ev @ 2623
;	std::basic_filebuf<wchar_t, std::char_traits<wchar_t> >::~basic_filebuf()
	_ZNSt13basic_filebufIwSt11char_traitsIwEED0Ev @ 2624
;	std::basic_filebuf<wchar_t, std::char_traits<wchar_t> >::~basic_filebuf()
	_ZNSt13basic_filebufIwSt11char_traitsIwEED1Ev @ 2625
;	std::basic_filebuf<wchar_t, std::char_traits<wchar_t> >::~basic_filebuf()
	_ZNSt13basic_filebufIwSt11char_traitsIwEED2Ev @ 2626
;	std::basic_filebuf<wchar_t, std::char_traits<wchar_t> >::operator=(std::basic_filebuf<wchar_t, std::char_traits<wchar_t> >&&)
	_ZNSt13basic_filebufIwSt11char_traitsIwEEaSEOS2_ @ 2627
;	std::basic_fstream<char, std::char_traits<char> >::open(char const*, std::_Ios_Openmode)
	_ZNSt13basic_fstreamIcSt11char_traitsIcEE4openEPKcSt13_Ios_Openmode @ 2628
;	std::basic_fstream<char, std::char_traits<char> >::open(wchar_t const*, std::_Ios_Openmode)
	_ZNSt13basic_fstreamIcSt11char_traitsIcEE4openEPKwSt13_Ios_Openmode @ 2629
;	std::basic_fstream<char, std::char_traits<char> >::open(std::__cxx11::basic_string<char, std::char_traits<char>, std::allocator<char> > const&, std::_Ios_Openmode)
	_ZNSt13basic_fstreamIcSt11char_traitsIcEE4openERKNSt7__cxx1112basic_stringIcS1_SaIcEEESt13_Ios_Openmode @ 2630
;	std::basic_fstream<char, std::char_traits<char> >::swap(std::basic_fstream<char, std::char_traits<char> >&)
	_ZNSt13basic_fstreamIcSt11char_traitsIcEE4swapERS2_ @ 2631
;	std::basic_fstream<char, std::char_traits<char> >::close()
	_ZNSt13basic_fstreamIcSt11char_traitsIcEE5closeEv @ 2632
;	std::basic_fstream<char, std::char_traits<char> >::is_open()
	_ZNSt13basic_fstreamIcSt11char_traitsIcEE7is_openEv @ 2633
